 missionchooser

 Timestamp is 518ba7c2 (Thu May 09 14:42:26 2013)

 Preferred load address is 10000000

 Start         Length     Name                   Class
 0001:00000000 001530eaH .textbss                DATA
 0002:00000000 002bd71aH .text                   CODE
 0002:002bd720 00001208H .text$x                 CODE
 0002:002be930 0000cd8fH .text$yc                CODE
 0002:002cb6c0 00001ee9H .text$yd                CODE
 0003:00000000 00000104H .CRT$XCA                DATA
 0003:00000104 00000ae4H .CRT$XCU                DATA
 0003:00000be8 00000104H .CRT$XCZ                DATA
 0003:00000cec 00000104H .CRT$XIA                DATA
 0003:00000df0 00000118H .CRT$XIC                DATA
 0003:00000f08 00000104H .CRT$XIZ                DATA
 0003:0000100c 00000104H .CRT$XPA                DATA
 0003:00001110 00000104H .CRT$XPX                DATA
 0003:00001214 00000104H .CRT$XPXA               DATA
 0003:00001318 00000104H .CRT$XPZ                DATA
 0003:0000141c 00000104H .CRT$XTA                DATA
 0003:00001520 00000104H .CRT$XTZ                DATA
 0003:00001630 000a43d2H .rdata                  DATA
 0003:000a5a04 000001a4H .rdata$debug            DATA
 0003:000a5ba8 0000a29aH .rdata$r                DATA
 0003:000afe44 00000104H .rtc$IAA                DATA
 0003:000aff48 00000109H .rtc$IMZ                DATA
 0003:000b0054 00000104H .rtc$IZZ                DATA
 0003:000b0158 00000104H .rtc$TAA                DATA
 0003:000b025c 00000109H .rtc$TMZ                DATA
 0003:000b0368 00000104H .rtc$TZZ                DATA
 0003:000b0470 0000109fH .xdata$x                DATA
 0003:000b1510 0000018bH .edata                  DATA
 0004:00000000 0000fd32H .data                   DATA
 0004:0000fd40 00050670H .bss                    DATA
 0005:00000000 00000064H .idata$2                DATA
 0005:00000064 00000014H .idata$3                DATA
 0005:00000078 000003ecH .idata$4                DATA
 0005:00000464 000003ecH .idata$5                DATA
 0005:00000850 00001080H .idata$6                DATA
 0006:00000000 00000109H ValveDBG                DATA

  Address         Publics by Value              Rva+Base       Lib:Object

 0000:00000000       ___safe_se_handler_table   00000000     <absolute>
 0000:00000000       __except_list              00000000     <absolute>
 0000:00000000       ___safe_se_handler_count   00000000     <absolute>
 0000:00000000       ___ImageBase               10000000     <linker-defined>
 0001:00000000       __enc$textbss$begin        10001000     <linker-defined>
 0001:001530ea       __enc$textbss$end          101540ea     <linker-defined>
 0002:00023ff0       ??_H@YGXPAXIHP6EPAX0@Z@Z   10178ff0 f i asw_key_values_database.obj
 0002:00024060       ??0CASW_KeyValuesDatabase@@QAE@XZ 10179060 f   asw_key_values_database.obj
 0002:000240c0       ?LoadFiles@CASW_KeyValuesDatabase@@QAEXPBD@Z 101790c0 f   asw_key_values_database.obj
 0002:000242a0       ?LoadFilesInFolder@CASW_KeyValuesDatabase@@AAEXPBD@Z 101792a0 f   asw_key_values_database.obj
 0002:00024650       ?GetFileByName@CASW_KeyValuesDatabase@@QAEPAVKeyValues@@PBD@Z 10179650 f   asw_key_values_database.obj
 0002:00024720       ?ReloadFile@CASW_KeyValuesDatabase@@QAEPAVKeyValues@@PBD@Z 10179720 f   asw_key_values_database.obj
 0002:00024910       ?AddFile@CASW_KeyValuesDatabase@@QAEXPAVKeyValues@@PBD@Z 10179910 f   asw_key_values_database.obj
 0002:00024a00       ??0?$CUtlVector@UFileEntry_t@CASW_KeyValuesDatabase@@V?$CUtlMemory@UFileEntry_t@CASW_KeyValuesDatabase@@H@@@@QAE@HH@Z 10179a00 f i asw_key_values_database.obj
 0002:00024a80       ??A?$CUtlVector@UFileEntry_t@CASW_KeyValuesDatabase@@V?$CUtlMemory@UFileEntry_t@CASW_KeyValuesDatabase@@H@@@@QAEAAUFileEntry_t@CASW_KeyValuesDatabase@@H@Z 10179a80 f i asw_key_values_database.obj
 0002:00024bb0       ?Count@?$CUtlVector@UFileEntry_t@CASW_KeyValuesDatabase@@V?$CUtlMemory@UFileEntry_t@CASW_KeyValuesDatabase@@H@@@@QBEHXZ 10179bb0 f i asw_key_values_database.obj
 0002:00024bf0       ?AddToTail@?$CUtlVector@UFileEntry_t@CASW_KeyValuesDatabase@@V?$CUtlMemory@UFileEntry_t@CASW_KeyValuesDatabase@@H@@@@QAEHXZ 10179bf0 f i asw_key_values_database.obj
 0002:00024c50       ?RemoveAll@?$CUtlVector@UFileEntry_t@CASW_KeyValuesDatabase@@V?$CUtlMemory@UFileEntry_t@CASW_KeyValuesDatabase@@H@@@@QAEXXZ 10179c50 f i asw_key_values_database.obj
 0002:00024ce0       ?ResetDbgInfo@?$CUtlVector@UFileEntry_t@CASW_KeyValuesDatabase@@V?$CUtlMemory@UFileEntry_t@CASW_KeyValuesDatabase@@H@@@@IAEXXZ 10179ce0 f i asw_key_values_database.obj
 0002:00024d40       ?Base@?$CUtlVector@UFileEntry_t@CASW_KeyValuesDatabase@@V?$CUtlMemory@UFileEntry_t@CASW_KeyValuesDatabase@@H@@@@QAEPAUFileEntry_t@CASW_KeyValuesDatabase@@XZ 10179d40 f i asw_key_values_database.obj
 0002:00024d90       ?Element@?$CUtlVector@UFileEntry_t@CASW_KeyValuesDatabase@@V?$CUtlMemory@UFileEntry_t@CASW_KeyValuesDatabase@@H@@@@QAEAAUFileEntry_t@CASW_KeyValuesDatabase@@H@Z 10179d90 f i asw_key_values_database.obj
 0002:00024ec0       ?InsertBefore@?$CUtlVector@UFileEntry_t@CASW_KeyValuesDatabase@@V?$CUtlMemory@UFileEntry_t@CASW_KeyValuesDatabase@@H@@@@QAEHH@Z 10179ec0 f i asw_key_values_database.obj
 0002:00025030       ??0?$CUtlMemory@UFileEntry_t@CASW_KeyValuesDatabase@@H@@QAE@HH@Z 1017a030 f i asw_key_values_database.obj
 0002:00025230       ?MemAlloc_Alloc@@YAPAXIPBDH@Z 1017a230 f i asw_key_values_database.obj
 0002:00025290       ?IndirectAlloc@IMemAlloc@@QAEPAXIPBDH@Z 1017a290 f i asw_key_values_database.obj
 0002:00025300       ??0CMemAllocAttributeAlloction@@QAE@PBDH@Z 1017a300 f i asw_key_values_database.obj
 0002:00025380       ??1CMemAllocAttributeAlloction@@QAE@XZ 1017a380 f i asw_key_values_database.obj
 0002:000253f0       ??A?$CUtlMemory@UFileEntry_t@CASW_KeyValuesDatabase@@H@@QAEAAUFileEntry_t@CASW_KeyValuesDatabase@@H@Z 1017a3f0 f i asw_key_values_database.obj
 0002:00025600       ?Base@?$CUtlMemory@UFileEntry_t@CASW_KeyValuesDatabase@@H@@QAEPAUFileEntry_t@CASW_KeyValuesDatabase@@XZ 1017a600 f i asw_key_values_database.obj
 0002:00025720       ??$Destruct@UFileEntry_t@CASW_KeyValuesDatabase@@@@YAXPAUFileEntry_t@CASW_KeyValuesDatabase@@@Z 1017a720 f i asw_key_values_database.obj
 0002:00025780       ?ValidateGrowSize@?$CUtlMemory@UFileEntry_t@CASW_KeyValuesDatabase@@H@@IAEXXZ 1017a780 f i asw_key_values_database.obj
 0002:000257c0       ?IsValidIndex@?$CUtlVector@UFileEntry_t@CASW_KeyValuesDatabase@@V?$CUtlMemory@UFileEntry_t@CASW_KeyValuesDatabase@@H@@@@QBE_NH@Z 1017a7c0 f i asw_key_values_database.obj
 0002:00025830       ?GrowVector@?$CUtlVector@UFileEntry_t@CASW_KeyValuesDatabase@@V?$CUtlMemory@UFileEntry_t@CASW_KeyValuesDatabase@@H@@@@IAEXH@Z 1017a830 f i asw_key_values_database.obj
 0002:00025950       ?ShiftElementsRight@?$CUtlVector@UFileEntry_t@CASW_KeyValuesDatabase@@V?$CUtlMemory@UFileEntry_t@CASW_KeyValuesDatabase@@H@@@@IAEXHH@Z 1017a950 f i asw_key_values_database.obj
 0002:00025af0       ?IsIdxValid@?$CUtlMemory@UFileEntry_t@CASW_KeyValuesDatabase@@H@@QBE_NH@Z 1017aaf0 f i asw_key_values_database.obj
 0002:00025b70       ?IsReadOnly@?$CUtlMemory@UFileEntry_t@CASW_KeyValuesDatabase@@H@@QBE_NXZ 1017ab70 f i asw_key_values_database.obj
 0002:00025bc0       ??$Construct@UFileEntry_t@CASW_KeyValuesDatabase@@@@YAPAUFileEntry_t@CASW_KeyValuesDatabase@@PAU01@@Z 1017abc0 f i asw_key_values_database.obj
 0002:00025c30       ??2@YAPAXIPAX@Z            1017ac30 f i asw_key_values_database.obj
 0002:00025c70       ??$MemAllocClassName@V?$CUtlMemory@UFileEntry_t@CASW_KeyValuesDatabase@@H@@@@YAPBDPAV?$CUtlMemory@UFileEntry_t@CASW_KeyValuesDatabase@@H@@@Z 1017ac70 f i asw_key_values_database.obj
 0002:00025cf0       ?NumAllocated@?$CUtlMemory@UFileEntry_t@CASW_KeyValuesDatabase@@H@@QBEHXZ 1017acf0 f i asw_key_values_database.obj
 0002:00025d30       ?Grow@?$CUtlMemory@UFileEntry_t@CASW_KeyValuesDatabase@@H@@QAEXH@Z 1017ad30 f i asw_key_values_database.obj
 0002:000263b0       ?UtlMemory_CalcNewAllocationCount@@YAHHHHH@Z 1017b3b0 f i asw_key_values_database.obj
 0002:00026440       ?IsExternallyAllocated@?$CUtlMemory@UFileEntry_t@CASW_KeyValuesDatabase@@H@@QBE_NXZ 1017b440 f i asw_key_values_database.obj
 0002:00026490       ??$MemAllocClassName@V?$CUtlVector@UFileEntry_t@CASW_KeyValuesDatabase@@V?$CUtlMemory@UFileEntry_t@CASW_KeyValuesDatabase@@H@@@@@@YAPBDPAV?$CUtlVector@UFileEntry_t@CASW_KeyValuesDatabase@@V?$CUtlMemory@UFileEntry_t@CASW_KeyValuesDatabase@@H@@@@@Z 1017b490 f i asw_key_values_database.obj
 0002:00026510       ??0Color@@QAE@HHHH@Z       1017b510 f i asw_key_values_database.obj
 0002:00026580       ?SetColor@Color@@QAEXHHHH@Z 1017b580 f i asw_key_values_database.obj
 0002:000265f0       ??0Vector2D@@QAE@MM@Z      1017b5f0 f i asw_key_values_database.obj
 0002:00026740       ?IsValid@Vector2D@@QBE_NXZ 1017b740 f i asw_key_values_database.obj
 0002:000267e0       ?IsFinite@@YA_NABM@Z       1017b7e0 f i asw_key_values_database.obj
 0002:00026850       ?FloatBits@@YA?BIABM@Z     1017b850 f i asw_key_values_database.obj
 0002:000268d0       ??0CASW_Location_Grid@@QAE@XZ 1017b8d0 f   asw_location_grid.obj
 0002:00026bd0       ?GetNumGroups@CASW_Location_Grid@@UAEHXZ 1017bbd0 f i asw_location_grid.obj
 0002:00026c30       ?GetFileCount@CASW_KeyValuesDatabase@@QAEHXZ 1017bc30 f i asw_location_grid.obj
 0002:00026c90       ?GetFile@CASW_KeyValuesDatabase@@QAEPAVKeyValues@@H@Z 1017bc90 f i asw_location_grid.obj
 0002:00026d00       ?GetFilename@CASW_KeyValuesDatabase@@QAEPBDH@Z 1017bd00 f i asw_location_grid.obj
 0002:00026d60       ??0CTilegenMissionPreprocessor@@QAE@XZ 1017bd60 f i asw_location_grid.obj
 0002:00026de0       ??_ECASW_Location_Grid@@UAEPAXI@Z 1017bde0 f i asw_location_grid.obj
 0002:00026de0       ??_GCASW_Location_Grid@@UAEPAXI@Z 1017bde0 f i asw_location_grid.obj
 0002:00026e50       ??0IASW_Location_Grid@@QAE@XZ 1017be50 f i asw_location_grid.obj
 0002:00026ea0       ??_GCASW_KeyValuesDatabase@@QAEPAXI@Z 1017bea0 f i asw_location_grid.obj
 0002:00026f10       ??1CASW_KeyValuesDatabase@@QAE@XZ 1017bf10 f i asw_location_grid.obj
 0002:00026f70       ??1CASW_Location_Grid@@UAE@XZ 1017bf70 f   asw_location_grid.obj
 0002:00027080       ??_GCTilegenMissionPreprocessor@@QAEPAXI@Z 1017c080 f i asw_location_grid.obj
 0002:000270f0       ?LoadLocationGrid@CASW_Location_Grid@@QAE_NXZ 1017c0f0 f   asw_location_grid.obj
 0002:00027350       ?SaveLocationGrid@CASW_Location_Grid@@QAE_NXZ 1017c350 f   asw_location_grid.obj
 0002:000274f0       ??1CUtlBuffer@@QAE@XZ      1017c4f0 f i asw_location_grid.obj
 0002:00027540       ?GetGroup@CASW_Location_Grid@@UAEPAVIASW_Location_Group@@H@Z 1017c540 f   asw_location_grid.obj
 0002:000275c0       ?GetCGroup@CASW_Location_Grid@@UAEPAVCASW_Location_Group@@H@Z 1017c5c0 f   asw_location_grid.obj
 0002:00027640       ?GetGroupByName@CASW_Location_Grid@@UAEPAVCASW_Location_Group@@PBD@Z 1017c640 f   asw_location_grid.obj
 0002:00027710       ?GetLocationByID@CASW_Location_Grid@@UAEPAVIASW_Location@@H@Z 1017c710 f   asw_location_grid.obj
 0002:00027860       ?SetLocationComplete@CASW_Location_Grid@@UAEXH@Z 1017c860 f   asw_location_grid.obj
 0002:000279b0       ?GetFreeLocationID@CASW_Location_Grid@@QAEHXZ 1017c9b0 f   asw_location_grid.obj
 0002:00027b10       ?GetMissionData@CASW_Location_Grid@@QAEPAVKeyValues@@PBD@Z 1017cb10 f   asw_location_grid.obj
 0002:00027b70       ?DeleteGroup@CASW_Location_Grid@@QAEXH@Z 1017cb70 f   asw_location_grid.obj
 0002:00027bd0       ?CreateNewGroup@CASW_Location_Grid@@QAEXXZ 1017cbd0 f   asw_location_grid.obj
 0002:00027cd0       ??0CASW_Reward@@QAE@XZ     1017ccd0 f   asw_location_grid.obj
 0002:00027d70       ?GetRewardType@CASW_Reward@@UAE?AW4ASW_Reward_Type@@XZ 1017cd70 f i asw_location_grid.obj
 0002:00027db0       ?GetRewardAmount@CASW_Reward@@UAEHXZ 1017cdb0 f i asw_location_grid.obj
 0002:00027df0       ?GetRewardName@CASW_Reward@@UAEPBDXZ 1017cdf0 f i asw_location_grid.obj
 0002:00027e30       ?GetRewardLevel@CASW_Reward@@UAEHXZ 1017ce30 f i asw_location_grid.obj
 0002:00027e70       ?GetRewardQuality@CASW_Reward@@UAEHXZ 1017ce70 f i asw_location_grid.obj
 0002:00027eb0       ??0IASW_Reward@@QAE@XZ     1017ceb0 f i asw_location_grid.obj
 0002:00027f00       ??1CASW_Reward@@QAE@XZ     1017cf00 f   asw_location_grid.obj
 0002:00027f80       ?LoadFromKeyValues@CASW_Reward@@UAE_NPAVKeyValues@@H@Z 1017cf80 f   asw_location_grid.obj
 0002:00028130       ?GetInt@KeyValues@@QAEHHH@Z 1017d130 f i asw_location_grid.obj
 0002:000281c0       ?GetKeyValuesForEditor@CASW_Reward@@UAEPAVKeyValues@@XZ 1017d1c0 f   asw_location_grid.obj
 0002:00028410       ??0CASW_Location_Group@@QAE@PAVCASW_Location_Grid@@@Z 1017d410 f   asw_location_grid.obj
 0002:00028580       ??0Color@@QAE@XZ           1017d580 f i asw_location_grid.obj
 0002:000285d0       ??4Color@@QAEAAV0@ABV0@@Z  1017d5d0 f i asw_location_grid.obj
 0002:00028630       ?SetRawColor@Color@@QAEXH@Z 1017d630 f i asw_location_grid.obj
 0002:00028680       ?GetRawColor@Color@@QBEHXZ 1017d680 f i asw_location_grid.obj
 0002:000286c0       ?GetGroupName@CASW_Location_Group@@UAEPBDXZ 1017d6c0 f i asw_location_grid.obj
 0002:00028700       ?GetTitleText@CASW_Location_Group@@UAEPBDXZ 1017d700 f i asw_location_grid.obj
 0002:00028740       ?GetDescriptionText@CASW_Location_Group@@UAEPBDXZ 1017d740 f i asw_location_grid.obj
 0002:00028780       ?GetImageName@CASW_Location_Group@@UAEPBDXZ 1017d780 f i asw_location_grid.obj
 0002:000287c0       ?GetColor@CASW_Location_Group@@UAEAAVColor@@XZ 1017d7c0 f i asw_location_grid.obj
 0002:00028800       ?GetNumLocations@CASW_Location_Group@@UAEHXZ 1017d800 f i asw_location_grid.obj
 0002:00028860       ??0IASW_Location_Group@@QAE@XZ 1017d860 f i asw_location_grid.obj
 0002:000288b0       ??1CASW_Location_Group@@QAE@XZ 1017d8b0 f   asw_location_grid.obj
 0002:000289c0       ?GetKeyValuesForEditor@CASW_Location_Group@@QAEPAVKeyValues@@XZ 1017d9c0 f   asw_location_grid.obj
 0002:00028cf0       ?r@Color@@QBEHXZ           1017dcf0 f i asw_location_grid.obj
 0002:00028d30       ?g@Color@@QBEHXZ           1017dd30 f i asw_location_grid.obj
 0002:00028d70       ?b@Color@@QBEHXZ           1017dd70 f i asw_location_grid.obj
 0002:00028db0       ?a@Color@@QBEHXZ           1017ddb0 f i asw_location_grid.obj
 0002:00028df0       ?LoadFromKeyValues@CASW_Location_Group@@QAEXPAVKeyValues@@@Z 1017ddf0 f   asw_location_grid.obj
 0002:000290f0       ?GetLocation@CASW_Location_Group@@UAEPAVIASW_Location@@H@Z 1017e0f0 f   asw_location_grid.obj
 0002:00029180       ?GetCLocation@CASW_Location_Group@@QAEPAVCASW_Location@@H@Z 1017e180 f   asw_location_grid.obj
 0002:00029210       ?GetHighestUnlockMissionID@CASW_Location_Group@@UAEHXZ 1017e210 f   asw_location_grid.obj
 0002:00029340       ?IsGroupLocked@CASW_Location_Group@@UAE_NAAV?$CUtlVector@HV?$CUtlMemory@HH@@@@@Z 1017e340 f   asw_location_grid.obj
 0002:00029420       ?GetBool@ConVar@@QBE_NXZ   1017e420 f i asw_location_grid.obj
 0002:00029480       ?GetInt@ConVar@@QBEHXZ     1017e480 f i asw_location_grid.obj
 0002:000294c0       ??0CASW_Location@@QAE@PAVCASW_Location_Grid@@@Z 1017e4c0 f   asw_location_grid.obj
 0002:00029600       ?GetID@CASW_Location@@UAEHXZ 1017e600 f i asw_location_grid.obj
 0002:00029640       ?GetGroup@CASW_Location@@UAEPAVIASW_Location_Group@@XZ 1017e640 f i asw_location_grid.obj
 0002:00029680       ?GetCGroup@CASW_Location@@UAEPAVCASW_Location_Group@@XZ 1017e680 f i asw_location_grid.obj
 0002:000296c0       ?GetDifficulty@CASW_Location@@UAEHXZ 1017e6c0 f i asw_location_grid.obj
 0002:00029700       ?GetCompleted@CASW_Location@@UAE_NXZ 1017e700 f i asw_location_grid.obj
 0002:00029740       ?GetXPos@CASW_Location@@UAEHXZ 1017e740 f i asw_location_grid.obj
 0002:00029780       ?GetYPos@CASW_Location@@UAEHXZ 1017e780 f i asw_location_grid.obj
 0002:000297c0       ?GetMapName@CASW_Location@@UAEPBDXZ 1017e7c0 f i asw_location_grid.obj
 0002:00029800       ?GetStoryScene@CASW_Location@@UAEPBDXZ 1017e800 f i asw_location_grid.obj
 0002:00029840       ?GetImageName@CASW_Location@@UAEPBDXZ 1017e840 f i asw_location_grid.obj
 0002:00029880       ?IsMissionOptional@CASW_Location@@UAEHXZ 1017e880 f i asw_location_grid.obj
 0002:000298c0       ?SetPos@CASW_Location@@UAEXHH@Z 1017e8c0 f i asw_location_grid.obj
 0002:00029910       ??0IASW_Location@@QAE@XZ   1017e910 f i asw_location_grid.obj
 0002:00029960       ??1CASW_Location@@QAE@XZ   1017e960 f   asw_location_grid.obj
 0002:000299f0       ?GetMissionSettings@CASW_Location@@UAEPAVKeyValues@@XZ 1017e9f0 f   asw_location_grid.obj
 0002:00029a80       ?GetMissionDefinition@CASW_Location@@UAEPAVKeyValues@@XZ 1017ea80 f   asw_location_grid.obj
 0002:00029ac0       ?GetCompanyName@CASW_Location@@UAEPBDXZ 1017eac0 f   asw_location_grid.obj
 0002:00029b90       ?GetCompanyImage@CASW_Location@@UAEPBDXZ 1017eb90 f   asw_location_grid.obj
 0002:00029c60       ?GetKeyValuesForEditor@CASW_Location@@QAEPAVKeyValues@@XZ 1017ec60 f   asw_location_grid.obj
 0002:00029f50       ?LoadFromKeyValues@CASW_Location@@QAEXPAVKeyValues@@PAVCUniformRandomStream@@@Z 1017ef50 f   asw_location_grid.obj
 0002:0002a500       ??_GCASW_Reward@@QAEPAXI@Z 1017f500 f i asw_location_grid.obj
 0002:0002a570       ?IsLocationLocked@CASW_Location@@UAE_NAAV?$CUtlVector@HV?$CUtlMemory@HH@@@@@Z 1017f570 f   asw_location_grid.obj
 0002:0002a630       ?GetNumRewards@CASW_Location@@UAEHXZ 1017f630 f   asw_location_grid.obj
 0002:0002a690       ?GetReward@CASW_Location@@UAEPAVIASW_Reward@@H@Z 1017f690 f   asw_location_grid.obj
 0002:0002a720       ?GetMoneyReward@CASW_Location@@UAEHXZ 1017f720 f   asw_location_grid.obj
 0002:0002a840       ?GetXPReward@CASW_Location@@UAEHXZ 1017f840 f   asw_location_grid.obj
 0002:0002a960       ??0?$CUtlVector@HV?$CUtlMemory@HH@@@@QAE@HH@Z 1017f960 f i asw_location_grid.obj
 0002:0002a9e0       ??1?$CUtlVector@HV?$CUtlMemory@HH@@@@QAE@XZ 1017f9e0 f i asw_location_grid.obj
 0002:0002aa40       ??A?$CUtlVector@HV?$CUtlMemory@HH@@@@QAEAAHH@Z 1017fa40 f i asw_location_grid.obj
 0002:0002ab70       ?Count@?$CUtlVector@HV?$CUtlMemory@HH@@@@QBEHXZ 1017fb70 f i asw_location_grid.obj
 0002:0002abb0       ?InvalidIndex@?$CUtlVector@HV?$CUtlMemory@HH@@@@SAHXZ 1017fbb0 f i asw_location_grid.obj
 0002:0002abf0       ?AddToTail@?$CUtlVector@HV?$CUtlMemory@HH@@@@QAEHABH@Z 1017fbf0 f i asw_location_grid.obj
 0002:0002ad60       ?Find@?$CUtlVector@HV?$CUtlMemory@HH@@@@QBEHABH@Z 1017fd60 f i asw_location_grid.obj
 0002:0002ae00       ?Purge@?$CUtlVector@HV?$CUtlMemory@HH@@@@QAEXXZ 1017fe00 f i asw_location_grid.obj
 0002:0002ae70       ??0?$CUtlVector@PAVCASW_Location@@V?$CUtlMemory@PAVCASW_Location@@H@@@@QAE@HH@Z 1017fe70 f i asw_location_grid.obj
 0002:0002aef0       ??1?$CUtlVector@PAVCASW_Location@@V?$CUtlMemory@PAVCASW_Location@@H@@@@QAE@XZ 1017fef0 f i asw_location_grid.obj
 0002:0002af50       ??A?$CUtlVector@PAVCASW_Location@@V?$CUtlMemory@PAVCASW_Location@@H@@@@QAEAAPAVCASW_Location@@H@Z 1017ff50 f i asw_location_grid.obj
 0002:0002b080       ?Count@?$CUtlVector@PAVCASW_Location@@V?$CUtlMemory@PAVCASW_Location@@H@@@@QBEHXZ 10180080 f i asw_location_grid.obj
 0002:0002b0c0       ?AddToTail@?$CUtlVector@PAVCASW_Location@@V?$CUtlMemory@PAVCASW_Location@@H@@@@QAEHABQAVCASW_Location@@@Z 101800c0 f i asw_location_grid.obj
 0002:0002b230       ?PurgeAndDeleteElements@?$CUtlVector@PAVCASW_Location@@V?$CUtlMemory@PAVCASW_Location@@H@@@@QAEXXZ 10180230 f i asw_location_grid.obj
 0002:0002b300       ??0?$CUtlVector@PAVCASW_Reward@@V?$CUtlMemory@PAVCASW_Reward@@H@@@@QAE@HH@Z 10180300 f i asw_location_grid.obj
 0002:0002b380       ??1?$CUtlVector@PAVCASW_Reward@@V?$CUtlMemory@PAVCASW_Reward@@H@@@@QAE@XZ 10180380 f i asw_location_grid.obj
 0002:0002b3e0       ??A?$CUtlVector@PAVCASW_Reward@@V?$CUtlMemory@PAVCASW_Reward@@H@@@@QAEAAPAVCASW_Reward@@H@Z 101803e0 f i asw_location_grid.obj
 0002:0002b510       ?Count@?$CUtlVector@PAVCASW_Reward@@V?$CUtlMemory@PAVCASW_Reward@@H@@@@QBEHXZ 10180510 f i asw_location_grid.obj
 0002:0002b550       ?AddToTail@?$CUtlVector@PAVCASW_Reward@@V?$CUtlMemory@PAVCASW_Reward@@H@@@@QAEHABQAVCASW_Reward@@@Z 10180550 f i asw_location_grid.obj
 0002:0002b6c0       ?PurgeAndDeleteElements@?$CUtlVector@PAVCASW_Reward@@V?$CUtlMemory@PAVCASW_Reward@@H@@@@QAEXXZ 101806c0 f i asw_location_grid.obj
 0002:0002b790       ??0?$CUtlVector@PAVCASW_Location_Group@@V?$CUtlMemory@PAVCASW_Location_Group@@H@@@@QAE@HH@Z 10180790 f i asw_location_grid.obj
 0002:0002b810       ??1?$CUtlVector@PAVCASW_Location_Group@@V?$CUtlMemory@PAVCASW_Location_Group@@H@@@@QAE@XZ 10180810 f i asw_location_grid.obj
 0002:0002b870       ??A?$CUtlVector@PAVCASW_Location_Group@@V?$CUtlMemory@PAVCASW_Location_Group@@H@@@@QAEAAPAVCASW_Location_Group@@H@Z 10180870 f i asw_location_grid.obj
 0002:0002b9a0       ?Count@?$CUtlVector@PAVCASW_Location_Group@@V?$CUtlMemory@PAVCASW_Location_Group@@H@@@@QBEHXZ 101809a0 f i asw_location_grid.obj
 0002:0002b9e0       ?AddToTail@?$CUtlVector@PAVCASW_Location_Group@@V?$CUtlMemory@PAVCASW_Location_Group@@H@@@@QAEHABQAVCASW_Location_Group@@@Z 101809e0 f i asw_location_grid.obj
 0002:0002bb50       ?Remove@?$CUtlVector@PAVCASW_Location_Group@@V?$CUtlMemory@PAVCASW_Location_Group@@H@@@@QAEXH@Z 10180b50 f i asw_location_grid.obj
 0002:0002bbe0       ?PurgeAndDeleteElements@?$CUtlVector@PAVCASW_Location_Group@@V?$CUtlMemory@PAVCASW_Location_Group@@H@@@@QAEXXZ 10180be0 f i asw_location_grid.obj
 0002:0002bcb0       ??1?$CUtlMemory@EH@@QAE@XZ 10180cb0 f i asw_location_grid.obj
 0002:0002bd00       ?Purge@?$CUtlMemory@EH@@QAEXXZ 10180d00 f i asw_location_grid.obj
 0002:0002bdb0       ?IsExternallyAllocated@?$CUtlMemory@EH@@QBE_NXZ 10180db0 f i asw_location_grid.obj
 0002:0002be00       ??1?$CUtlVector@UFileEntry_t@CASW_KeyValuesDatabase@@V?$CUtlMemory@UFileEntry_t@CASW_KeyValuesDatabase@@H@@@@QAE@XZ 10180e00 f i asw_location_grid.obj
 0002:0002be60       ??0?$CUtlVector@PAVCTilegenEnum@@V?$CUtlMemory@PAVCTilegenEnum@@H@@@@QAE@HH@Z 10180e60 f i asw_location_grid.obj
 0002:0002bee0       ??0?$CUtlVector@PAVCTilegenRule@@V?$CUtlMemory@PAVCTilegenRule@@H@@@@QAE@HH@Z 10180ee0 f i asw_location_grid.obj
 0002:0002bf60       ??_GCASW_Location@@QAEPAXI@Z 10180f60 f i asw_location_grid.obj
 0002:0002bfd0       ??_GCASW_Location_Group@@QAEPAXI@Z 10180fd0 f i asw_location_grid.obj
 0002:0002c040       ?Base@?$CUtlVector@HV?$CUtlMemory@HH@@@@QAEPAHXZ 10181040 f i asw_location_grid.obj
 0002:0002c090       ?ResetDbgInfo@?$CUtlVector@HV?$CUtlMemory@HH@@@@IAEXXZ 10181090 f i asw_location_grid.obj
 0002:0002c0f0       ?Base@?$CUtlVector@PAVCASW_Location@@V?$CUtlMemory@PAVCASW_Location@@H@@@@QAEPAPAVCASW_Location@@XZ 101810f0 f i asw_location_grid.obj
 0002:0002c140       ?ResetDbgInfo@?$CUtlVector@PAVCASW_Location@@V?$CUtlMemory@PAVCASW_Location@@H@@@@IAEXXZ 10181140 f i asw_location_grid.obj
 0002:0002c1a0       ?Base@?$CUtlVector@PAVCASW_Reward@@V?$CUtlMemory@PAVCASW_Reward@@H@@@@QAEPAPAVCASW_Reward@@XZ 101811a0 f i asw_location_grid.obj
 0002:0002c1f0       ?ResetDbgInfo@?$CUtlVector@PAVCASW_Reward@@V?$CUtlMemory@PAVCASW_Reward@@H@@@@IAEXXZ 101811f0 f i asw_location_grid.obj
 0002:0002c250       ?Base@?$CUtlVector@PAVCASW_Location_Group@@V?$CUtlMemory@PAVCASW_Location_Group@@H@@@@QAEPAPAVCASW_Location_Group@@XZ 10181250 f i asw_location_grid.obj
 0002:0002c2a0       ?ResetDbgInfo@?$CUtlVector@PAVCASW_Location_Group@@V?$CUtlMemory@PAVCASW_Location_Group@@H@@@@IAEXXZ 101812a0 f i asw_location_grid.obj
 0002:0002c300       ?ResetDbgInfo@?$CUtlVector@PAVCTilegenEnum@@V?$CUtlMemory@PAVCTilegenEnum@@H@@@@IAEXXZ 10181300 f i asw_location_grid.obj
 0002:0002c360       ?ResetDbgInfo@?$CUtlVector@PAVCTilegenRule@@V?$CUtlMemory@PAVCTilegenRule@@H@@@@IAEXXZ 10181360 f i asw_location_grid.obj
 0002:0002c3c0       ?Base@?$CUtlVector@PAVCTilegenEnum@@V?$CUtlMemory@PAVCTilegenEnum@@H@@@@QAEPAPAVCTilegenEnum@@XZ 101813c0 f i asw_location_grid.obj
 0002:0002c410       ?Base@?$CUtlVector@PAVCTilegenRule@@V?$CUtlMemory@PAVCTilegenRule@@H@@@@QAEPAPAVCTilegenRule@@XZ 10181410 f i asw_location_grid.obj
 0002:0002c460       ?Element@?$CUtlVector@HV?$CUtlMemory@HH@@@@QBEABHH@Z 10181460 f i asw_location_grid.obj
 0002:0002c590       ?InsertBefore@?$CUtlVector@HV?$CUtlMemory@HH@@@@QAEHHABH@Z 10181590 f i asw_location_grid.obj
 0002:0002c810       ?RemoveAll@?$CUtlVector@HV?$CUtlMemory@HH@@@@QAEXXZ 10181810 f i asw_location_grid.obj
 0002:0002c8a0       ??0?$CUtlMemory@HH@@QAE@HH@Z 101818a0 f i asw_location_grid.obj
 0002:0002ca90       ??1?$CUtlMemory@HH@@QAE@XZ 10181a90 f i asw_location_grid.obj
 0002:0002cae0       ??A?$CUtlMemory@HH@@QAEAAHH@Z 10181ae0 f i asw_location_grid.obj
 0002:0002cce0       ?Base@?$CUtlMemory@HH@@QAEPAHXZ 10181ce0 f i asw_location_grid.obj
 0002:0002ce00       ?Purge@?$CUtlMemory@HH@@QAEXXZ 10181e00 f i asw_location_grid.obj
 0002:0002ceb0       ?Element@?$CUtlVector@PAVCASW_Location@@V?$CUtlMemory@PAVCASW_Location@@H@@@@QAEAAPAVCASW_Location@@H@Z 10181eb0 f i asw_location_grid.obj
 0002:0002cfe0       ?InsertBefore@?$CUtlVector@PAVCASW_Location@@V?$CUtlMemory@PAVCASW_Location@@H@@@@QAEHHABQAVCASW_Location@@@Z 10181fe0 f i asw_location_grid.obj
 0002:0002d260       ?Purge@?$CUtlVector@PAVCASW_Location@@V?$CUtlMemory@PAVCASW_Location@@H@@@@QAEXXZ 10182260 f i asw_location_grid.obj
 0002:0002d2d0       ??0?$CUtlMemory@PAVCASW_Location@@H@@QAE@HH@Z 101822d0 f i asw_location_grid.obj
 0002:0002d4c0       ??1?$CUtlMemory@PAVCASW_Location@@H@@QAE@XZ 101824c0 f i asw_location_grid.obj
 0002:0002d510       ??A?$CUtlMemory@PAVCASW_Location@@H@@QAEAAPAVCASW_Location@@H@Z 10182510 f i asw_location_grid.obj
 0002:0002d710       ?Base@?$CUtlMemory@PAVCASW_Location@@H@@QAEPAPAVCASW_Location@@XZ 10182710 f i asw_location_grid.obj
 0002:0002d830       ?Element@?$CUtlVector@PAVCASW_Reward@@V?$CUtlMemory@PAVCASW_Reward@@H@@@@QAEAAPAVCASW_Reward@@H@Z 10182830 f i asw_location_grid.obj
 0002:0002d960       ?InsertBefore@?$CUtlVector@PAVCASW_Reward@@V?$CUtlMemory@PAVCASW_Reward@@H@@@@QAEHHABQAVCASW_Reward@@@Z 10182960 f i asw_location_grid.obj
 0002:0002dbe0       ?Purge@?$CUtlVector@PAVCASW_Reward@@V?$CUtlMemory@PAVCASW_Reward@@H@@@@QAEXXZ 10182be0 f i asw_location_grid.obj
 0002:0002dc50       ??0?$CUtlMemory@PAVCASW_Reward@@H@@QAE@HH@Z 10182c50 f i asw_location_grid.obj
 0002:0002de40       ??1?$CUtlMemory@PAVCASW_Reward@@H@@QAE@XZ 10182e40 f i asw_location_grid.obj
 0002:0002de90       ??A?$CUtlMemory@PAVCASW_Reward@@H@@QAEAAPAVCASW_Reward@@H@Z 10182e90 f i asw_location_grid.obj
 0002:0002e090       ?Base@?$CUtlMemory@PAVCASW_Reward@@H@@QAEPAPAVCASW_Reward@@XZ 10183090 f i asw_location_grid.obj
 0002:0002e1b0       ?Element@?$CUtlVector@PAVCASW_Location_Group@@V?$CUtlMemory@PAVCASW_Location_Group@@H@@@@QAEAAPAVCASW_Location_Group@@H@Z 101831b0 f i asw_location_grid.obj
 0002:0002e2e0       ?InsertBefore@?$CUtlVector@PAVCASW_Location_Group@@V?$CUtlMemory@PAVCASW_Location_Group@@H@@@@QAEHHABQAVCASW_Location_Group@@@Z 101832e0 f i asw_location_grid.obj
 0002:0002e560       ?Purge@?$CUtlVector@PAVCASW_Location_Group@@V?$CUtlMemory@PAVCASW_Location_Group@@H@@@@QAEXXZ 10183560 f i asw_location_grid.obj
 0002:0002e5d0       ?ShiftElementsLeft@?$CUtlVector@PAVCASW_Location_Group@@V?$CUtlMemory@PAVCASW_Location_Group@@H@@@@IAEXHH@Z 101835d0 f i asw_location_grid.obj
 0002:0002e7a0       ??0?$CUtlMemory@PAVCASW_Location_Group@@H@@QAE@HH@Z 101837a0 f i asw_location_grid.obj
 0002:0002e990       ??1?$CUtlMemory@PAVCASW_Location_Group@@H@@QAE@XZ 10183990 f i asw_location_grid.obj
 0002:0002e9e0       ??A?$CUtlMemory@PAVCASW_Location_Group@@H@@QAEAAPAVCASW_Location_Group@@H@Z 101839e0 f i asw_location_grid.obj
 0002:0002ebe0       ?Base@?$CUtlMemory@PAVCASW_Location_Group@@H@@QAEPAPAVCASW_Location_Group@@XZ 10183be0 f i asw_location_grid.obj
 0002:0002ed00       ??$Destruct@PAVCASW_Location_Group@@@@YAXPAPAVCASW_Location_Group@@@Z 10183d00 f i asw_location_grid.obj
 0002:0002ed60       ?Purge@?$CUtlVector@UFileEntry_t@CASW_KeyValuesDatabase@@V?$CUtlMemory@UFileEntry_t@CASW_KeyValuesDatabase@@H@@@@QAEXXZ 10183d60 f i asw_location_grid.obj
 0002:0002edd0       ??1?$CUtlMemory@UFileEntry_t@CASW_KeyValuesDatabase@@H@@QAE@XZ 10183dd0 f i asw_location_grid.obj
 0002:0002ee20       ??0?$CUtlMemory@PAVCTilegenEnum@@H@@QAE@HH@Z 10183e20 f i asw_location_grid.obj
 0002:0002f010       ?Base@?$CUtlMemory@PAVCTilegenEnum@@H@@QAEPAPAVCTilegenEnum@@XZ 10184010 f i asw_location_grid.obj
 0002:0002f130       ??0?$CUtlMemory@PAVCTilegenRule@@H@@QAE@HH@Z 10184130 f i asw_location_grid.obj
 0002:0002f320       ?Base@?$CUtlMemory@PAVCTilegenRule@@H@@QAEPAPAVCTilegenRule@@XZ 10184320 f i asw_location_grid.obj
 0002:0002f440       ?ValidateGrowSize@?$CUtlMemory@HH@@IAEXXZ 10184440 f i asw_location_grid.obj
 0002:0002f480       ?ValidateGrowSize@?$CUtlMemory@PAVCASW_Location@@H@@IAEXXZ 10184480 f i asw_location_grid.obj
 0002:0002f4c0       ?ValidateGrowSize@?$CUtlMemory@PAVCASW_Reward@@H@@IAEXXZ 101844c0 f i asw_location_grid.obj
 0002:0002f500       ?ValidateGrowSize@?$CUtlMemory@PAVCASW_Location_Group@@H@@IAEXXZ 10184500 f i asw_location_grid.obj
 0002:0002f540       ?ValidateGrowSize@?$CUtlMemory@PAVCTilegenEnum@@H@@IAEXXZ 10184540 f i asw_location_grid.obj
 0002:0002f580       ?ValidateGrowSize@?$CUtlMemory@PAVCTilegenRule@@H@@IAEXXZ 10184580 f i asw_location_grid.obj
 0002:0002f5c0       ?Element@?$CUtlVector@HV?$CUtlMemory@HH@@@@QAEAAHH@Z 101845c0 f i asw_location_grid.obj
 0002:0002f6f0       ?IsValidIndex@?$CUtlVector@HV?$CUtlMemory@HH@@@@QBE_NH@Z 101846f0 f i asw_location_grid.obj
 0002:0002f760       ?GrowVector@?$CUtlVector@HV?$CUtlMemory@HH@@@@IAEXH@Z 10184760 f i asw_location_grid.obj
 0002:0002f880       ?ShiftElementsRight@?$CUtlVector@HV?$CUtlMemory@HH@@@@IAEXHH@Z 10184880 f i asw_location_grid.obj
 0002:0002fa20       ??A?$CUtlMemory@HH@@QBEABHH@Z 10184a20 f i asw_location_grid.obj
 0002:0002fb50       ?IsIdxValid@?$CUtlMemory@HH@@QBE_NH@Z 10184b50 f i asw_location_grid.obj
 0002:0002fbd0       ?IsExternallyAllocated@?$CUtlMemory@HH@@QBE_NXZ 10184bd0 f i asw_location_grid.obj
 0002:0002fc20       ?IsReadOnly@?$CUtlMemory@HH@@QBE_NXZ 10184c20 f i asw_location_grid.obj
 0002:0002fc70       ??$CopyConstruct@H@@YAPAHPAHABH@Z 10184c70 f i asw_location_grid.obj
 0002:0002fd10       ??$Destruct@H@@YAXPAH@Z    10184d10 f i asw_location_grid.obj
 0002:0002fd70       ??$MemAllocClassName@V?$CUtlMemory@HH@@@@YAPBDPAV?$CUtlMemory@HH@@@Z 10184d70 f i asw_location_grid.obj
 0002:0002fdf0       ?IsValidIndex@?$CUtlVector@PAVCASW_Location@@V?$CUtlMemory@PAVCASW_Location@@H@@@@QBE_NH@Z 10184df0 f i asw_location_grid.obj
 0002:0002fe60       ?RemoveAll@?$CUtlVector@PAVCASW_Location@@V?$CUtlMemory@PAVCASW_Location@@H@@@@QAEXXZ 10184e60 f i asw_location_grid.obj
 0002:0002fef0       ?GrowVector@?$CUtlVector@PAVCASW_Location@@V?$CUtlMemory@PAVCASW_Location@@H@@@@IAEXH@Z 10184ef0 f i asw_location_grid.obj
 0002:00030010       ?ShiftElementsRight@?$CUtlVector@PAVCASW_Location@@V?$CUtlMemory@PAVCASW_Location@@H@@@@IAEXHH@Z 10185010 f i asw_location_grid.obj
 0002:000301b0       ?IsIdxValid@?$CUtlMemory@PAVCASW_Location@@H@@QBE_NH@Z 101851b0 f i asw_location_grid.obj
 0002:00030230       ?Purge@?$CUtlMemory@PAVCASW_Location@@H@@QAEXXZ 10185230 f i asw_location_grid.obj
 0002:000302e0       ?IsReadOnly@?$CUtlMemory@PAVCASW_Location@@H@@QBE_NXZ 101852e0 f i asw_location_grid.obj
 0002:00030330       ??$CopyConstruct@PAVCASW_Location@@@@YAPAPAVCASW_Location@@PAPAV0@ABQAV0@@Z 10185330 f i asw_location_grid.obj
 0002:000303d0       ??$MemAllocClassName@V?$CUtlMemory@PAVCASW_Location@@H@@@@YAPBDPAV?$CUtlMemory@PAVCASW_Location@@H@@@Z 101853d0 f i asw_location_grid.obj
 0002:00030450       ?IsValidIndex@?$CUtlVector@PAVCASW_Reward@@V?$CUtlMemory@PAVCASW_Reward@@H@@@@QBE_NH@Z 10185450 f i asw_location_grid.obj
 0002:000304c0       ?RemoveAll@?$CUtlVector@PAVCASW_Reward@@V?$CUtlMemory@PAVCASW_Reward@@H@@@@QAEXXZ 101854c0 f i asw_location_grid.obj
 0002:00030550       ?GrowVector@?$CUtlVector@PAVCASW_Reward@@V?$CUtlMemory@PAVCASW_Reward@@H@@@@IAEXH@Z 10185550 f i asw_location_grid.obj
 0002:00030670       ?ShiftElementsRight@?$CUtlVector@PAVCASW_Reward@@V?$CUtlMemory@PAVCASW_Reward@@H@@@@IAEXHH@Z 10185670 f i asw_location_grid.obj
 0002:00030810       ?IsIdxValid@?$CUtlMemory@PAVCASW_Reward@@H@@QBE_NH@Z 10185810 f i asw_location_grid.obj
 0002:00030890       ?Purge@?$CUtlMemory@PAVCASW_Reward@@H@@QAEXXZ 10185890 f i asw_location_grid.obj
 0002:00030940       ?IsReadOnly@?$CUtlMemory@PAVCASW_Reward@@H@@QBE_NXZ 10185940 f i asw_location_grid.obj
 0002:00030990       ??$CopyConstruct@PAVCASW_Reward@@@@YAPAPAVCASW_Reward@@PAPAV0@ABQAV0@@Z 10185990 f i asw_location_grid.obj
 0002:00030a30       ??$MemAllocClassName@V?$CUtlMemory@PAVCASW_Reward@@H@@@@YAPBDPAV?$CUtlMemory@PAVCASW_Reward@@H@@@Z 10185a30 f i asw_location_grid.obj
 0002:00030ab0       ?IsValidIndex@?$CUtlVector@PAVCASW_Location_Group@@V?$CUtlMemory@PAVCASW_Location_Group@@H@@@@QBE_NH@Z 10185ab0 f i asw_location_grid.obj
 0002:00030b20       ?RemoveAll@?$CUtlVector@PAVCASW_Location_Group@@V?$CUtlMemory@PAVCASW_Location_Group@@H@@@@QAEXXZ 10185b20 f i asw_location_grid.obj
 0002:00030bb0       ?GrowVector@?$CUtlVector@PAVCASW_Location_Group@@V?$CUtlMemory@PAVCASW_Location_Group@@H@@@@IAEXH@Z 10185bb0 f i asw_location_grid.obj
 0002:00030cd0       ?ShiftElementsRight@?$CUtlVector@PAVCASW_Location_Group@@V?$CUtlMemory@PAVCASW_Location_Group@@H@@@@IAEXHH@Z 10185cd0 f i asw_location_grid.obj
 0002:00030e70       ?IsIdxValid@?$CUtlMemory@PAVCASW_Location_Group@@H@@QBE_NH@Z 10185e70 f i asw_location_grid.obj
 0002:00030ef0       ?Purge@?$CUtlMemory@PAVCASW_Location_Group@@H@@QAEXXZ 10185ef0 f i asw_location_grid.obj
 0002:00030fa0       ?IsReadOnly@?$CUtlMemory@PAVCASW_Location_Group@@H@@QBE_NXZ 10185fa0 f i asw_location_grid.obj
 0002:00030ff0       ??$CopyConstruct@PAVCASW_Location_Group@@@@YAPAPAVCASW_Location_Group@@PAPAV0@ABQAV0@@Z 10185ff0 f i asw_location_grid.obj
 0002:00031090       ??$MemAllocClassName@V?$CUtlMemory@PAVCASW_Location_Group@@H@@@@YAPBDPAV?$CUtlMemory@PAVCASW_Location_Group@@H@@@Z 10186090 f i asw_location_grid.obj
 0002:00031110       ?Purge@?$CUtlMemory@UFileEntry_t@CASW_KeyValuesDatabase@@H@@QAEXXZ 10186110 f i asw_location_grid.obj
 0002:000311c0       ?IsReadOnly@?$CUtlMemory@PAVCTilegenEnum@@H@@QBE_NXZ 101861c0 f i asw_location_grid.obj
 0002:00031210       ??$MemAllocClassName@V?$CUtlMemory@PAVCTilegenEnum@@H@@@@YAPBDPAV?$CUtlMemory@PAVCTilegenEnum@@H@@@Z 10186210 f i asw_location_grid.obj
 0002:00031290       ?IsReadOnly@?$CUtlMemory@PAVCTilegenRule@@H@@QBE_NXZ 10186290 f i asw_location_grid.obj
 0002:000312e0       ??$MemAllocClassName@V?$CUtlMemory@PAVCTilegenRule@@H@@@@YAPBDPAV?$CUtlMemory@PAVCTilegenRule@@H@@@Z 101862e0 f i asw_location_grid.obj
 0002:00031360       ?NumAllocated@?$CUtlMemory@HH@@QBEHXZ 10186360 f i asw_location_grid.obj
 0002:000313a0       ?Grow@?$CUtlMemory@HH@@QAEXH@Z 101863a0 f i asw_location_grid.obj
 0002:00031a10       ??$MemAllocClassName@V?$CUtlVector@HV?$CUtlMemory@HH@@@@@@YAPBDPAV?$CUtlVector@HV?$CUtlMemory@HH@@@@@Z 10186a10 f i asw_location_grid.obj
 0002:00031a90       ??$Destruct@PAVCASW_Location@@@@YAXPAPAVCASW_Location@@@Z 10186a90 f i asw_location_grid.obj
 0002:00031af0       ?NumAllocated@?$CUtlMemory@PAVCASW_Location@@H@@QBEHXZ 10186af0 f i asw_location_grid.obj
 0002:00031b30       ?Grow@?$CUtlMemory@PAVCASW_Location@@H@@QAEXH@Z 10186b30 f i asw_location_grid.obj
 0002:000321a0       ?IsExternallyAllocated@?$CUtlMemory@PAVCASW_Location@@H@@QBE_NXZ 101871a0 f i asw_location_grid.obj
 0002:000321f0       ??$MemAllocClassName@V?$CUtlVector@PAVCASW_Location@@V?$CUtlMemory@PAVCASW_Location@@H@@@@@@YAPBDPAV?$CUtlVector@PAVCASW_Location@@V?$CUtlMemory@PAVCASW_Location@@H@@@@@Z 101871f0 f i asw_location_grid.obj
 0002:00032270       ??$Destruct@PAVCASW_Reward@@@@YAXPAPAVCASW_Reward@@@Z 10187270 f i asw_location_grid.obj
 0002:000322d0       ?NumAllocated@?$CUtlMemory@PAVCASW_Reward@@H@@QBEHXZ 101872d0 f i asw_location_grid.obj
 0002:00032310       ?Grow@?$CUtlMemory@PAVCASW_Reward@@H@@QAEXH@Z 10187310 f i asw_location_grid.obj
 0002:00032980       ?IsExternallyAllocated@?$CUtlMemory@PAVCASW_Reward@@H@@QBE_NXZ 10187980 f i asw_location_grid.obj
 0002:000329d0       ??$MemAllocClassName@V?$CUtlVector@PAVCASW_Reward@@V?$CUtlMemory@PAVCASW_Reward@@H@@@@@@YAPBDPAV?$CUtlVector@PAVCASW_Reward@@V?$CUtlMemory@PAVCASW_Reward@@H@@@@@Z 101879d0 f i asw_location_grid.obj
 0002:00032a50       ?NumAllocated@?$CUtlMemory@PAVCASW_Location_Group@@H@@QBEHXZ 10187a50 f i asw_location_grid.obj
 0002:00032a90       ?Grow@?$CUtlMemory@PAVCASW_Location_Group@@H@@QAEXH@Z 10187a90 f i asw_location_grid.obj
 0002:00033100       ?IsExternallyAllocated@?$CUtlMemory@PAVCASW_Location_Group@@H@@QBE_NXZ 10188100 f i asw_location_grid.obj
 0002:00033150       ??$MemAllocClassName@V?$CUtlVector@PAVCASW_Location_Group@@V?$CUtlMemory@PAVCASW_Location_Group@@H@@@@@@YAPBDPAV?$CUtlVector@PAVCASW_Location_Group@@V?$CUtlMemory@PAVCASW_Location_Group@@H@@@@@Z 10188150 f i asw_location_grid.obj
 0002:000331d0       ??0CASW_Map_Builder@@QAE@XZ 101881d0 f   asw_map_builder.obj
 0002:000334c0       ?GetProgress@CASW_Map_Builder@@UAEMXZ 101884c0 f i asw_map_builder.obj
 0002:00033500       ?GetStatusMessage@CASW_Map_Builder@@UAEPBDXZ 10188500 f i asw_map_builder.obj
 0002:00033540       ?GetMapName@CASW_Map_Builder@@UAEPBDXZ 10188540 f i asw_map_builder.obj
 0002:00033580       ??0CMapBuilderWorkerThread@@QAE@PAVCASW_Map_Builder@@@Z 10188580 f i asw_map_builder.obj
 0002:00033600       ?Run@CMapBuilderWorkerThread@@UAEHXZ 10188600 f i asw_map_builder.obj
 0002:000336a0       ??_ECMapBuilderWorkerThread@@UAEPAXI@Z 101886a0 f i asw_map_builder.obj
 0002:000336a0       ??_GCMapBuilderWorkerThread@@UAEPAXI@Z 101886a0 f i asw_map_builder.obj
 0002:00033710       ??1CMapBuilderWorkerThread@@UAE@XZ 10188710 f i asw_map_builder.obj
 0002:00033770       ??0IASW_Map_Builder@@QAE@XZ 10188770 f i asw_map_builder.obj
 0002:000337c0       ??1CASW_Map_Builder@@QAE@XZ 101887c0 f   asw_map_builder.obj
 0002:000339e0       ??_GCLayoutSystem@@QAEPAXI@Z 101889e0 f i asw_map_builder.obj
 0002:00033a50       ?Update@CASW_Map_Builder@@UAEXM@Z 10188a50 f   asw_map_builder.obj
 0002:000340f0       ?IsGenerating@CLayoutSystem@@QBE_NXZ 101890f0 f i asw_map_builder.obj
 0002:00034130       ?GenerationErrorOccurred@CLayoutSystem@@QBE_NXZ 10189130 f i asw_map_builder.obj
 0002:00034170       ?IsRandomlyGenerated@CLayoutSystem@@QBE_NXZ 10189170 f i asw_map_builder.obj
 0002:000341c0       ?IsBuildingMission@CASW_Map_Builder@@UAE_NXZ 101891c0 f   asw_map_builder.obj
 0002:00034210       ?Execute@CASW_Map_Builder@@AAEXPBD0@Z 10189210 f   asw_map_builder.obj
 0002:00034690       ?ProcessExecution@CASW_Map_Builder@@AAEXXZ 10189690 f   asw_map_builder.obj
 0002:00034890       ?FinishExecution@CASW_Map_Builder@@AAEXXZ 10189890 f   asw_map_builder.obj
 0002:00034c20       ?UpdateProgress@CASW_Map_Builder@@AAEXXZ 10189c20 f   asw_map_builder.obj
 0002:00034e50       ?ScheduleMapBuild@CASW_Map_Builder@@UAEXPBDM@Z 10189e50 f   asw_map_builder.obj
 0002:00034fc0       ?ScheduleMapGeneration@CASW_Map_Builder@@UAEXPBDMPAVKeyValues@@1@Z 10189fc0 f   asw_map_builder.obj
 0002:00035160       ?BuildMap@CASW_Map_Builder@@AAEXXZ 1018a160 f   asw_map_builder.obj
 0002:00035810       ?UpdateVBSP2Progress@CASW_Map_Builder@@AAEXXZ 1018a810 f   asw_map_builder.obj
 0002:000359c0       ??0?$CInterlockedIntT@H@@QAE@XZ 1018a9c0 f i asw_map_builder.obj
 0002:00035a10       ??B?$CInterlockedIntT@H@@QBEHXZ 1018aa10 f i asw_map_builder.obj
 0002:00035a50       ??4?$CInterlockedIntT@H@@QAEHH@Z 1018aa50 f i asw_map_builder.obj
 0002:00035ac0       ?ThreadInterlockedExchange@@YAHPCHH@Z 1018aac0 f i asw_map_builder.obj
 0002:00035be0       ??0Vector4D@@QAE@MMMM@Z    1018abe0 f i asw_map_builder.obj
 0002:00035d50       ?IsValid@Vector4D@@QBE_NXZ 1018ad50 f i asw_map_builder.obj
 0002:00035e30       ?LocationGrid@@YAPAVCASW_Location_Grid@@XZ 1018ae30 f   asw_mission_chooser.obj
 0002:00035ef0       ?RandomMissions@@YAPAVIASW_Random_Missions@@XZ 1018aef0 f   asw_mission_chooser.obj
 0002:00035f30       ?GetCurrentTimeAndDate@CASW_Mission_Chooser@@UAE_NPAH000000@Z 1018af30 f   asw_mission_chooser.obj
 0002:00035fb0       ?RandomMissions@CASW_Mission_Chooser@@UAEPAVIASW_Random_Missions@@XZ 1018afb0 f   asw_mission_chooser.obj
 0002:00036000       ?LocalMissionSource@CASW_Mission_Chooser@@UAEPAVIASW_Mission_Chooser_Source@@XZ 1018b000 f   asw_mission_chooser.obj
 0002:00036040       ?MissionTextDatabase@CASW_Mission_Chooser@@UAEPAVIASW_Mission_Text_Database@@XZ 1018b040 f   asw_mission_chooser.obj
 0002:00036080       ?LocationGrid@CASW_Mission_Chooser@@UAEPAVIASW_Location_Grid@@XZ 1018b080 f   asw_mission_chooser.obj
 0002:000360d0       ?MapBuilder@CASW_Mission_Chooser@@UAEPAVIASW_Map_Builder@@XZ 1018b0d0 f   asw_mission_chooser.obj
 0002:00036190       ?SpawnSelection@CASW_Mission_Chooser@@UAEPAVIASWSpawnSelection@@XZ 1018b190 f   asw_mission_chooser.obj
 0002:000361d0       ?SpawnSelection@@YAPAVCASW_Spawn_Selection@@XZ 1018b1d0 f   asw_mission_chooser.obj
 0002:00036210       ?Connect@CASW_Mission_Chooser@@UAE_NP6APAXPBDPAH@Z@Z 1018b210 f   asw_mission_chooser.obj
 0002:000363e0       ?Disconnect@CASW_Mission_Chooser@@UAEXXZ 1018b3e0 f   asw_mission_chooser.obj
 0002:00036460       ?Init@CASW_Mission_Chooser@@UAE?AW4InitReturnVal_t@@XZ 1018b460 f   asw_mission_chooser.obj
 0002:000365d0       ?QueryInterface@CASW_Mission_Chooser@@UAEPAXPBD@Z 1018b5d0 f   asw_mission_chooser.obj
 0002:00036640       ?Connect@?$CTier3AppSystem@VIASW_Mission_Chooser@@$0A@@@UAE_NP6APAXPBDPAH@Z@Z 1018b640 f i asw_mission_chooser.obj
 0002:000366c0       ?Disconnect@?$CTier3AppSystem@VIASW_Mission_Chooser@@$0A@@@UAEXXZ 1018b6c0 f i asw_mission_chooser.obj
 0002:00036720       ?Connect@?$CTier2AppSystem@VIASW_Mission_Chooser@@$0A@@@UAE_NP6APAXPBDPAH@Z@Z 1018b720 f i asw_mission_chooser.obj
 0002:000367a0       ?Init@?$CTier2AppSystem@VIASW_Mission_Chooser@@$0A@@@UAE?AW4InitReturnVal_t@@XZ 1018b7a0 f i asw_mission_chooser.obj
 0002:00036810       ?Disconnect@?$CTier2AppSystem@VIASW_Mission_Chooser@@$0A@@@UAEXXZ 1018b810 f i asw_mission_chooser.obj
 0002:00036870       ?Connect@?$CTier1AppSystem@VIASW_Mission_Chooser@@$0A@@@UAE_NP6APAXPBDPAH@Z@Z 1018b870 f i asw_mission_chooser.obj
 0002:000368f0       ?Disconnect@?$CTier1AppSystem@VIASW_Mission_Chooser@@$0A@@@UAEXXZ 1018b8f0 f i asw_mission_chooser.obj
 0002:00036950       ?Init@?$CTier1AppSystem@VIASW_Mission_Chooser@@$0A@@@UAE?AW4InitReturnVal_t@@XZ 1018b950 f i asw_mission_chooser.obj
 0002:000369d0       ?Connect@?$CBaseAppSystem@VIASW_Mission_Chooser@@@@UAE_NP6APAXPBDPAH@Z@Z 1018b9d0 f i asw_mission_chooser.obj
 0002:00036a10       ?Disconnect@?$CBaseAppSystem@VIASW_Mission_Chooser@@@@UAEXXZ 1018ba10 f i asw_mission_chooser.obj
 0002:00036a50       ?Init@?$CBaseAppSystem@VIASW_Mission_Chooser@@@@UAE?AW4InitReturnVal_t@@XZ 1018ba50 f i asw_mission_chooser.obj
 0002:00036a90       ??0CASW_MissionTextDB@@QAE@XZ 1018ba90 f i asw_mission_chooser.obj
 0002:00036b00       ??0IASW_Mission_Text_Database@@QAE@XZ 1018bb00 f i asw_mission_chooser.obj
 0002:00036b50       ??0?$CUtlVector@VCASW_MissionTextSpec@@V?$CUtlMemory@VCASW_MissionTextSpec@@H@@@@QAE@HH@Z 1018bb50 f i asw_mission_chooser.obj
 0002:00036bd0       ?ResetDbgInfo@?$CUtlVector@VCASW_MissionTextSpec@@V?$CUtlMemory@VCASW_MissionTextSpec@@H@@@@IAEXXZ 1018bbd0 f i asw_mission_chooser.obj
 0002:00036c30       ?Base@?$CUtlVector@VCASW_MissionTextSpec@@V?$CUtlMemory@VCASW_MissionTextSpec@@H@@@@QAEPAVCASW_MissionTextSpec@@XZ 1018bc30 f i asw_mission_chooser.obj
 0002:00036c80       ??0?$CUtlMemory@VCASW_MissionTextSpec@@H@@QAE@HH@Z 1018bc80 f i asw_mission_chooser.obj
 0002:00036e70       ?Base@?$CUtlMemory@VCASW_MissionTextSpec@@H@@QAEPAVCASW_MissionTextSpec@@XZ 1018be70 f i asw_mission_chooser.obj
 0002:00036f90       ?ValidateGrowSize@?$CUtlMemory@VCASW_MissionTextSpec@@H@@IAEXXZ 1018bf90 f i asw_mission_chooser.obj
 0002:00036fd0       ?IsReadOnly@?$CUtlMemory@VCASW_MissionTextSpec@@H@@QBE_NXZ 1018bfd0 f i asw_mission_chooser.obj
 0002:00037020       ??$MemAllocClassName@V?$CUtlMemory@VCASW_MissionTextSpec@@H@@@@YAPBDPAV?$CUtlMemory@VCASW_MissionTextSpec@@H@@@Z 1018c020 f i asw_mission_chooser.obj
 0002:000370a0       ??0CASW_Mission_Chooser@@QAE@XZ 1018c0a0 f i asw_mission_chooser.obj
 0002:00037100       ??0?$CTier3AppSystem@VIASW_Mission_Chooser@@$0A@@@QAE@XZ 1018c100 f i asw_mission_chooser.obj
 0002:00037160       ??0?$CTier2AppSystem@VIASW_Mission_Chooser@@$0A@@@QAE@XZ 1018c160 f i asw_mission_chooser.obj
 0002:000371c0       ??0?$CTier1AppSystem@VIASW_Mission_Chooser@@$0A@@@QAE@XZ 1018c1c0 f i asw_mission_chooser.obj
 0002:00037220       ??0?$CTier0AppSystem@VIASW_Mission_Chooser@@@@QAE@XZ 1018c220 f i asw_mission_chooser.obj
 0002:00037280       ??0?$CBaseAppSystem@VIASW_Mission_Chooser@@@@QAE@XZ 1018c280 f i asw_mission_chooser.obj
 0002:000372e0       ??0IASW_Mission_Chooser@@QAE@XZ 1018c2e0 f i asw_mission_chooser.obj
 0002:00037340       ??0IAppSystem@@QAE@XZ      1018c340 f i asw_mission_chooser.obj
 0002:00037390       ?GetTier@?$CTier3AppSystem@VIASW_Mission_Chooser@@$0A@@@UAE?AW4AppSystemTier_t@@XZ 1018c390 f i asw_mission_chooser.obj
 0002:000373d0       ?GetTier@?$CTier2AppSystem@VIASW_Mission_Chooser@@$0A@@@UAE?AW4AppSystemTier_t@@XZ 1018c3d0 f i asw_mission_chooser.obj
 0002:00037410       ?Shutdown@?$CTier2AppSystem@VIASW_Mission_Chooser@@$0A@@@UAEXXZ 1018c410 f i asw_mission_chooser.obj
 0002:00037460       ?Shutdown@?$CTier1AppSystem@VIASW_Mission_Chooser@@$0A@@@UAEXXZ 1018c460 f i asw_mission_chooser.obj
 0002:000374c0       ?GetTier@?$CTier1AppSystem@VIASW_Mission_Chooser@@$0A@@@UAE?AW4AppSystemTier_t@@XZ 1018c4c0 f i asw_mission_chooser.obj
 0002:00037500       ?QueryInterface@?$CBaseAppSystem@VIASW_Mission_Chooser@@@@UAEPAXPBD@Z 1018c500 f i asw_mission_chooser.obj
 0002:00037540       ?Shutdown@?$CBaseAppSystem@VIASW_Mission_Chooser@@@@UAEXXZ 1018c540 f i asw_mission_chooser.obj
 0002:00037580       ?GetDependencies@?$CBaseAppSystem@VIASW_Mission_Chooser@@@@UAEPBUAppSystemInfo_t@@XZ 1018c580 f i asw_mission_chooser.obj
 0002:000375c0       ?GetTier@?$CBaseAppSystem@VIASW_Mission_Chooser@@@@UAE?AW4AppSystemTier_t@@XZ 1018c5c0 f i asw_mission_chooser.obj
 0002:00037600       ?Reconnect@?$CBaseAppSystem@VIASW_Mission_Chooser@@@@UAEXP6APAXPBDPAH@Z0@Z 1018c600 f i asw_mission_chooser.obj
 0002:000376a0       ??1CASW_MissionTextDB@@QAE@XZ 1018c6a0 f i asw_mission_chooser.obj
 0002:00037700       ??1?$CUtlVector@VCASW_MissionTextSpec@@V?$CUtlMemory@VCASW_MissionTextSpec@@H@@@@QAE@XZ 1018c700 f i asw_mission_chooser.obj
 0002:00037760       ?Purge@?$CUtlVector@VCASW_MissionTextSpec@@V?$CUtlMemory@VCASW_MissionTextSpec@@H@@@@QAEXXZ 1018c760 f i asw_mission_chooser.obj
 0002:000377d0       ??1?$CUtlMemory@VCASW_MissionTextSpec@@H@@QAE@XZ 1018c7d0 f i asw_mission_chooser.obj
 0002:00037820       ?RemoveAll@?$CUtlVector@VCASW_MissionTextSpec@@V?$CUtlMemory@VCASW_MissionTextSpec@@H@@@@QAEXXZ 1018c820 f i asw_mission_chooser.obj
 0002:000378b0       ?Purge@?$CUtlMemory@VCASW_MissionTextSpec@@H@@QAEXXZ 1018c8b0 f i asw_mission_chooser.obj
 0002:00037960       ?Element@?$CUtlVector@VCASW_MissionTextSpec@@V?$CUtlMemory@VCASW_MissionTextSpec@@H@@@@QAEAAVCASW_MissionTextSpec@@H@Z 1018c960 f i asw_mission_chooser.obj
 0002:00037a90       ??$Destruct@VCASW_MissionTextSpec@@@@YAXPAVCASW_MissionTextSpec@@@Z 1018ca90 f i asw_mission_chooser.obj
 0002:00037b00       ?IsExternallyAllocated@?$CUtlMemory@VCASW_MissionTextSpec@@H@@QBE_NXZ 1018cb00 f i asw_mission_chooser.obj
 0002:00037b50       ??_GCASW_MissionTextSpec@@QAEPAXI@Z 1018cb50 f i asw_mission_chooser.obj
 0002:00037bc0       ??1CASW_MissionTextSpec@@QAE@XZ 1018cbc0 f i asw_mission_chooser.obj
 0002:00037c20       ??1CUtlString@@QAE@XZ      1018cc20 f i asw_mission_chooser.obj
 0002:00037c70       ??1CUtlBinaryBlock@@QAE@XZ 1018cc70 f i asw_mission_chooser.obj
 0002:00037cc0       ??A?$CUtlMemory@VCASW_MissionTextSpec@@H@@QAEAAVCASW_MissionTextSpec@@H@Z 1018ccc0 f i asw_mission_chooser.obj
 0002:00037ec0       ?IsIdxValid@?$CUtlMemory@VCASW_MissionTextSpec@@H@@QBE_NH@Z 1018cec0 f i asw_mission_chooser.obj
 0002:00037f40       ?nexttoken@?A0xdde6c551@@YAPBDPADPBDD@Z 1018cf40 f   asw_mission_chooser_source_local.obj
 0002:00038000       ??0CASW_Mission_Chooser_Source_Local@@QAE@XZ 1018d000 f   asw_mission_chooser_source_local.obj
 0002:000381b0       ?ResetCurrentPage@CASW_Mission_Chooser_Source_Local@@UAEXXZ 1018d1b0 f i asw_mission_chooser_source_local.obj
 0002:000381f0       ??_GCASW_Mission_Chooser_Source_Local@@UAEPAXI@Z 1018d1f0 f i asw_mission_chooser_source_local.obj
 0002:000381f0       ??_ECASW_Mission_Chooser_Source_Local@@UAEPAXI@Z 1018d1f0 f i asw_mission_chooser_source_local.obj
 0002:00038260       ??0IASW_Mission_Chooser_Source@@QAE@XZ 1018d260 f i asw_mission_chooser_source_local.obj
 0002:000382b0       ??1CASW_Mission_Chooser_Source_Local@@UAE@XZ 1018d2b0 f   asw_mission_chooser_source_local.obj
 0002:00038390       ??1?$CUtlSortVector@UMapListName@@VMapNameLess@CASW_Mission_Chooser_Source_Local@@@@QAE@XZ 1018d390 f i asw_mission_chooser_source_local.obj
 0002:000383e0       ??1?$CUtlSortVector@UASW_Mission_Chooser_Saved_Campaign@@VSavedCampaignLess@CASW_Mission_Chooser_Source_Local@@@@QAE@XZ 1018d3e0 f i asw_mission_chooser_source_local.obj
 0002:00038430       ?OnSaveDeleted@CASW_Mission_Chooser_Source_Local@@UAEXPBD@Z 1018d430 f   asw_mission_chooser_source_local.obj
 0002:00038590       ?OnSaveUpdated@CASW_Mission_Chooser_Source_Local@@UAEXPBD@Z 1018d590 f   asw_mission_chooser_source_local.obj
 0002:00038770       ?RefreshSavedCampaigns@CASW_Mission_Chooser_Source_Local@@UAEXXZ 1018d770 f   asw_mission_chooser_source_local.obj
 0002:000387e0       ?ClearMapList@CASW_Mission_Chooser_Source_Local@@QAEXXZ 1018d7e0 f   asw_mission_chooser_source_local.obj
 0002:00038840       ?AddToMapList@CASW_Mission_Chooser_Source_Local@@QAEXPBD@Z 1018d840 f   asw_mission_chooser_source_local.obj
 0002:00038a50       ?BuildMapList@CASW_Mission_Chooser_Source_Local@@QAEXXZ 1018da50 f   asw_mission_chooser_source_local.obj
 0002:00038b50       ?Think@CASW_Mission_Chooser_Source_Local@@UAEXXZ 1018db50 f   asw_mission_chooser_source_local.obj
 0002:00038d20       ?IdleThink@CASW_Mission_Chooser_Source_Local@@UAEXXZ 1018dd20 f   asw_mission_chooser_source_local.obj
 0002:00038e10       ?FindMissionsInCampaign@CASW_Mission_Chooser_Source_Local@@UAEXHHH@Z 1018de10 f   asw_mission_chooser_source_local.obj
 0002:00039090       ?GetNumMissionsInCampaign@CASW_Mission_Chooser_Source_Local@@UAEHH@Z 1018e090 f   asw_mission_chooser_source_local.obj
 0002:00039260       ?FindMissions@CASW_Mission_Chooser_Source_Local@@UAEXHH_N@Z 1018e260 f   asw_mission_chooser_source_local.obj
 0002:00039410       ?GetMissions@CASW_Mission_Chooser_Source_Local@@UAEPAUASW_Mission_Chooser_Mission@@XZ 1018e410 f   asw_mission_chooser_source_local.obj
 0002:00039450       ?GetMission@CASW_Mission_Chooser_Source_Local@@UAEPAUASW_Mission_Chooser_Mission@@H_N@Z 1018e450 f   asw_mission_chooser_source_local.obj
 0002:000395a0       ?GetNumMissions@CASW_Mission_Chooser_Source_Local@@UAEH_N@Z 1018e5a0 f   asw_mission_chooser_source_local.obj
 0002:00039640       ?ClearCampaignList@CASW_Mission_Chooser_Source_Local@@QAEXXZ 1018e640 f   asw_mission_chooser_source_local.obj
 0002:000396a0       ?AddToCampaignList@CASW_Mission_Chooser_Source_Local@@QAEXPBD@Z 1018e6a0 f   asw_mission_chooser_source_local.obj
 0002:00039760       ?BuildCampaignList@CASW_Mission_Chooser_Source_Local@@QAEXXZ 1018e760 f   asw_mission_chooser_source_local.obj
 0002:00039860       ?FindCampaigns@CASW_Mission_Chooser_Source_Local@@UAEXHH@Z 1018e860 f   asw_mission_chooser_source_local.obj
 0002:000399a0       ?GetCampaigns@CASW_Mission_Chooser_Source_Local@@UAEPAUASW_Mission_Chooser_Mission@@XZ 1018e9a0 f   asw_mission_chooser_source_local.obj
 0002:00039a10       ?GetCampaign@CASW_Mission_Chooser_Source_Local@@UAEPAUASW_Mission_Chooser_Mission@@H@Z 1018ea10 f   asw_mission_chooser_source_local.obj
 0002:00039af0       ?GetNumCampaigns@CASW_Mission_Chooser_Source_Local@@UAEHXZ 1018eaf0 f   asw_mission_chooser_source_local.obj
 0002:00039b70       ?FindSavedCampaigns@CASW_Mission_Chooser_Source_Local@@UAEXHH_NPBD@Z 1018eb70 f   asw_mission_chooser_source_local.obj
 0002:00039f80       ?GetSavedCampaigns@CASW_Mission_Chooser_Source_Local@@UAEPAUASW_Mission_Chooser_Saved_Campaign@@XZ 1018ef80 f   asw_mission_chooser_source_local.obj
 0002:00039ff0       ?GetSavedCampaign@CASW_Mission_Chooser_Source_Local@@UAEPAUASW_Mission_Chooser_Saved_Campaign@@H_NPBD@Z 1018eff0 f   asw_mission_chooser_source_local.obj
 0002:0003a200       ?SavePassesFilter@CASW_Mission_Chooser_Source_Local@@QAE_NPAUASW_Mission_Chooser_Saved_Campaign@@PBD@Z 1018f200 f   asw_mission_chooser_source_local.obj
 0002:0003a350       ?GetNumSavedCampaigns@CASW_Mission_Chooser_Source_Local@@UAEH_NPBD@Z 1018f350 f   asw_mission_chooser_source_local.obj
 0002:0003a440       ?ClearSavedCampaignList@CASW_Mission_Chooser_Source_Local@@QAEXXZ 1018f440 f   asw_mission_chooser_source_local.obj
 0002:0003a4a0       ?AddToSavedCampaignList@CASW_Mission_Chooser_Source_Local@@QAEXPBD@Z 1018f4a0 f   asw_mission_chooser_source_local.obj
 0002:0003ab50       ?BuildSavedCampaignList@CASW_Mission_Chooser_Source_Local@@QAEXXZ 1018fb50 f   asw_mission_chooser_source_local.obj
 0002:0003ac90       ?MissionExists@CASW_Mission_Chooser_Source_Local@@UAE_NPBD_N@Z 1018fc90 f   asw_mission_chooser_source_local.obj
 0002:0003ae30       ?CampaignExists@CASW_Mission_Chooser_Source_Local@@UAE_NPBD@Z 1018fe30 f   asw_mission_chooser_source_local.obj
 0002:0003af60       ?SavedCampaignExists@CASW_Mission_Chooser_Source_Local@@UAE_NPBD@Z 1018ff60 f   asw_mission_chooser_source_local.obj
 0002:0003b080       ?GetNumMissionsCompleted@CASW_Mission_Chooser_Source_Local@@UAEHPBD@Z 10190080 f   asw_mission_chooser_source_local.obj
 0002:0003b4b0       ?GetPrettyMissionName@CASW_Mission_Chooser_Source_Local@@UAEPBDPBD@Z 101904b0 f   asw_mission_chooser_source_local.obj
 0002:0003b6b0       ?GetPrettyCampaignName@CASW_Mission_Chooser_Source_Local@@UAEPBDPBD@Z 101906b0 f   asw_mission_chooser_source_local.obj
 0002:0003b8b0       ?GetPrettySavedCampaignName@CASW_Mission_Chooser_Source_Local@@UAEPBDPBD@Z 101908b0 f   asw_mission_chooser_source_local.obj
 0002:0003bd20       ?NotifyNewSave@CASW_Mission_Chooser_Source_Local@@QAEXPBD@Z 10190d20 f   asw_mission_chooser_source_local.obj
 0002:0003bee0       ?NotifySaveDeleted@CASW_Mission_Chooser_Source_Local@@UAEXPBD@Z 10190ee0 f   asw_mission_chooser_source_local.obj
 0002:0003c090       ?ASW_Campaign_CreateNewSaveGame@CASW_Mission_Chooser_Source_Local@@UAE_NPADHPBD_N1@Z 10191090 f   asw_mission_chooser_source_local.obj
 0002:0003cc70       ?Less@MapNameLess@CASW_Mission_Chooser_Source_Local@@QAE_NABUMapListName@@0PAX@Z 10191c70 f   asw_mission_chooser_source_local.obj
 0002:0003cce0       ?Less@SavedCampaignLess@CASW_Mission_Chooser_Source_Local@@QAE_NABUASW_Mission_Chooser_Saved_Campaign@@0PAX@Z 10191ce0 f   asw_mission_chooser_source_local.obj
 0002:0003cf60       ?GetCampaignSaveIntroMap@CASW_Mission_Chooser_Source_Local@@UAEPBDPBD@Z 10191f60 f   asw_mission_chooser_source_local.obj
 0002:0003d3c0       ?GetMissionDetails@CASW_Mission_Chooser_Source_Local@@UAEPAVKeyValues@@PBD@Z 101923c0 f   asw_mission_chooser_source_local.obj
 0002:0003d740       ?GetCampaignDetails@CASW_Mission_Chooser_Source_Local@@UAEPAVKeyValues@@PBD@Z 10192740 f   asw_mission_chooser_source_local.obj
 0002:0003dac0       ??1?$CUtlVector@UMapListName@@V?$CUtlMemory@UMapListName@@H@@@@QAE@XZ 10192ac0 f i asw_mission_chooser_source_local.obj
 0002:0003db20       ??A?$CUtlVector@UMapListName@@V?$CUtlMemory@UMapListName@@H@@@@QAEAAUMapListName@@H@Z 10192b20 f i asw_mission_chooser_source_local.obj
 0002:0003dc50       ?Count@?$CUtlVector@UMapListName@@V?$CUtlMemory@UMapListName@@H@@@@QBEHXZ 10192c50 f i asw_mission_chooser_source_local.obj
 0002:0003dc90       ?Purge@?$CUtlVector@UMapListName@@V?$CUtlMemory@UMapListName@@H@@@@QAEXXZ 10192c90 f i asw_mission_chooser_source_local.obj
 0002:0003dd00       ??0?$CUtlSortVector@UMapListName@@VMapNameLess@CASW_Mission_Chooser_Source_Local@@@@QAE@HH@Z 10192d00 f i asw_mission_chooser_source_local.obj
 0002:0003dd80       ?Insert@?$CUtlSortVector@UMapListName@@VMapNameLess@CASW_Mission_Chooser_Source_Local@@@@QAEHABUMapListName@@@Z 10192d80 f i asw_mission_chooser_source_local.obj
 0002:0003df00       ??1?$CUtlVector@UASW_Mission_Chooser_Saved_Campaign@@V?$CUtlMemory@UASW_Mission_Chooser_Saved_Campaign@@H@@@@QAE@XZ 10192f00 f i asw_mission_chooser_source_local.obj
 0002:0003df60       ??A?$CUtlVector@UASW_Mission_Chooser_Saved_Campaign@@V?$CUtlMemory@UASW_Mission_Chooser_Saved_Campaign@@H@@@@QAEAAUASW_Mission_Chooser_Saved_Campaign@@H@Z 10192f60 f i asw_mission_chooser_source_local.obj
 0002:0003e090       ?Count@?$CUtlVector@UASW_Mission_Chooser_Saved_Campaign@@V?$CUtlMemory@UASW_Mission_Chooser_Saved_Campaign@@H@@@@QBEHXZ 10193090 f i asw_mission_chooser_source_local.obj
 0002:0003e0d0       ?Purge@?$CUtlVector@UASW_Mission_Chooser_Saved_Campaign@@V?$CUtlMemory@UASW_Mission_Chooser_Saved_Campaign@@H@@@@QAEXXZ 101930d0 f i asw_mission_chooser_source_local.obj
 0002:0003e140       ??0?$CUtlSortVector@UASW_Mission_Chooser_Saved_Campaign@@VSavedCampaignLess@CASW_Mission_Chooser_Source_Local@@@@QAE@HH@Z 10193140 f i asw_mission_chooser_source_local.obj
 0002:0003e1c0       ?Insert@?$CUtlSortVector@UASW_Mission_Chooser_Saved_Campaign@@VSavedCampaignLess@CASW_Mission_Chooser_Source_Local@@@@QAEHABUASW_Mission_Chooser_Saved_Campaign@@@Z 101931c0 f i asw_mission_chooser_source_local.obj
 0002:0003e340       ?Remove@?$CUtlSortVector@UASW_Mission_Chooser_Saved_Campaign@@VSavedCampaignLess@CASW_Mission_Chooser_Source_Local@@@@QAEXH@Z 10193340 f i asw_mission_chooser_source_local.obj
 0002:0003e3a0       ??0?$CUtlVector@PAUMissionDetails_t@@V?$CUtlMemory@PAUMissionDetails_t@@H@@@@QAE@HH@Z 101933a0 f i asw_mission_chooser_source_local.obj
 0002:0003e420       ??1?$CUtlVector@PAUMissionDetails_t@@V?$CUtlMemory@PAUMissionDetails_t@@H@@@@QAE@XZ 10193420 f i asw_mission_chooser_source_local.obj
 0002:0003e480       ??A?$CUtlVector@PAUMissionDetails_t@@V?$CUtlMemory@PAUMissionDetails_t@@H@@@@QAEAAPAUMissionDetails_t@@H@Z 10193480 f i asw_mission_chooser_source_local.obj
 0002:0003e5b0       ?Count@?$CUtlVector@PAUMissionDetails_t@@V?$CUtlMemory@PAUMissionDetails_t@@H@@@@QBEHXZ 101935b0 f i asw_mission_chooser_source_local.obj
 0002:0003e5f0       ?AddToTail@?$CUtlVector@PAUMissionDetails_t@@V?$CUtlMemory@PAUMissionDetails_t@@H@@@@QAEHABQAUMissionDetails_t@@@Z 101935f0 f i asw_mission_chooser_source_local.obj
 0002:0003e760       ?PurgeAndDeleteElements@?$CUtlVector@PAUMissionDetails_t@@V?$CUtlMemory@PAUMissionDetails_t@@H@@@@QAEXXZ 10193760 f i asw_mission_chooser_source_local.obj
 0002:0003e810       ??0?$CUtlVector@PAUCampaignDetails_t@@V?$CUtlMemory@PAUCampaignDetails_t@@H@@@@QAE@HH@Z 10193810 f i asw_mission_chooser_source_local.obj
 0002:0003e890       ??1?$CUtlVector@PAUCampaignDetails_t@@V?$CUtlMemory@PAUCampaignDetails_t@@H@@@@QAE@XZ 10193890 f i asw_mission_chooser_source_local.obj
 0002:0003e8f0       ??A?$CUtlVector@PAUCampaignDetails_t@@V?$CUtlMemory@PAUCampaignDetails_t@@H@@@@QAEAAPAUCampaignDetails_t@@H@Z 101938f0 f i asw_mission_chooser_source_local.obj
 0002:0003ea20       ?Count@?$CUtlVector@PAUCampaignDetails_t@@V?$CUtlMemory@PAUCampaignDetails_t@@H@@@@QBEHXZ 10193a20 f i asw_mission_chooser_source_local.obj
 0002:0003ea60       ?AddToTail@?$CUtlVector@PAUCampaignDetails_t@@V?$CUtlMemory@PAUCampaignDetails_t@@H@@@@QAEHABQAUCampaignDetails_t@@@Z 10193a60 f i asw_mission_chooser_source_local.obj
 0002:0003ebd0       ?PurgeAndDeleteElements@?$CUtlVector@PAUCampaignDetails_t@@V?$CUtlMemory@PAUCampaignDetails_t@@H@@@@QAEXXZ 10193bd0 f i asw_mission_chooser_source_local.obj
 0002:0003ec80       ??0?$CUtlVector@PAVKeyValues@@V?$CUtlMemory@PAVKeyValues@@H@@@@QAE@HH@Z 10193c80 f i asw_mission_chooser_source_local.obj
 0002:0003ed00       ??1?$CUtlVector@PAVKeyValues@@V?$CUtlMemory@PAVKeyValues@@H@@@@QAE@XZ 10193d00 f i asw_mission_chooser_source_local.obj
 0002:0003ed60       ??A?$CUtlVector@PAVKeyValues@@V?$CUtlMemory@PAVKeyValues@@H@@@@QAEAAPAVKeyValues@@H@Z 10193d60 f i asw_mission_chooser_source_local.obj
 0002:0003ee90       ?Count@?$CUtlVector@PAVKeyValues@@V?$CUtlMemory@PAVKeyValues@@H@@@@QBEHXZ 10193e90 f i asw_mission_chooser_source_local.obj
 0002:0003eed0       ?AddToTail@?$CUtlVector@PAVKeyValues@@V?$CUtlMemory@PAVKeyValues@@H@@@@QAEHABQAVKeyValues@@@Z 10193ed0 f i asw_mission_chooser_source_local.obj
 0002:0003f040       ?ResetDbgInfo@?$CUtlVector@UMapListName@@V?$CUtlMemory@UMapListName@@H@@@@IAEXXZ 10194040 f i asw_mission_chooser_source_local.obj
 0002:0003f0a0       ?ResetDbgInfo@?$CUtlVector@UASW_Mission_Chooser_Saved_Campaign@@V?$CUtlMemory@UASW_Mission_Chooser_Saved_Campaign@@H@@@@IAEXXZ 101940a0 f i asw_mission_chooser_source_local.obj
 0002:0003f100       ?Base@?$CUtlVector@PAUMissionDetails_t@@V?$CUtlMemory@PAUMissionDetails_t@@H@@@@QAEPAPAUMissionDetails_t@@XZ 10194100 f i asw_mission_chooser_source_local.obj
 0002:0003f150       ?ResetDbgInfo@?$CUtlVector@PAUMissionDetails_t@@V?$CUtlMemory@PAUMissionDetails_t@@H@@@@IAEXXZ 10194150 f i asw_mission_chooser_source_local.obj
 0002:0003f1b0       ?Base@?$CUtlVector@PAUCampaignDetails_t@@V?$CUtlMemory@PAUCampaignDetails_t@@H@@@@QAEPAPAUCampaignDetails_t@@XZ 101941b0 f i asw_mission_chooser_source_local.obj
 0002:0003f200       ?ResetDbgInfo@?$CUtlVector@PAUCampaignDetails_t@@V?$CUtlMemory@PAUCampaignDetails_t@@H@@@@IAEXXZ 10194200 f i asw_mission_chooser_source_local.obj
 0002:0003f260       ?Base@?$CUtlVector@PAVKeyValues@@V?$CUtlMemory@PAVKeyValues@@H@@@@QAEPAPAVKeyValues@@XZ 10194260 f i asw_mission_chooser_source_local.obj
 0002:0003f2b0       ?ResetDbgInfo@?$CUtlVector@PAVKeyValues@@V?$CUtlMemory@PAVKeyValues@@H@@@@IAEXXZ 101942b0 f i asw_mission_chooser_source_local.obj
 0002:0003f310       ?Base@?$CUtlVector@UMapListName@@V?$CUtlMemory@UMapListName@@H@@@@QAEPAUMapListName@@XZ 10194310 f i asw_mission_chooser_source_local.obj
 0002:0003f360       ?Base@?$CUtlVector@UASW_Mission_Chooser_Saved_Campaign@@V?$CUtlMemory@UASW_Mission_Chooser_Saved_Campaign@@H@@@@QAEPAUASW_Mission_Chooser_Saved_Campaign@@XZ 10194360 f i asw_mission_chooser_source_local.obj
 0002:0003f3b0       ??0?$CUtlVector@UMapListName@@V?$CUtlMemory@UMapListName@@H@@@@QAE@HH@Z 101943b0 f i asw_mission_chooser_source_local.obj
 0002:0003f430       ?Element@?$CUtlVector@UMapListName@@V?$CUtlMemory@UMapListName@@H@@@@QAEAAUMapListName@@H@Z 10194430 f i asw_mission_chooser_source_local.obj
 0002:0003f560       ?RemoveAll@?$CUtlVector@UMapListName@@V?$CUtlMemory@UMapListName@@H@@@@QAEXXZ 10194560 f i asw_mission_chooser_source_local.obj
 0002:0003f5f0       ?GrowVector@?$CUtlVector@UMapListName@@V?$CUtlMemory@UMapListName@@H@@@@IAEXH@Z 101945f0 f i asw_mission_chooser_source_local.obj
 0002:0003f710       ?ShiftElementsRight@?$CUtlVector@UMapListName@@V?$CUtlMemory@UMapListName@@H@@@@IAEXHH@Z 10194710 f i asw_mission_chooser_source_local.obj
 0002:0003f8b0       ??1?$CUtlMemory@UMapListName@@H@@QAE@XZ 101948b0 f i asw_mission_chooser_source_local.obj
 0002:0003f900       ??A?$CUtlMemory@UMapListName@@H@@QAEAAUMapListName@@H@Z 10194900 f i asw_mission_chooser_source_local.obj
 0002:0003fb00       ?Base@?$CUtlMemory@UMapListName@@H@@QAEPAUMapListName@@XZ 10194b00 f i asw_mission_chooser_source_local.obj
 0002:0003fc20       ?Purge@?$CUtlMemory@UMapListName@@H@@QAEXXZ 10194c20 f i asw_mission_chooser_source_local.obj
 0002:0003fcd0       ?FindLessOrEqual@?$CUtlSortVector@UMapListName@@VMapNameLess@CASW_Mission_Chooser_Source_Local@@@@QBEHABUMapListName@@@Z 10194cd0 f i asw_mission_chooser_source_local.obj
 0002:0003fee0       ??$CopyConstruct@UMapListName@@@@YAPAUMapListName@@PAU0@ABU0@@Z 10194ee0 f i asw_mission_chooser_source_local.obj
 0002:0003ff80       ??0?$CUtlVector@UASW_Mission_Chooser_Saved_Campaign@@V?$CUtlMemory@UASW_Mission_Chooser_Saved_Campaign@@H@@@@QAE@HH@Z 10194f80 f i asw_mission_chooser_source_local.obj
 0002:00040000       ?Element@?$CUtlVector@UASW_Mission_Chooser_Saved_Campaign@@V?$CUtlMemory@UASW_Mission_Chooser_Saved_Campaign@@H@@@@QAEAAUASW_Mission_Chooser_Saved_Campaign@@H@Z 10195000 f i asw_mission_chooser_source_local.obj
 0002:00040130       ?Remove@?$CUtlVector@UASW_Mission_Chooser_Saved_Campaign@@V?$CUtlMemory@UASW_Mission_Chooser_Saved_Campaign@@H@@@@QAEXH@Z 10195130 f i asw_mission_chooser_source_local.obj
 0002:000401c0       ?RemoveAll@?$CUtlVector@UASW_Mission_Chooser_Saved_Campaign@@V?$CUtlMemory@UASW_Mission_Chooser_Saved_Campaign@@H@@@@QAEXXZ 101951c0 f i asw_mission_chooser_source_local.obj
 0002:00040250       ?GrowVector@?$CUtlVector@UASW_Mission_Chooser_Saved_Campaign@@V?$CUtlMemory@UASW_Mission_Chooser_Saved_Campaign@@H@@@@IAEXH@Z 10195250 f i asw_mission_chooser_source_local.obj
 0002:00040370       ?ShiftElementsRight@?$CUtlVector@UASW_Mission_Chooser_Saved_Campaign@@V?$CUtlMemory@UASW_Mission_Chooser_Saved_Campaign@@H@@@@IAEXHH@Z 10195370 f i asw_mission_chooser_source_local.obj
 0002:00040510       ??1?$CUtlMemory@UASW_Mission_Chooser_Saved_Campaign@@H@@QAE@XZ 10195510 f i asw_mission_chooser_source_local.obj
 0002:00040560       ??A?$CUtlMemory@UASW_Mission_Chooser_Saved_Campaign@@H@@QAEAAUASW_Mission_Chooser_Saved_Campaign@@H@Z 10195560 f i asw_mission_chooser_source_local.obj
 0002:00040770       ?Base@?$CUtlMemory@UASW_Mission_Chooser_Saved_Campaign@@H@@QAEPAUASW_Mission_Chooser_Saved_Campaign@@XZ 10195770 f i asw_mission_chooser_source_local.obj
 0002:00040890       ?Purge@?$CUtlMemory@UASW_Mission_Chooser_Saved_Campaign@@H@@QAEXXZ 10195890 f i asw_mission_chooser_source_local.obj
 0002:00040940       ?FindLessOrEqual@?$CUtlSortVector@UASW_Mission_Chooser_Saved_Campaign@@VSavedCampaignLess@CASW_Mission_Chooser_Source_Local@@@@QBEHABUASW_Mission_Chooser_Saved_Campaign@@@Z 10195940 f i asw_mission_chooser_source_local.obj
 0002:00040b50       ??$CopyConstruct@UASW_Mission_Chooser_Saved_Campaign@@@@YAPAUASW_Mission_Chooser_Saved_Campaign@@PAU0@ABU0@@Z 10195b50 f i asw_mission_chooser_source_local.obj
 0002:00040bf0       ?Element@?$CUtlVector@PAUMissionDetails_t@@V?$CUtlMemory@PAUMissionDetails_t@@H@@@@QAEAAPAUMissionDetails_t@@H@Z 10195bf0 f i asw_mission_chooser_source_local.obj
 0002:00040d20       ?InsertBefore@?$CUtlVector@PAUMissionDetails_t@@V?$CUtlMemory@PAUMissionDetails_t@@H@@@@QAEHHABQAUMissionDetails_t@@@Z 10195d20 f i asw_mission_chooser_source_local.obj
 0002:00040fa0       ?Purge@?$CUtlVector@PAUMissionDetails_t@@V?$CUtlMemory@PAUMissionDetails_t@@H@@@@QAEXXZ 10195fa0 f i asw_mission_chooser_source_local.obj
 0002:00041010       ??0?$CUtlMemory@PAUMissionDetails_t@@H@@QAE@HH@Z 10196010 f i asw_mission_chooser_source_local.obj
 0002:00041200       ??1?$CUtlMemory@PAUMissionDetails_t@@H@@QAE@XZ 10196200 f i asw_mission_chooser_source_local.obj
 0002:00041250       ??A?$CUtlMemory@PAUMissionDetails_t@@H@@QAEAAPAUMissionDetails_t@@H@Z 10196250 f i asw_mission_chooser_source_local.obj
 0002:00041450       ?Base@?$CUtlMemory@PAUMissionDetails_t@@H@@QAEPAPAUMissionDetails_t@@XZ 10196450 f i asw_mission_chooser_source_local.obj
 0002:00041570       ?Element@?$CUtlVector@PAUCampaignDetails_t@@V?$CUtlMemory@PAUCampaignDetails_t@@H@@@@QAEAAPAUCampaignDetails_t@@H@Z 10196570 f i asw_mission_chooser_source_local.obj
 0002:000416a0       ?InsertBefore@?$CUtlVector@PAUCampaignDetails_t@@V?$CUtlMemory@PAUCampaignDetails_t@@H@@@@QAEHHABQAUCampaignDetails_t@@@Z 101966a0 f i asw_mission_chooser_source_local.obj
 0002:00041920       ?Purge@?$CUtlVector@PAUCampaignDetails_t@@V?$CUtlMemory@PAUCampaignDetails_t@@H@@@@QAEXXZ 10196920 f i asw_mission_chooser_source_local.obj
 0002:00041990       ??0?$CUtlMemory@PAUCampaignDetails_t@@H@@QAE@HH@Z 10196990 f i asw_mission_chooser_source_local.obj
 0002:00041b80       ??1?$CUtlMemory@PAUCampaignDetails_t@@H@@QAE@XZ 10196b80 f i asw_mission_chooser_source_local.obj
 0002:00041bd0       ??A?$CUtlMemory@PAUCampaignDetails_t@@H@@QAEAAPAUCampaignDetails_t@@H@Z 10196bd0 f i asw_mission_chooser_source_local.obj
 0002:00041dd0       ?Base@?$CUtlMemory@PAUCampaignDetails_t@@H@@QAEPAPAUCampaignDetails_t@@XZ 10196dd0 f i asw_mission_chooser_source_local.obj
 0002:00041ef0       ?InsertBefore@?$CUtlVector@PAVKeyValues@@V?$CUtlMemory@PAVKeyValues@@H@@@@QAEHHABQAVKeyValues@@@Z 10196ef0 f i asw_mission_chooser_source_local.obj
 0002:00042170       ?Purge@?$CUtlVector@PAVKeyValues@@V?$CUtlMemory@PAVKeyValues@@H@@@@QAEXXZ 10197170 f i asw_mission_chooser_source_local.obj
 0002:000421e0       ??0?$CUtlMemory@PAVKeyValues@@H@@QAE@HH@Z 101971e0 f i asw_mission_chooser_source_local.obj
 0002:000423d0       ??1?$CUtlMemory@PAVKeyValues@@H@@QAE@XZ 101973d0 f i asw_mission_chooser_source_local.obj
 0002:00042420       ??A?$CUtlMemory@PAVKeyValues@@H@@QAEAAPAVKeyValues@@H@Z 10197420 f i asw_mission_chooser_source_local.obj
 0002:00042620       ?Base@?$CUtlMemory@PAVKeyValues@@H@@QAEPAPAVKeyValues@@XZ 10197620 f i asw_mission_chooser_source_local.obj
 0002:00042740       ?ValidateGrowSize@?$CUtlMemory@PAUMissionDetails_t@@H@@IAEXXZ 10197740 f i asw_mission_chooser_source_local.obj
 0002:00042780       ?ValidateGrowSize@?$CUtlMemory@PAUCampaignDetails_t@@H@@IAEXXZ 10197780 f i asw_mission_chooser_source_local.obj
 0002:000427c0       ?ValidateGrowSize@?$CUtlMemory@PAVKeyValues@@H@@IAEXXZ 101977c0 f i asw_mission_chooser_source_local.obj
 0002:00042800       ?Element@?$CUtlVector@UMapListName@@V?$CUtlMemory@UMapListName@@H@@@@QBEABUMapListName@@H@Z 10197800 f i asw_mission_chooser_source_local.obj
 0002:00042930       ?IsValidIndex@?$CUtlVector@UMapListName@@V?$CUtlMemory@UMapListName@@H@@@@QBE_NH@Z 10197930 f i asw_mission_chooser_source_local.obj
 0002:000429a0       ??0?$CUtlMemory@UMapListName@@H@@QAE@HH@Z 101979a0 f i asw_mission_chooser_source_local.obj
 0002:00042b90       ?IsIdxValid@?$CUtlMemory@UMapListName@@H@@QBE_NH@Z 10197b90 f i asw_mission_chooser_source_local.obj
 0002:00042c10       ?NumAllocated@?$CUtlMemory@UMapListName@@H@@QBEHXZ 10197c10 f i asw_mission_chooser_source_local.obj
 0002:00042c50       ?Grow@?$CUtlMemory@UMapListName@@H@@QAEXH@Z 10197c50 f i asw_mission_chooser_source_local.obj
 0002:000432c0       ?IsExternallyAllocated@?$CUtlMemory@UMapListName@@H@@QBE_NXZ 101982c0 f i asw_mission_chooser_source_local.obj
 0002:00043310       ?IsReadOnly@?$CUtlMemory@UMapListName@@H@@QBE_NXZ 10198310 f i asw_mission_chooser_source_local.obj
 0002:00043360       ??$Destruct@UMapListName@@@@YAXPAUMapListName@@@Z 10198360 f i asw_mission_chooser_source_local.obj
 0002:000433c0       ??$MemAllocClassName@V?$CUtlVector@UMapListName@@V?$CUtlMemory@UMapListName@@H@@@@@@YAPBDPAV?$CUtlVector@UMapListName@@V?$CUtlMemory@UMapListName@@H@@@@@Z 101983c0 f i asw_mission_chooser_source_local.obj
 0002:00043440       ?Element@?$CUtlVector@UASW_Mission_Chooser_Saved_Campaign@@V?$CUtlMemory@UASW_Mission_Chooser_Saved_Campaign@@H@@@@QBEABUASW_Mission_Chooser_Saved_Campaign@@H@Z 10198440 f i asw_mission_chooser_source_local.obj
 0002:00043570       ?IsValidIndex@?$CUtlVector@UASW_Mission_Chooser_Saved_Campaign@@V?$CUtlMemory@UASW_Mission_Chooser_Saved_Campaign@@H@@@@QBE_NH@Z 10198570 f i asw_mission_chooser_source_local.obj
 0002:000435e0       ?ShiftElementsLeft@?$CUtlVector@UASW_Mission_Chooser_Saved_Campaign@@V?$CUtlMemory@UASW_Mission_Chooser_Saved_Campaign@@H@@@@IAEXHH@Z 101985e0 f i asw_mission_chooser_source_local.obj
 0002:000437b0       ??0?$CUtlMemory@UASW_Mission_Chooser_Saved_Campaign@@H@@QAE@HH@Z 101987b0 f i asw_mission_chooser_source_local.obj
 0002:000439b0       ?IsIdxValid@?$CUtlMemory@UASW_Mission_Chooser_Saved_Campaign@@H@@QBE_NH@Z 101989b0 f i asw_mission_chooser_source_local.obj
 0002:00043a30       ?NumAllocated@?$CUtlMemory@UASW_Mission_Chooser_Saved_Campaign@@H@@QBEHXZ 10198a30 f i asw_mission_chooser_source_local.obj
 0002:00043a70       ?Grow@?$CUtlMemory@UASW_Mission_Chooser_Saved_Campaign@@H@@QAEXH@Z 10198a70 f i asw_mission_chooser_source_local.obj
 0002:000440f0       ?IsExternallyAllocated@?$CUtlMemory@UASW_Mission_Chooser_Saved_Campaign@@H@@QBE_NXZ 101990f0 f i asw_mission_chooser_source_local.obj
 0002:00044140       ?IsReadOnly@?$CUtlMemory@UASW_Mission_Chooser_Saved_Campaign@@H@@QBE_NXZ 10199140 f i asw_mission_chooser_source_local.obj
 0002:00044190       ??$Destruct@UASW_Mission_Chooser_Saved_Campaign@@@@YAXPAUASW_Mission_Chooser_Saved_Campaign@@@Z 10199190 f i asw_mission_chooser_source_local.obj
 0002:000441f0       ??$MemAllocClassName@V?$CUtlVector@UASW_Mission_Chooser_Saved_Campaign@@V?$CUtlMemory@UASW_Mission_Chooser_Saved_Campaign@@H@@@@@@YAPBDPAV?$CUtlVector@UASW_Mission_Chooser_Saved_Campaign@@V?$CUtlMemory@UASW_Mission_Chooser_Saved_Campaign@@H@@@@@Z 101991f0 f i asw_mission_chooser_source_local.obj
 0002:00044270       ?IsValidIndex@?$CUtlVector@PAUMissionDetails_t@@V?$CUtlMemory@PAUMissionDetails_t@@H@@@@QBE_NH@Z 10199270 f i asw_mission_chooser_source_local.obj
 0002:000442e0       ?RemoveAll@?$CUtlVector@PAUMissionDetails_t@@V?$CUtlMemory@PAUMissionDetails_t@@H@@@@QAEXXZ 101992e0 f i asw_mission_chooser_source_local.obj
 0002:00044370       ?GrowVector@?$CUtlVector@PAUMissionDetails_t@@V?$CUtlMemory@PAUMissionDetails_t@@H@@@@IAEXH@Z 10199370 f i asw_mission_chooser_source_local.obj
 0002:00044490       ?ShiftElementsRight@?$CUtlVector@PAUMissionDetails_t@@V?$CUtlMemory@PAUMissionDetails_t@@H@@@@IAEXHH@Z 10199490 f i asw_mission_chooser_source_local.obj
 0002:00044630       ?IsIdxValid@?$CUtlMemory@PAUMissionDetails_t@@H@@QBE_NH@Z 10199630 f i asw_mission_chooser_source_local.obj
 0002:000446b0       ?Purge@?$CUtlMemory@PAUMissionDetails_t@@H@@QAEXXZ 101996b0 f i asw_mission_chooser_source_local.obj
 0002:00044760       ?IsReadOnly@?$CUtlMemory@PAUMissionDetails_t@@H@@QBE_NXZ 10199760 f i asw_mission_chooser_source_local.obj
 0002:000447b0       ??$CopyConstruct@PAUMissionDetails_t@@@@YAPAPAUMissionDetails_t@@PAPAU0@ABQAU0@@Z 101997b0 f i asw_mission_chooser_source_local.obj
 0002:00044850       ??$MemAllocClassName@V?$CUtlMemory@PAUMissionDetails_t@@H@@@@YAPBDPAV?$CUtlMemory@PAUMissionDetails_t@@H@@@Z 10199850 f i asw_mission_chooser_source_local.obj
 0002:000448d0       ?IsValidIndex@?$CUtlVector@PAUCampaignDetails_t@@V?$CUtlMemory@PAUCampaignDetails_t@@H@@@@QBE_NH@Z 101998d0 f i asw_mission_chooser_source_local.obj
 0002:00044940       ?RemoveAll@?$CUtlVector@PAUCampaignDetails_t@@V?$CUtlMemory@PAUCampaignDetails_t@@H@@@@QAEXXZ 10199940 f i asw_mission_chooser_source_local.obj
 0002:000449d0       ?GrowVector@?$CUtlVector@PAUCampaignDetails_t@@V?$CUtlMemory@PAUCampaignDetails_t@@H@@@@IAEXH@Z 101999d0 f i asw_mission_chooser_source_local.obj
 0002:00044af0       ?ShiftElementsRight@?$CUtlVector@PAUCampaignDetails_t@@V?$CUtlMemory@PAUCampaignDetails_t@@H@@@@IAEXHH@Z 10199af0 f i asw_mission_chooser_source_local.obj
 0002:00044c90       ?IsIdxValid@?$CUtlMemory@PAUCampaignDetails_t@@H@@QBE_NH@Z 10199c90 f i asw_mission_chooser_source_local.obj
 0002:00044d10       ?Purge@?$CUtlMemory@PAUCampaignDetails_t@@H@@QAEXXZ 10199d10 f i asw_mission_chooser_source_local.obj
 0002:00044dc0       ?IsReadOnly@?$CUtlMemory@PAUCampaignDetails_t@@H@@QBE_NXZ 10199dc0 f i asw_mission_chooser_source_local.obj
 0002:00044e10       ??$CopyConstruct@PAUCampaignDetails_t@@@@YAPAPAUCampaignDetails_t@@PAPAU0@ABQAU0@@Z 10199e10 f i asw_mission_chooser_source_local.obj
 0002:00044eb0       ??$MemAllocClassName@V?$CUtlMemory@PAUCampaignDetails_t@@H@@@@YAPBDPAV?$CUtlMemory@PAUCampaignDetails_t@@H@@@Z 10199eb0 f i asw_mission_chooser_source_local.obj
 0002:00044f30       ?Element@?$CUtlVector@PAVKeyValues@@V?$CUtlMemory@PAVKeyValues@@H@@@@QAEAAPAVKeyValues@@H@Z 10199f30 f i asw_mission_chooser_source_local.obj
 0002:00045060       ?IsValidIndex@?$CUtlVector@PAVKeyValues@@V?$CUtlMemory@PAVKeyValues@@H@@@@QBE_NH@Z 1019a060 f i asw_mission_chooser_source_local.obj
 0002:000450d0       ?RemoveAll@?$CUtlVector@PAVKeyValues@@V?$CUtlMemory@PAVKeyValues@@H@@@@QAEXXZ 1019a0d0 f i asw_mission_chooser_source_local.obj
 0002:00045160       ?GrowVector@?$CUtlVector@PAVKeyValues@@V?$CUtlMemory@PAVKeyValues@@H@@@@IAEXH@Z 1019a160 f i asw_mission_chooser_source_local.obj
 0002:00045280       ?ShiftElementsRight@?$CUtlVector@PAVKeyValues@@V?$CUtlMemory@PAVKeyValues@@H@@@@IAEXHH@Z 1019a280 f i asw_mission_chooser_source_local.obj
 0002:00045420       ??$CopyConstruct@PAVKeyValues@@@@YAPAPAVKeyValues@@PAPAV0@ABQAV0@@Z 1019a420 f i asw_mission_chooser_source_local.obj
 0002:000454c0       ?IsIdxValid@?$CUtlMemory@PAVKeyValues@@H@@QBE_NH@Z 1019a4c0 f i asw_mission_chooser_source_local.obj
 0002:00045540       ?Purge@?$CUtlMemory@PAVKeyValues@@H@@QAEXXZ 1019a540 f i asw_mission_chooser_source_local.obj
 0002:000455f0       ?IsReadOnly@?$CUtlMemory@PAVKeyValues@@H@@QBE_NXZ 1019a5f0 f i asw_mission_chooser_source_local.obj
 0002:00045640       ??$MemAllocClassName@V?$CUtlMemory@PAVKeyValues@@H@@@@YAPBDPAV?$CUtlMemory@PAVKeyValues@@H@@@Z 1019a640 f i asw_mission_chooser_source_local.obj
 0002:000456c0       ?ValidateGrowSize@?$CUtlMemory@UMapListName@@H@@IAEXXZ 1019a6c0 f i asw_mission_chooser_source_local.obj
 0002:00045700       ?ValidateGrowSize@?$CUtlMemory@UASW_Mission_Chooser_Saved_Campaign@@H@@IAEXXZ 1019a700 f i asw_mission_chooser_source_local.obj
 0002:00045740       ??A?$CUtlMemory@UMapListName@@H@@QBEABUMapListName@@H@Z 1019a740 f i asw_mission_chooser_source_local.obj
 0002:00045870       ??$MemAllocClassName@V?$CUtlMemory@UMapListName@@H@@@@YAPBDPAV?$CUtlMemory@UMapListName@@H@@@Z 1019a870 f i asw_mission_chooser_source_local.obj
 0002:000458f0       ??A?$CUtlMemory@UASW_Mission_Chooser_Saved_Campaign@@H@@QBEABUASW_Mission_Chooser_Saved_Campaign@@H@Z 1019a8f0 f i asw_mission_chooser_source_local.obj
 0002:00045a30       ??$MemAllocClassName@V?$CUtlMemory@UASW_Mission_Chooser_Saved_Campaign@@H@@@@YAPBDPAV?$CUtlMemory@UASW_Mission_Chooser_Saved_Campaign@@H@@@Z 1019aa30 f i asw_mission_chooser_source_local.obj
 0002:00045ab0       ??$Destruct@PAUMissionDetails_t@@@@YAXPAPAUMissionDetails_t@@@Z 1019aab0 f i asw_mission_chooser_source_local.obj
 0002:00045b10       ?NumAllocated@?$CUtlMemory@PAUMissionDetails_t@@H@@QBEHXZ 1019ab10 f i asw_mission_chooser_source_local.obj
 0002:00045b50       ?Grow@?$CUtlMemory@PAUMissionDetails_t@@H@@QAEXH@Z 1019ab50 f i asw_mission_chooser_source_local.obj
 0002:000461c0       ?IsExternallyAllocated@?$CUtlMemory@PAUMissionDetails_t@@H@@QBE_NXZ 1019b1c0 f i asw_mission_chooser_source_local.obj
 0002:00046210       ??$MemAllocClassName@V?$CUtlVector@PAUMissionDetails_t@@V?$CUtlMemory@PAUMissionDetails_t@@H@@@@@@YAPBDPAV?$CUtlVector@PAUMissionDetails_t@@V?$CUtlMemory@PAUMissionDetails_t@@H@@@@@Z 1019b210 f i asw_mission_chooser_source_local.obj
 0002:00046290       ??$Destruct@PAUCampaignDetails_t@@@@YAXPAPAUCampaignDetails_t@@@Z 1019b290 f i asw_mission_chooser_source_local.obj
 0002:000462f0       ?NumAllocated@?$CUtlMemory@PAUCampaignDetails_t@@H@@QBEHXZ 1019b2f0 f i asw_mission_chooser_source_local.obj
 0002:00046330       ?Grow@?$CUtlMemory@PAUCampaignDetails_t@@H@@QAEXH@Z 1019b330 f i asw_mission_chooser_source_local.obj
 0002:000469a0       ?IsExternallyAllocated@?$CUtlMemory@PAUCampaignDetails_t@@H@@QBE_NXZ 1019b9a0 f i asw_mission_chooser_source_local.obj
 0002:000469f0       ??$MemAllocClassName@V?$CUtlVector@PAUCampaignDetails_t@@V?$CUtlMemory@PAUCampaignDetails_t@@H@@@@@@YAPBDPAV?$CUtlVector@PAUCampaignDetails_t@@V?$CUtlMemory@PAUCampaignDetails_t@@H@@@@@Z 1019b9f0 f i asw_mission_chooser_source_local.obj
 0002:00046a70       ?NumAllocated@?$CUtlMemory@PAVKeyValues@@H@@QBEHXZ 1019ba70 f i asw_mission_chooser_source_local.obj
 0002:00046ab0       ?Grow@?$CUtlMemory@PAVKeyValues@@H@@QAEXH@Z 1019bab0 f i asw_mission_chooser_source_local.obj
 0002:00047120       ?IsExternallyAllocated@?$CUtlMemory@PAVKeyValues@@H@@QBE_NXZ 1019c120 f i asw_mission_chooser_source_local.obj
 0002:00047170       ??$Destruct@PAVKeyValues@@@@YAXPAPAVKeyValues@@@Z 1019c170 f i asw_mission_chooser_source_local.obj
 0002:000471d0       ??$MemAllocClassName@V?$CUtlVector@PAVKeyValues@@V?$CUtlMemory@PAVKeyValues@@H@@@@@@YAPBDPAV?$CUtlVector@PAVKeyValues@@V?$CUtlMemory@PAVKeyValues@@H@@@@@Z 1019c1d0 f i asw_mission_chooser_source_local.obj
 0002:00047250       ?SymbolForMissionFilename@CASW_MissionTextSpec@@SA?AVCUtlSymbol@@PBD_N@Z 1019c250 f   asw_mission_text_database.obj
 0002:00047390       ??0CUtlSymbol@@QAE@G@Z     1019c390 f i asw_mission_text_database.obj
 0002:000473e0       ??0CUtlSymbol@@QAE@ABV0@@Z 1019c3e0 f i asw_mission_text_database.obj
 0002:00047430       ?SymTab@CASW_MissionTextSpec@@SAAAVCUtlSymbolTable@@XZ 1019c430 f i asw_mission_text_database.obj
 0002:00047470       ?LoadKeyValuesFile@CASW_MissionTextDB@@QAEXPBD@Z 1019c470 f   asw_mission_text_database.obj
 0002:000477f0       ??0AutoDelete@KeyValues@@QAE@PAV1@@Z 1019c7f0 f i asw_mission_text_database.obj
 0002:00047840       ??1AutoDelete@KeyValues@@QAE@XZ 1019c840 f i asw_mission_text_database.obj
 0002:000478a0       ?FindStrSubkey@@YAPBDPIAVKeyValues@@PBD@Z 1019c8a0 f i asw_mission_text_database.obj
 0002:00047930       ?Reset@CASW_MissionTextDB@@QAEXXZ 1019c930 f   asw_mission_text_database.obj
 0002:00047990       ?AddSpec@CASW_MissionTextDB@@IAEXPBD000@Z 1019c990 f   asw_mission_text_database.obj
 0002:00047bf0       ?Init@CASW_MissionTextSpec@@QAEXPBD000ABG@Z 1019cbf0 f i asw_mission_text_database.obj
 0002:00047da0       ??4CUtlSymbol@@QAEAAV0@ABV0@@Z 1019cda0 f i asw_mission_text_database.obj
 0002:00047df0       ?Find@CASW_MissionTextDB@@QAEPBVCASW_MissionTextSpec@@PBD0@Z 1019cdf0 f   asw_mission_text_database.obj
 0002:000480e0       ??8CUtlSymbol@@QBE_NABV0@@Z 1019d0e0 f i asw_mission_text_database.obj
 0002:00048140       ?IsValid@CUtlSymbol@@QBE_NXZ 1019d140 f i asw_mission_text_database.obj
 0002:00048190       ?SymTab@CASW_MissionTextDB@@SAAAVCUtlSymbolTable@@XZ 1019d190 f i asw_mission_text_database.obj
 0002:000481d0       ?Count@CASW_MissionTextDB@@QAEHXZ 1019d1d0 f i asw_mission_text_database.obj
 0002:00048280       ?GetSpecById@CASW_MissionTextDB@@QAEPAVCASW_MissionTextSpec@@G@Z 1019d280 f   asw_mission_text_database.obj
 0002:00048470       ??0CDbgFmtMsg@@QAA@PBDZZ   1019d470 f i asw_mission_text_database.obj
 0002:000484f0       ??BCDbgFmtMsg@@QBEPBDXZ    1019d4f0 f i asw_mission_text_database.obj
 0002:00048530       ?GetShortDescriptionByID@CASW_MissionTextDB@@UAEPBDI@Z 1019d530 f   asw_mission_text_database.obj
 0002:000485c0       ?GetShortDescription@CASW_MissionTextSpec@@QBEPBDXZ 1019d5c0 f i asw_mission_text_database.obj
 0002:00048620       ?String@CUtlString@@QBEPBDXZ 1019d620 f i asw_mission_text_database.obj
 0002:00048670       ?GetLongDescriptionByID@CASW_MissionTextDB@@UAEPBDI@Z 1019d670 f   asw_mission_text_database.obj
 0002:00048700       ?GetLongDescription@CASW_MissionTextSpec@@QBEPBDXZ 1019d700 f i asw_mission_text_database.obj
 0002:00048760       ?FindMissionTextID@CASW_MissionTextDB@@UAEGPBD0@Z 1019d760 f   asw_mission_text_database.obj
 0002:000487f0       ??A?$CUtlVector@VCASW_MissionTextSpec@@V?$CUtlMemory@VCASW_MissionTextSpec@@H@@@@QAEAAVCASW_MissionTextSpec@@H@Z 1019d7f0 f i asw_mission_text_database.obj
 0002:00048920       ?Count@?$CUtlVector@VCASW_MissionTextSpec@@V?$CUtlMemory@VCASW_MissionTextSpec@@H@@@@QBEHXZ 1019d920 f i asw_mission_text_database.obj
 0002:00048960       ?AddToTail@?$CUtlVector@VCASW_MissionTextSpec@@V?$CUtlMemory@VCASW_MissionTextSpec@@H@@@@QAEHXZ 1019d960 f i asw_mission_text_database.obj
 0002:000489c0       ??0?$CUtlVector@UMatchTuple@?3??Find@CASW_MissionTextDB@@QAEPBVCASW_MissionTextSpec@@PBD0@Z@V?$CUtlMemory@UMatchTuple@?3??Find@CASW_MissionTextDB@@QAEPBVCASW_MissionTextSpec@@PBD0@Z@H@@@@QAE@HH@Z 1019d9c0 f i asw_mission_text_database.obj
 0002:00048a40       ??1?$CUtlVector@UMatchTuple@?3??Find@CASW_MissionTextDB@@QAEPBVCASW_MissionTextSpec@@PBD0@Z@V?$CUtlMemory@UMatchTuple@?3??Find@CASW_MissionTextDB@@QAEPBVCASW_MissionTextSpec@@PBD0@Z@H@@@@QAE@XZ 1019da40 f i asw_mission_text_database.obj
 0002:00048aa0       ??A?$CUtlVector@UMatchTuple@?3??Find@CASW_MissionTextDB@@QAEPBVCASW_MissionTextSpec@@PBD0@Z@V?$CUtlMemory@UMatchTuple@?3??Find@CASW_MissionTextDB@@QAEPBVCASW_MissionTextSpec@@PBD0@Z@H@@@@QAEAAUMatchTuple@?3??Find@CASW_MissionTextDB@@QAEPBVCASW_MissionTextSpec@@PBD0@Z@H@Z 1019daa0 f i asw_mission_text_database.obj
 0002:00048bd0       ?Count@?$CUtlVector@UMatchTuple@?3??Find@CASW_MissionTextDB@@QAEPBVCASW_MissionTextSpec@@PBD0@Z@V?$CUtlMemory@UMatchTuple@?3??Find@CASW_MissionTextDB@@QAEPBVCASW_MissionTextSpec@@PBD0@Z@H@@@@QBEHXZ 1019dbd0 f i asw_mission_text_database.obj
 0002:00048c10       ?AddToTail@?$CUtlVector@UMatchTuple@?3??Find@CASW_MissionTextDB@@QAEPBVCASW_MissionTextSpec@@PBD0@Z@V?$CUtlMemory@UMatchTuple@?3??Find@CASW_MissionTextDB@@QAEPBVCASW_MissionTextSpec@@PBD0@Z@H@@@@QAEHABUMatchTuple@?3??Find@CASW_MissionTextDB@@QAEPBVCASW_MissionTextSpec@@PBD0@Z@@Z 1019dc10 f i asw_mission_text_database.obj
 0002:00048d80       ?Base@?$CUtlVector@UMatchTuple@?3??Find@CASW_MissionTextDB@@QAEPBVCASW_MissionTextSpec@@PBD0@Z@V?$CUtlMemory@UMatchTuple@?3??Find@CASW_MissionTextDB@@QAEPBVCASW_MissionTextSpec@@PBD0@Z@H@@@@QAEPAUMatchTuple@?3??Find@CASW_MissionTextDB@@QAEPBVCASW_MissionTextSpec@@PBD0@Z@XZ 1019dd80 f i asw_mission_text_database.obj
 0002:00048dd0       ?ResetDbgInfo@?$CUtlVector@UMatchTuple@?3??Find@CASW_MissionTextDB@@QAEPBVCASW_MissionTextSpec@@PBD0@Z@V?$CUtlMemory@UMatchTuple@?3??Find@CASW_MissionTextDB@@QAEPBVCASW_MissionTextSpec@@PBD0@Z@H@@@@IAEXXZ 1019ddd0 f i asw_mission_text_database.obj
 0002:00048e30       ?InsertBefore@?$CUtlVector@VCASW_MissionTextSpec@@V?$CUtlMemory@VCASW_MissionTextSpec@@H@@@@QAEHH@Z 1019de30 f i asw_mission_text_database.obj
 0002:00048fa0       ?InsertBefore@?$CUtlVector@UMatchTuple@?3??Find@CASW_MissionTextDB@@QAEPBVCASW_MissionTextSpec@@PBD0@Z@V?$CUtlMemory@UMatchTuple@?3??Find@CASW_MissionTextDB@@QAEPBVCASW_MissionTextSpec@@PBD0@Z@H@@@@QAEHHABUMatchTuple@?3??Find@CASW_MissionTextDB@@QAEPBVCASW_MissionTextSpec@@PBD0@Z@@Z 1019dfa0 f i asw_mission_text_database.obj
 0002:00049220       ?Purge@?$CUtlVector@UMatchTuple@?3??Find@CASW_MissionTextDB@@QAEPBVCASW_MissionTextSpec@@PBD0@Z@V?$CUtlMemory@UMatchTuple@?3??Find@CASW_MissionTextDB@@QAEPBVCASW_MissionTextSpec@@PBD0@Z@H@@@@QAEXXZ 1019e220 f i asw_mission_text_database.obj
 0002:00049290       ??0?$CUtlMemory@UMatchTuple@?3??Find@CASW_MissionTextDB@@QAEPBVCASW_MissionTextSpec@@PBD0@Z@H@@QAE@HH@Z 1019e290 f i asw_mission_text_database.obj
 0002:00049480       ??1?$CUtlMemory@UMatchTuple@?3??Find@CASW_MissionTextDB@@QAEPBVCASW_MissionTextSpec@@PBD0@Z@H@@QAE@XZ 1019e480 f i asw_mission_text_database.obj
 0002:000494d0       ??A?$CUtlMemory@UMatchTuple@?3??Find@CASW_MissionTextDB@@QAEPBVCASW_MissionTextSpec@@PBD0@Z@H@@QAEAAUMatchTuple@?3??Find@CASW_MissionTextDB@@QAEPBVCASW_MissionTextSpec@@PBD0@Z@H@Z 1019e4d0 f i asw_mission_text_database.obj
 0002:000496d0       ?Base@?$CUtlMemory@UMatchTuple@?3??Find@CASW_MissionTextDB@@QAEPBVCASW_MissionTextSpec@@PBD0@Z@H@@QAEPAUMatchTuple@?3??Find@CASW_MissionTextDB@@QAEPBVCASW_MissionTextSpec@@PBD0@Z@XZ 1019e6d0 f i asw_mission_text_database.obj
 0002:000497f0       ?ValidateGrowSize@?$CUtlMemory@UMatchTuple@?3??Find@CASW_MissionTextDB@@QAEPBVCASW_MissionTextSpec@@PBD0@Z@H@@IAEXXZ 1019e7f0 f i asw_mission_text_database.obj
 0002:00049830       ?IsValidIndex@?$CUtlVector@VCASW_MissionTextSpec@@V?$CUtlMemory@VCASW_MissionTextSpec@@H@@@@QBE_NH@Z 1019e830 f i asw_mission_text_database.obj
 0002:000498a0       ?GrowVector@?$CUtlVector@VCASW_MissionTextSpec@@V?$CUtlMemory@VCASW_MissionTextSpec@@H@@@@IAEXH@Z 1019e8a0 f i asw_mission_text_database.obj
 0002:000499c0       ?ShiftElementsRight@?$CUtlVector@VCASW_MissionTextSpec@@V?$CUtlMemory@VCASW_MissionTextSpec@@H@@@@IAEXHH@Z 1019e9c0 f i asw_mission_text_database.obj
 0002:00049b60       ??$Construct@VCASW_MissionTextSpec@@@@YAPAVCASW_MissionTextSpec@@PAV0@@Z 1019eb60 f i asw_mission_text_database.obj
 0002:00049bf0       ??0CASW_MissionTextSpec@@QAE@XZ 1019ebf0 f i asw_mission_text_database.obj
 0002:00049c70       ??0CUtlSymbol@@QAE@XZ      1019ec70 f i asw_mission_text_database.obj
 0002:00049cc0       ?Element@?$CUtlVector@UMatchTuple@?3??Find@CASW_MissionTextDB@@QAEPBVCASW_MissionTextSpec@@PBD0@Z@V?$CUtlMemory@UMatchTuple@?3??Find@CASW_MissionTextDB@@QAEPBVCASW_MissionTextSpec@@PBD0@Z@H@@@@QAEAAUMatchTuple@?3??Find@CASW_MissionTextDB@@QAEPBVCASW_MissionTextSpec@@PBD0@Z@H@Z 1019ecc0 f i asw_mission_text_database.obj
 0002:00049df0       ?IsValidIndex@?$CUtlVector@UMatchTuple@?3??Find@CASW_MissionTextDB@@QAEPBVCASW_MissionTextSpec@@PBD0@Z@V?$CUtlMemory@UMatchTuple@?3??Find@CASW_MissionTextDB@@QAEPBVCASW_MissionTextSpec@@PBD0@Z@H@@@@QBE_NH@Z 1019edf0 f i asw_mission_text_database.obj
 0002:00049e60       ?RemoveAll@?$CUtlVector@UMatchTuple@?3??Find@CASW_MissionTextDB@@QAEPBVCASW_MissionTextSpec@@PBD0@Z@V?$CUtlMemory@UMatchTuple@?3??Find@CASW_MissionTextDB@@QAEPBVCASW_MissionTextSpec@@PBD0@Z@H@@@@QAEXXZ 1019ee60 f i asw_mission_text_database.obj
 0002:00049ef0       ?GrowVector@?$CUtlVector@UMatchTuple@?3??Find@CASW_MissionTextDB@@QAEPBVCASW_MissionTextSpec@@PBD0@Z@V?$CUtlMemory@UMatchTuple@?3??Find@CASW_MissionTextDB@@QAEPBVCASW_MissionTextSpec@@PBD0@Z@H@@@@IAEXH@Z 1019eef0 f i asw_mission_text_database.obj
 0002:0004a010       ?ShiftElementsRight@?$CUtlVector@UMatchTuple@?3??Find@CASW_MissionTextDB@@QAEPBVCASW_MissionTextSpec@@PBD0@Z@V?$CUtlMemory@UMatchTuple@?3??Find@CASW_MissionTextDB@@QAEPBVCASW_MissionTextSpec@@PBD0@Z@H@@@@IAEXHH@Z 1019f010 f i asw_mission_text_database.obj
 0002:0004a1b0       ??$CopyConstruct@UMatchTuple@?3??Find@CASW_MissionTextDB@@QAEPBVCASW_MissionTextSpec@@PBD0@Z@@@YAPAUMatchTuple@?3??Find@CASW_MissionTextDB@@QAEPBVCASW_MissionTextSpec@@PBD0@Z@PAU0?3??12@QAEPBV3@00@Z@ABU0?3??12@QAEPBV3@00@Z@@Z 1019f1b0 f i asw_mission_text_database.obj
 0002:0004a250       ?IsIdxValid@?$CUtlMemory@UMatchTuple@?3??Find@CASW_MissionTextDB@@QAEPBVCASW_MissionTextSpec@@PBD0@Z@H@@QBE_NH@Z 1019f250 f i asw_mission_text_database.obj
 0002:0004a2d0       ?Purge@?$CUtlMemory@UMatchTuple@?3??Find@CASW_MissionTextDB@@QAEPBVCASW_MissionTextSpec@@PBD0@Z@H@@QAEXXZ 1019f2d0 f i asw_mission_text_database.obj
 0002:0004a380       ?IsReadOnly@?$CUtlMemory@UMatchTuple@?3??Find@CASW_MissionTextDB@@QAEPBVCASW_MissionTextSpec@@PBD0@Z@H@@QBE_NXZ 1019f380 f i asw_mission_text_database.obj
 0002:0004a3d0       ??$MemAllocClassName@V?$CUtlMemory@UMatchTuple@?3??Find@CASW_MissionTextDB@@QAEPBVCASW_MissionTextSpec@@PBD0@Z@H@@@@YAPBDPAV?$CUtlMemory@UMatchTuple@?3??Find@CASW_MissionTextDB@@QAEPBVCASW_MissionTextSpec@@PBD0@Z@H@@@Z 1019f3d0 f i asw_mission_text_database.obj
 0002:0004a450       ?NumAllocated@?$CUtlMemory@VCASW_MissionTextSpec@@H@@QBEHXZ 1019f450 f i asw_mission_text_database.obj
 0002:0004a490       ?Grow@?$CUtlMemory@VCASW_MissionTextSpec@@H@@QAEXH@Z 1019f490 f i asw_mission_text_database.obj
 0002:0004ab00       ??$MemAllocClassName@V?$CUtlVector@VCASW_MissionTextSpec@@V?$CUtlMemory@VCASW_MissionTextSpec@@H@@@@@@YAPBDPAV?$CUtlVector@VCASW_MissionTextSpec@@V?$CUtlMemory@VCASW_MissionTextSpec@@H@@@@@Z 1019fb00 f i asw_mission_text_database.obj
 0002:0004ab80       ?NumAllocated@?$CUtlMemory@UMatchTuple@?3??Find@CASW_MissionTextDB@@QAEPBVCASW_MissionTextSpec@@PBD0@Z@H@@QBEHXZ 1019fb80 f i asw_mission_text_database.obj
 0002:0004abc0       ?Grow@?$CUtlMemory@UMatchTuple@?3??Find@CASW_MissionTextDB@@QAEPBVCASW_MissionTextSpec@@PBD0@Z@H@@QAEXH@Z 1019fbc0 f i asw_mission_text_database.obj
 0002:0004b230       ?IsExternallyAllocated@?$CUtlMemory@UMatchTuple@?3??Find@CASW_MissionTextDB@@QAEPBVCASW_MissionTextSpec@@PBD0@Z@H@@QBE_NXZ 101a0230 f i asw_mission_text_database.obj
 0002:0004b280       ??$Destruct@UMatchTuple@?3??Find@CASW_MissionTextDB@@QAEPBVCASW_MissionTextSpec@@PBD0@Z@@@YAXPAUMatchTuple@?3??Find@CASW_MissionTextDB@@QAEPBVCASW_MissionTextSpec@@PBD0@Z@@Z 101a0280 f i asw_mission_text_database.obj
 0002:0004b2e0       ??$MemAllocClassName@V?$CUtlVector@UMatchTuple@?3??Find@CASW_MissionTextDB@@QAEPBVCASW_MissionTextSpec@@PBD0@Z@V?$CUtlMemory@UMatchTuple@?3??Find@CASW_MissionTextDB@@QAEPBVCASW_MissionTextSpec@@PBD0@Z@H@@@@@@YAPBDPAV?$CUtlVector@UMatchTuple@?3??Find@CASW_MissionTextDB@@QAEPBVCASW_MissionTextSpec@@PBD0@Z@V?$CUtlMemory@UMatchTuple@?3??Find@CASW_MissionTextDB@@QAEPBVCASW_MissionTextSpec@@PBD0@Z@H@@@@@Z 101a02e0 f i asw_mission_text_database.obj
 0002:0004b360       ?InitFixedSpawns@CASWMissionChooserNPCs@@SAXPAVCLayoutSystem@@PAVCMapLayout@@@Z 101a0360 f   asw_npcs.obj
 0002:0004bf20       ??0Vector@@QAE@XZ          101a0f20 f i asw_npcs.obj
 0002:0004bf60       ??HVector@@QBE?AV0@ABV0@@Z 101a0f60 f i asw_npcs.obj
 0002:0004c020       ?VectorAdd@@YAXABVVector@@0AAV1@@Z 101a1020 f i asw_npcs.obj
 0002:0004c0b0       ??GVector@@QBE?AV0@ABV0@@Z 101a10b0 f i asw_npcs.obj
 0002:0004c170       ?VectorSubtract@@YAXABVVector@@0AAV1@@Z 101a1170 f i asw_npcs.obj
 0002:0004c200       ??DVector@@QBE?AV0@M@Z     101a1200 f i asw_npcs.obj
 0002:0004c2d0       ?VectorMultiply@@YAXABVVector@@MAAV1@@Z 101a12d0 f i asw_npcs.obj
 0002:0004c450       ??D@YA?AVVector@@MABV0@@Z  101a1450 f i asw_npcs.obj
 0002:0004c4b0       ?GetFloat@ConVar@@QBEMXZ   101a14b0 f i asw_npcs.obj
 0002:0004c4f0       ?GetTilesX@CRoomTemplate@@QBEHXZ 101a14f0 f i asw_npcs.obj
 0002:0004c530       ?GetTilesY@CRoomTemplate@@QBEHXZ 101a1530 f i asw_npcs.obj
 0002:0004c570       ?GetGenerationOptions@CMapLayout@@QAEPAVKeyValues@@XZ 101a1570 f i asw_npcs.obj
 0002:0004c5b0       ?GetMinEncounters@CASW_Spawn_Set@@QAEHXZ 101a15b0 f i asw_npcs.obj
 0002:0004c5f0       ?GetMaxEncounters@CASW_Spawn_Set@@QAEHXZ 101a15f0 f i asw_npcs.obj
 0002:0004c630       ?GetMinSpawnsPerEncounter@CASW_Spawn_Set@@QAEHXZ 101a1630 f i asw_npcs.obj
 0002:0004c670       ?GetMaxSpawnsPerEncounter@CASW_Spawn_Set@@QAEHXZ 101a1670 f i asw_npcs.obj
 0002:0004c6b0       ?GetRandomInt@CLayoutSystem@@QAEHHH@Z 101a16b0 f i asw_npcs.obj
 0002:0004c720       ?GetRandomFloat@CLayoutSystem@@QAEMMM@Z 101a1720 f i asw_npcs.obj
 0002:0004c7a0       ??0CASW_Encounter@@QAE@XZ  101a17a0 f i asw_npcs.obj
 0002:0004c820       ?GetEncounterPosition@CASW_Encounter@@UAEABVVector@@XZ 101a1820 f i asw_npcs.obj
 0002:0004c860       ?GetNumSpawnDefs@CASW_Encounter@@UAEHXZ 101a1860 f i asw_npcs.obj
 0002:0004c8c0       ?GetSpawnDef@CASW_Encounter@@UAEPAVIASWSpawnDefinition@@H@Z 101a18c0 f i asw_npcs.obj
 0002:0004c960       ?GetEncounterRadius@CASW_Encounter@@UAEMXZ 101a1960 f i asw_npcs.obj
 0002:0004c9a0       ?SetEncounterPosition@CASW_Encounter@@UAEXABVVector@@@Z 101a19a0 f i asw_npcs.obj
 0002:0004ca00       ??4Vector@@QAEAAV0@ABV0@@Z 101a1a00 f i asw_npcs.obj
 0002:0004ca70       ?SetEncounterRadius@CASW_Encounter@@UAEXM@Z 101a1a70 f i asw_npcs.obj
 0002:0004cac0       ??0IASW_Encounter@@QAE@XZ  101a1ac0 f i asw_npcs.obj
 0002:0004cb10       ?PushEncountersApart@CASWMissionChooserNPCs@@SAXPAVCMapLayout@@@Z 101a1b10 f   asw_npcs.obj
 0002:0004d470       ??YVector@@QAEAAV0@ABV0@@Z 101a2470 f i asw_npcs.obj
 0002:0004d510       ?DistTo@Vector@@QBEMABV1@@Z 101a2510 f i asw_npcs.obj
 0002:0004d5c0       ?Length@Vector@@QBEMXZ     101a25c0 f i asw_npcs.obj
 0002:0004d620       ?VectorLength@@YAMABVVector@@@Z 101a2620 f i asw_npcs.obj
 0002:0004d6c0       ?FastSqrt@@YAMM@Z          101a26c0 f i asw_npcs.obj
 0002:0004d740       ?NormalizeInPlace@Vector@@QAEMXZ 101a2740 f i asw_npcs.obj
 0002:0004d7a0       ??0?$CUtlVector@PAVCASW_Spawn_Definition@@V?$CUtlMemory@PAVCASW_Spawn_Definition@@H@@@@QAE@HH@Z 101a27a0 f i asw_npcs.obj
 0002:0004d820       ??A?$CUtlVector@PAVCASW_Spawn_Definition@@V?$CUtlMemory@PAVCASW_Spawn_Definition@@H@@@@QAEAAPAVCASW_Spawn_Definition@@H@Z 101a2820 f i asw_npcs.obj
 0002:0004d950       ?Count@?$CUtlVector@PAVCASW_Spawn_Definition@@V?$CUtlMemory@PAVCASW_Spawn_Definition@@H@@@@QBEHXZ 101a2950 f i asw_npcs.obj
 0002:0004d990       ??0?$CUtlVector@PAVCRoom@@V?$CUtlMemory@PAVCRoom@@H@@@@QAE@HH@Z 101a2990 f i asw_npcs.obj
 0002:0004da10       ??1?$CUtlVector@PAVCRoom@@V?$CUtlMemory@PAVCRoom@@H@@@@QAE@XZ 101a2a10 f i asw_npcs.obj
 0002:0004da70       ??A?$CUtlVector@PAVCRoom@@V?$CUtlMemory@PAVCRoom@@H@@@@QAEAAPAVCRoom@@H@Z 101a2a70 f i asw_npcs.obj
 0002:0004dba0       ?Count@?$CUtlVector@PAVCRoom@@V?$CUtlMemory@PAVCRoom@@H@@@@QBEHXZ 101a2ba0 f i asw_npcs.obj
 0002:0004dbe0       ?AddToTail@?$CUtlVector@PAVCRoom@@V?$CUtlMemory@PAVCRoom@@H@@@@QAEHABQAVCRoom@@@Z 101a2be0 f i asw_npcs.obj
 0002:0004dd50       ??A?$CUtlVector@PAVCASW_Encounter@@V?$CUtlMemory@PAVCASW_Encounter@@H@@@@QAEAAPAVCASW_Encounter@@H@Z 101a2d50 f i asw_npcs.obj
 0002:0004de80       ?Count@?$CUtlVector@PAVCASW_Encounter@@V?$CUtlMemory@PAVCASW_Encounter@@H@@@@QBEHXZ 101a2e80 f i asw_npcs.obj
 0002:0004dec0       ?AddToTail@?$CUtlVector@PAVCASW_Encounter@@V?$CUtlMemory@PAVCASW_Encounter@@H@@@@QAEHABQAVCASW_Encounter@@@Z 101a2ec0 f i asw_npcs.obj
 0002:0004e030       ?ResetDbgInfo@?$CUtlVector@PAVCASW_Spawn_Definition@@V?$CUtlMemory@PAVCASW_Spawn_Definition@@H@@@@IAEXXZ 101a3030 f i asw_npcs.obj
 0002:0004e090       ?Base@?$CUtlVector@PAVCRoom@@V?$CUtlMemory@PAVCRoom@@H@@@@QAEPAPAVCRoom@@XZ 101a3090 f i asw_npcs.obj
 0002:0004e0e0       ?ResetDbgInfo@?$CUtlVector@PAVCRoom@@V?$CUtlMemory@PAVCRoom@@H@@@@IAEXXZ 101a30e0 f i asw_npcs.obj
 0002:0004e140       ?Base@?$CUtlVector@PAVCASW_Encounter@@V?$CUtlMemory@PAVCASW_Encounter@@H@@@@QAEPAPAVCASW_Encounter@@XZ 101a3140 f i asw_npcs.obj
 0002:0004e190       ?Base@?$CUtlVector@PAVCASW_Spawn_Definition@@V?$CUtlMemory@PAVCASW_Spawn_Definition@@H@@@@QAEPAPAVCASW_Spawn_Definition@@XZ 101a3190 f i asw_npcs.obj
 0002:0004e1e0       ??0?$CUtlMemory@PAVCASW_Spawn_Definition@@H@@QAE@HH@Z 101a31e0 f i asw_npcs.obj
 0002:0004e3d0       ??A?$CUtlMemory@PAVCASW_Spawn_Definition@@H@@QAEAAPAVCASW_Spawn_Definition@@H@Z 101a33d0 f i asw_npcs.obj
 0002:0004e5d0       ?Base@?$CUtlMemory@PAVCASW_Spawn_Definition@@H@@QAEPAPAVCASW_Spawn_Definition@@XZ 101a35d0 f i asw_npcs.obj
 0002:0004e6f0       ?InsertBefore@?$CUtlVector@PAVCRoom@@V?$CUtlMemory@PAVCRoom@@H@@@@QAEHHABQAVCRoom@@@Z 101a36f0 f i asw_npcs.obj
 0002:0004e970       ?Purge@?$CUtlVector@PAVCRoom@@V?$CUtlMemory@PAVCRoom@@H@@@@QAEXXZ 101a3970 f i asw_npcs.obj
 0002:0004e9e0       ??0?$CUtlMemory@PAVCRoom@@H@@QAE@HH@Z 101a39e0 f i asw_npcs.obj
 0002:0004ebd0       ??1?$CUtlMemory@PAVCRoom@@H@@QAE@XZ 101a3bd0 f i asw_npcs.obj
 0002:0004ec20       ??A?$CUtlMemory@PAVCRoom@@H@@QAEAAPAVCRoom@@H@Z 101a3c20 f i asw_npcs.obj
 0002:0004ee20       ?Base@?$CUtlMemory@PAVCRoom@@H@@QAEPAPAVCRoom@@XZ 101a3e20 f i asw_npcs.obj
 0002:0004ef40       ?InsertBefore@?$CUtlVector@PAVCASW_Encounter@@V?$CUtlMemory@PAVCASW_Encounter@@H@@@@QAEHHABQAVCASW_Encounter@@@Z 101a3f40 f i asw_npcs.obj
 0002:0004f1c0       ??A?$CUtlMemory@PAVCASW_Encounter@@H@@QAEAAPAVCASW_Encounter@@H@Z 101a41c0 f i asw_npcs.obj
 0002:0004f3c0       ?Base@?$CUtlMemory@PAVCASW_Encounter@@H@@QAEPAPAVCASW_Encounter@@XZ 101a43c0 f i asw_npcs.obj
 0002:0004f4e0       ?ValidateGrowSize@?$CUtlMemory@PAVCASW_Spawn_Definition@@H@@IAEXXZ 101a44e0 f i asw_npcs.obj
 0002:0004f520       ?ValidateGrowSize@?$CUtlMemory@PAVCRoom@@H@@IAEXXZ 101a4520 f i asw_npcs.obj
 0002:0004f560       ?IsIdxValid@?$CUtlMemory@PAVCASW_Spawn_Definition@@H@@QBE_NH@Z 101a4560 f i asw_npcs.obj
 0002:0004f5e0       ?IsReadOnly@?$CUtlMemory@PAVCASW_Spawn_Definition@@H@@QBE_NXZ 101a45e0 f i asw_npcs.obj
 0002:0004f630       ??$MemAllocClassName@V?$CUtlMemory@PAVCASW_Spawn_Definition@@H@@@@YAPBDPAV?$CUtlMemory@PAVCASW_Spawn_Definition@@H@@@Z 101a4630 f i asw_npcs.obj
 0002:0004f6b0       ?Element@?$CUtlVector@PAVCRoom@@V?$CUtlMemory@PAVCRoom@@H@@@@QAEAAPAVCRoom@@H@Z 101a46b0 f i asw_npcs.obj
 0002:0004f7e0       ?IsValidIndex@?$CUtlVector@PAVCRoom@@V?$CUtlMemory@PAVCRoom@@H@@@@QBE_NH@Z 101a47e0 f i asw_npcs.obj
 0002:0004f850       ?RemoveAll@?$CUtlVector@PAVCRoom@@V?$CUtlMemory@PAVCRoom@@H@@@@QAEXXZ 101a4850 f i asw_npcs.obj
 0002:0004f8e0       ?GrowVector@?$CUtlVector@PAVCRoom@@V?$CUtlMemory@PAVCRoom@@H@@@@IAEXH@Z 101a48e0 f i asw_npcs.obj
 0002:0004fa00       ?ShiftElementsRight@?$CUtlVector@PAVCRoom@@V?$CUtlMemory@PAVCRoom@@H@@@@IAEXHH@Z 101a4a00 f i asw_npcs.obj
 0002:0004fba0       ??$CopyConstruct@PAVCRoom@@@@YAPAPAVCRoom@@PAPAV0@ABQAV0@@Z 101a4ba0 f i asw_npcs.obj
 0002:0004fc40       ?IsIdxValid@?$CUtlMemory@PAVCRoom@@H@@QBE_NH@Z 101a4c40 f i asw_npcs.obj
 0002:0004fcc0       ?Purge@?$CUtlMemory@PAVCRoom@@H@@QAEXXZ 101a4cc0 f i asw_npcs.obj
 0002:0004fd70       ?IsReadOnly@?$CUtlMemory@PAVCRoom@@H@@QBE_NXZ 101a4d70 f i asw_npcs.obj
 0002:0004fdc0       ??$MemAllocClassName@V?$CUtlMemory@PAVCRoom@@H@@@@YAPBDPAV?$CUtlMemory@PAVCRoom@@H@@@Z 101a4dc0 f i asw_npcs.obj
 0002:0004fe40       ?Element@?$CUtlVector@PAVCASW_Encounter@@V?$CUtlMemory@PAVCASW_Encounter@@H@@@@QAEAAPAVCASW_Encounter@@H@Z 101a4e40 f i asw_npcs.obj
 0002:0004ff70       ?IsValidIndex@?$CUtlVector@PAVCASW_Encounter@@V?$CUtlMemory@PAVCASW_Encounter@@H@@@@QBE_NH@Z 101a4f70 f i asw_npcs.obj
 0002:0004ffe0       ?GrowVector@?$CUtlVector@PAVCASW_Encounter@@V?$CUtlMemory@PAVCASW_Encounter@@H@@@@IAEXH@Z 101a4fe0 f i asw_npcs.obj
 0002:00050100       ?ShiftElementsRight@?$CUtlVector@PAVCASW_Encounter@@V?$CUtlMemory@PAVCASW_Encounter@@H@@@@IAEXHH@Z 101a5100 f i asw_npcs.obj
 0002:000502a0       ??$CopyConstruct@PAVCASW_Encounter@@@@YAPAPAVCASW_Encounter@@PAPAV0@ABQAV0@@Z 101a52a0 f i asw_npcs.obj
 0002:00050340       ?IsIdxValid@?$CUtlMemory@PAVCASW_Encounter@@H@@QBE_NH@Z 101a5340 f i asw_npcs.obj
 0002:000503c0       ?IsReadOnly@?$CUtlMemory@PAVCASW_Encounter@@H@@QBE_NXZ 101a53c0 f i asw_npcs.obj
 0002:00050410       ?ResetDbgInfo@?$CUtlVector@PAVCASW_Encounter@@V?$CUtlMemory@PAVCASW_Encounter@@H@@@@IAEXXZ 101a5410 f i asw_npcs.obj
 0002:00050470       ?NumAllocated@?$CUtlMemory@PAVCRoom@@H@@QBEHXZ 101a5470 f i asw_npcs.obj
 0002:000504b0       ?Grow@?$CUtlMemory@PAVCRoom@@H@@QAEXH@Z 101a54b0 f i asw_npcs.obj
 0002:00050b20       ?IsExternallyAllocated@?$CUtlMemory@PAVCRoom@@H@@QBE_NXZ 101a5b20 f i asw_npcs.obj
 0002:00050b70       ??$Destruct@PAVCRoom@@@@YAXPAPAVCRoom@@@Z 101a5b70 f i asw_npcs.obj
 0002:00050bd0       ??$MemAllocClassName@V?$CUtlVector@PAVCRoom@@V?$CUtlMemory@PAVCRoom@@H@@@@@@YAPBDPAV?$CUtlVector@PAVCRoom@@V?$CUtlMemory@PAVCRoom@@H@@@@@Z 101a5bd0 f i asw_npcs.obj
 0002:00050c50       ?NumAllocated@?$CUtlMemory@PAVCASW_Encounter@@H@@QBEHXZ 101a5c50 f i asw_npcs.obj
 0002:00050c90       ?Grow@?$CUtlMemory@PAVCASW_Encounter@@H@@QAEXH@Z 101a5c90 f i asw_npcs.obj
 0002:00051300       ??$MemAllocClassName@V?$CUtlVector@PAVCASW_Encounter@@V?$CUtlMemory@PAVCASW_Encounter@@H@@@@@@YAPBDPAV?$CUtlVector@PAVCASW_Encounter@@V?$CUtlMemory@PAVCASW_Encounter@@H@@@@@Z 101a6300 f i asw_npcs.obj
 0002:00051380       ?IsExternallyAllocated@?$CUtlMemory@PAVCASW_Encounter@@H@@QBE_NXZ 101a6380 f i asw_npcs.obj
 0002:000513d0       ??$MemAllocClassName@V?$CUtlMemory@PAVCASW_Encounter@@H@@@@YAPBDPAV?$CUtlMemory@PAVCASW_Encounter@@H@@@Z 101a63d0 f i asw_npcs.obj
 0002:00051450       ??0CASW_Random_Missions@@QAE@XZ 101a6450 f   asw_random_missions.obj
 0002:000514d0       ??0IASW_Random_Missions@@QAE@XZ 101a64d0 f i asw_random_missions.obj
 0002:00051520       ??1CASW_Random_Missions@@QAE@XZ 101a6520 f   asw_random_missions.obj
 0002:000515e0       ?CreateTileGenFrame@CASW_Random_Missions@@UAEPAVPanel@vgui@@PAV23@@Z 101a65e0 f   asw_random_missions.obj
 0002:000516a0       ?LevelInitPostEntity@CASW_Random_Missions@@UAEXPBD@Z 101a66a0 f   asw_random_missions.obj
 0002:00051990       ?ValidMapLayout@CASW_Random_Missions@@UAE_NXZ 101a6990 f   asw_random_missions.obj
 0002:000519e0       ?GetGenerationOptions@CASW_Random_Missions@@UAEPAVKeyValues@@XZ 101a69e0 f   asw_random_missions.obj
 0002:00051a60       ?GetRoomDetails@CASW_Random_Missions@@UAEPAVIASW_Room_Details@@ABVVector@@@Z 101a6a60 f   asw_random_missions.obj
 0002:00051b50       ?GetStartRoomDetails@CASW_Random_Missions@@UAEPAVIASW_Room_Details@@XZ 101a6b50 f   asw_random_missions.obj
 0002:00051c30       ?GetRoomDetails@CASW_Random_Missions@@UAEPAVIASW_Room_Details@@H@Z 101a6c30 f   asw_random_missions.obj
 0002:00051cc0       ?GetNumRooms@CASW_Random_Missions@@UAEHXZ 101a6cc0 f   asw_random_missions.obj
 0002:00051d20       ?GetNumEncounters@CASW_Random_Missions@@UAEHXZ 101a6d20 f   asw_random_missions.obj
 0002:00051d80       ?GetEncounter@CASW_Random_Missions@@UAEPAVIASW_Encounter@@H@Z 101a6d80 f   asw_random_missions.obj
 0002:00051e10       ?GetMapBounds@CASW_Random_Missions@@UAEXPAVVector@@0@Z 101a6e10 f   asw_random_missions.obj
 0002:000521f0       ?CheckAndCleanDirtyLayout@CASW_Random_Missions@@UAE_NXZ 101a71f0 f   asw_random_missions.obj
 0002:00052240       ?SpawnTypeFromString@@YAHPBD@Z 101a7240 f   asw_spawn_selection.obj
 0002:000522e0       ?ASW_AllocString@@YAPADPBD@Z 101a72e0 f   asw_spawn_selection.obj
 0002:000523a0       ??0CASW_Spawn_Definition@@QAE@H@Z 101a73a0 f   asw_spawn_selection.obj
 0002:00052440       ?GetEntryCount@CASW_Spawn_Definition@@UAEHXZ 101a7440 f i asw_spawn_selection.obj
 0002:000524a0       ?GetEntry@CASW_Spawn_Definition@@UAEPAVIASWSpawnDefinitionEntry@@H@Z 101a74a0 f i asw_spawn_selection.obj
 0002:000525d0       ?GetID@CASW_Spawn_Definition@@UAEHXZ 101a75d0 f i asw_spawn_selection.obj
 0002:00052610       ??0IASWSpawnDefinition@@QAE@XZ 101a7610 f i asw_spawn_selection.obj
 0002:00052660       ??1CASW_Spawn_Definition@@QAE@XZ 101a7660 f   asw_spawn_selection.obj
 0002:000526d0       ?LoadFromKeyValues@CASW_Spawn_Definition@@QAEXPAVKeyValues@@@Z 101a76d0 f   asw_spawn_selection.obj
 0002:000528c0       ?GetBool@KeyValues@@QAE_NPBD_N@Z 101a78c0 f i asw_spawn_selection.obj
 0002:00052930       ??0CASW_Entry@@QAE@XZ      101a7930 f i asw_spawn_selection.obj
 0002:000529d0       ?GetNPCClassname@CASW_Entry@@UAEPBDXZ 101a79d0 f i asw_spawn_selection.obj
 0002:00052a10       ?GetSpawnCountRange@CASW_Entry@@UAEXAAH0@Z 101a7a10 f i asw_spawn_selection.obj
 0002:00052a70       ?GetEliteNPCChance@CASW_Entry@@UAEMXZ 101a7a70 f i asw_spawn_selection.obj
 0002:00052ab0       ?UseSpawners@CASW_Entry@@UAE_NXZ 101a7ab0 f i asw_spawn_selection.obj
 0002:00052af0       ??0IASWSpawnDefinitionEntry@@QAE@XZ 101a7af0 f i asw_spawn_selection.obj
 0002:00052b40       ?ContainsAlienClass@CASW_Spawn_Definition@@QAE_NPBD@Z 101a7b40 f   asw_spawn_selection.obj
 0002:00052bf0       ?ListSpawnDef@CASW_Spawn_Definition@@QAEXXZ 101a7bf0 f   asw_spawn_selection.obj
 0002:00052d10       ??0CASW_Spawn_Set@@QAE@XZ  101a7d10 f   asw_spawn_selection.obj
 0002:00052db0       ??_F?$CUtlVector@PAVCASW_Spawn_Definition@@V?$CUtlMemory@PAVCASW_Spawn_Definition@@H@@@@QAEXXZ 101a7db0 f i asw_spawn_selection.obj
 0002:00052e10       ??_I@YGXPAXIHP6EX0@Z@Z     101a7e10 f i asw_spawn_selection.obj
 0002:00052e90       ??1CASW_Spawn_Set@@QAE@XZ  101a7e90 f   asw_spawn_selection.obj
 0002:00052f20       ?GetSpawnDef@CASW_Spawn_Set@@QAEPAVCASW_Spawn_Definition@@H@Z 101a7f20 f   asw_spawn_selection.obj
 0002:00053040       ?GetSelectionWeight@CASW_Spawn_Definition@@QAEMXZ 101a8040 f i asw_spawn_selection.obj
 0002:00053080       ?GetSpawnDefByID@CASW_Spawn_Set@@QAEPAVCASW_Spawn_Definition@@H@Z 101a8080 f   asw_spawn_selection.obj
 0002:00053190       ?LoadFromKeyValues@CASW_Spawn_Set@@QAEXPAVKeyValues@@@Z 101a8190 f   asw_spawn_selection.obj
 0002:00053460       ?CurrentSpawnSet@@YAPAVCASW_Spawn_Set@@XZ 101a8460 f   asw_spawn_selection.obj
 0002:000534b0       ?GetCurrentSpawnSet@CASW_Spawn_Selection@@QAEPAVCASW_Spawn_Set@@XZ 101a84b0 f i asw_spawn_selection.obj
 0002:000534f0       ??0CASW_Spawn_Selection@@QAE@XZ 101a84f0 f   asw_spawn_selection.obj
 0002:00053580       ?GetSpawnDefinition@CASW_Spawn_Selection@@UAEPAVIASWSpawnDefinition@@H@Z 101a8580 f i asw_spawn_selection.obj
 0002:000536b0       ??0IASWSpawnSelection@@QAE@XZ 101a86b0 f i asw_spawn_selection.obj
 0002:00053700       ??1CASW_Spawn_Selection@@QAE@XZ 101a8700 f   asw_spawn_selection.obj
 0002:00053770       ?Init@CASW_Spawn_Selection@@QAEXXZ 101a8770 f   asw_spawn_selection.obj
 0002:000537d0       ?SetCurrentSpawnSet@CASW_Spawn_Selection@@UAEXH@Z 101a87d0 f   asw_spawn_selection.obj
 0002:00053a40       ?GetSetName@CASW_Spawn_Set@@QAEPBDXZ 101a8a40 f i asw_spawn_selection.obj
 0002:00053a80       ?GetMinDifficulty@CASW_Spawn_Set@@QAEHXZ 101a8a80 f i asw_spawn_selection.obj
 0002:00053ac0       ?GetMaxDifficulty@CASW_Spawn_Set@@QAEHXZ 101a8ac0 f i asw_spawn_selection.obj
 0002:00053b00       ?SetCurrentSpawnSet@CASW_Spawn_Selection@@UAE_NPBD@Z 101a8b00 f   asw_spawn_selection.obj
 0002:00053b70       ?GetSpawnDefByID@CASW_Spawn_Selection@@QAEPAVCASW_Spawn_Definition@@H@Z 101a8b70 f   asw_spawn_selection.obj
 0002:00053c30       ?DumpCurrentSpawnSet@CASW_Spawn_Selection@@UAEXXZ 101a8c30 f   asw_spawn_selection.obj
 0002:00053ce0       ?GetFeederChance@CASW_Spawn_Set@@QAEMXZ 101a8ce0 f i asw_spawn_selection.obj
 0002:00053d20       ?GetSpawnSet@CASW_Spawn_Selection@@QAEPAVCASW_Spawn_Set@@PBD@Z 101a8d20 f   asw_spawn_selection.obj
 0002:00053de0       ?LoadSpawnSets@CASW_Spawn_Selection@@AAEXXZ 101a8de0 f   asw_spawn_selection.obj
 0002:00054040       ?Reset@CASW_Spawn_Selection@@AAEXXZ 101a9040 f   asw_spawn_selection.obj
 0002:000540d0       ?IsAvailableNPC@CASW_Spawn_Selection@@UAE_NPBD@Z 101a90d0 f   asw_spawn_selection.obj
 0002:00054110       ??0?$CUtlVector@PAVCASW_Entry@@V?$CUtlMemory@PAVCASW_Entry@@H@@@@QAE@HH@Z 101a9110 f i asw_spawn_selection.obj
 0002:00054190       ??1?$CUtlVector@PAVCASW_Entry@@V?$CUtlMemory@PAVCASW_Entry@@H@@@@QAE@XZ 101a9190 f i asw_spawn_selection.obj
 0002:000541f0       ??A?$CUtlVector@PAVCASW_Entry@@V?$CUtlMemory@PAVCASW_Entry@@H@@@@QAEAAPAVCASW_Entry@@H@Z 101a91f0 f i asw_spawn_selection.obj
 0002:00054320       ?Count@?$CUtlVector@PAVCASW_Entry@@V?$CUtlMemory@PAVCASW_Entry@@H@@@@QBEHXZ 101a9320 f i asw_spawn_selection.obj
 0002:00054360       ?AddToTail@?$CUtlVector@PAVCASW_Entry@@V?$CUtlMemory@PAVCASW_Entry@@H@@@@QAEHABQAVCASW_Entry@@@Z 101a9360 f i asw_spawn_selection.obj
 0002:000544d0       ?PurgeAndDeleteElements@?$CUtlVector@PAVCASW_Entry@@V?$CUtlMemory@PAVCASW_Entry@@H@@@@QAEXXZ 101a94d0 f i asw_spawn_selection.obj
 0002:00054580       ??1?$CUtlVector@PAVCASW_Spawn_Definition@@V?$CUtlMemory@PAVCASW_Spawn_Definition@@H@@@@QAE@XZ 101a9580 f i asw_spawn_selection.obj
 0002:000545e0       ?AddToTail@?$CUtlVector@PAVCASW_Spawn_Definition@@V?$CUtlMemory@PAVCASW_Spawn_Definition@@H@@@@QAEHABQAVCASW_Spawn_Definition@@@Z 101a95e0 f i asw_spawn_selection.obj
 0002:00054750       ?PurgeAndDeleteElements@?$CUtlVector@PAVCASW_Spawn_Definition@@V?$CUtlMemory@PAVCASW_Spawn_Definition@@H@@@@QAEXXZ 101a9750 f i asw_spawn_selection.obj
 0002:00054820       ??0?$CUtlVector@PAVCASW_Spawn_Set@@V?$CUtlMemory@PAVCASW_Spawn_Set@@H@@@@QAE@HH@Z 101a9820 f i asw_spawn_selection.obj
 0002:000548a0       ??1?$CUtlVector@PAVCASW_Spawn_Set@@V?$CUtlMemory@PAVCASW_Spawn_Set@@H@@@@QAE@XZ 101a98a0 f i asw_spawn_selection.obj
 0002:00054900       ??A?$CUtlVector@PAVCASW_Spawn_Set@@V?$CUtlMemory@PAVCASW_Spawn_Set@@H@@@@QAEAAPAVCASW_Spawn_Set@@H@Z 101a9900 f i asw_spawn_selection.obj
 0002:00054a30       ?Count@?$CUtlVector@PAVCASW_Spawn_Set@@V?$CUtlMemory@PAVCASW_Spawn_Set@@H@@@@QBEHXZ 101a9a30 f i asw_spawn_selection.obj
 0002:00054a70       ?AddToTail@?$CUtlVector@PAVCASW_Spawn_Set@@V?$CUtlMemory@PAVCASW_Spawn_Set@@H@@@@QAEHABQAVCASW_Spawn_Set@@@Z 101a9a70 f i asw_spawn_selection.obj
 0002:00054be0       ?PurgeAndDeleteElements@?$CUtlVector@PAVCASW_Spawn_Set@@V?$CUtlMemory@PAVCASW_Spawn_Set@@H@@@@QAEXXZ 101a9be0 f i asw_spawn_selection.obj
 0002:00054cb0       ??_GCASW_Spawn_Definition@@QAEPAXI@Z 101a9cb0 f i asw_spawn_selection.obj
 0002:00054d20       ??_GCASW_Spawn_Set@@QAEPAXI@Z 101a9d20 f i asw_spawn_selection.obj
 0002:00054d90       ?Base@?$CUtlVector@PAVCASW_Entry@@V?$CUtlMemory@PAVCASW_Entry@@H@@@@QAEPAPAVCASW_Entry@@XZ 101a9d90 f i asw_spawn_selection.obj
 0002:00054de0       ?ResetDbgInfo@?$CUtlVector@PAVCASW_Entry@@V?$CUtlMemory@PAVCASW_Entry@@H@@@@IAEXXZ 101a9de0 f i asw_spawn_selection.obj
 0002:00054e40       ?Base@?$CUtlVector@PAVCASW_Spawn_Set@@V?$CUtlMemory@PAVCASW_Spawn_Set@@H@@@@QAEPAPAVCASW_Spawn_Set@@XZ 101a9e40 f i asw_spawn_selection.obj
 0002:00054e90       ?ResetDbgInfo@?$CUtlVector@PAVCASW_Spawn_Set@@V?$CUtlMemory@PAVCASW_Spawn_Set@@H@@@@IAEXXZ 101a9e90 f i asw_spawn_selection.obj
 0002:00054ef0       ?Element@?$CUtlVector@PAVCASW_Entry@@V?$CUtlMemory@PAVCASW_Entry@@H@@@@QAEAAPAVCASW_Entry@@H@Z 101a9ef0 f i asw_spawn_selection.obj
 0002:00055020       ?InsertBefore@?$CUtlVector@PAVCASW_Entry@@V?$CUtlMemory@PAVCASW_Entry@@H@@@@QAEHHABQAVCASW_Entry@@@Z 101aa020 f i asw_spawn_selection.obj
 0002:000552a0       ?Purge@?$CUtlVector@PAVCASW_Entry@@V?$CUtlMemory@PAVCASW_Entry@@H@@@@QAEXXZ 101aa2a0 f i asw_spawn_selection.obj
 0002:00055310       ??0?$CUtlMemory@PAVCASW_Entry@@H@@QAE@HH@Z 101aa310 f i asw_spawn_selection.obj
 0002:00055500       ??1?$CUtlMemory@PAVCASW_Entry@@H@@QAE@XZ 101aa500 f i asw_spawn_selection.obj
 0002:00055550       ??A?$CUtlMemory@PAVCASW_Entry@@H@@QAEAAPAVCASW_Entry@@H@Z 101aa550 f i asw_spawn_selection.obj
 0002:00055750       ?Base@?$CUtlMemory@PAVCASW_Entry@@H@@QAEPAPAVCASW_Entry@@XZ 101aa750 f i asw_spawn_selection.obj
 0002:00055870       ?Element@?$CUtlVector@PAVCASW_Spawn_Definition@@V?$CUtlMemory@PAVCASW_Spawn_Definition@@H@@@@QAEAAPAVCASW_Spawn_Definition@@H@Z 101aa870 f i asw_spawn_selection.obj
 0002:000559a0       ?InsertBefore@?$CUtlVector@PAVCASW_Spawn_Definition@@V?$CUtlMemory@PAVCASW_Spawn_Definition@@H@@@@QAEHHABQAVCASW_Spawn_Definition@@@Z 101aa9a0 f i asw_spawn_selection.obj
 0002:00055c20       ?Purge@?$CUtlVector@PAVCASW_Spawn_Definition@@V?$CUtlMemory@PAVCASW_Spawn_Definition@@H@@@@QAEXXZ 101aac20 f i asw_spawn_selection.obj
 0002:00055c90       ??1?$CUtlMemory@PAVCASW_Spawn_Definition@@H@@QAE@XZ 101aac90 f i asw_spawn_selection.obj
 0002:00055ce0       ?Element@?$CUtlVector@PAVCASW_Spawn_Set@@V?$CUtlMemory@PAVCASW_Spawn_Set@@H@@@@QAEAAPAVCASW_Spawn_Set@@H@Z 101aace0 f i asw_spawn_selection.obj
 0002:00055e10       ?InsertBefore@?$CUtlVector@PAVCASW_Spawn_Set@@V?$CUtlMemory@PAVCASW_Spawn_Set@@H@@@@QAEHHABQAVCASW_Spawn_Set@@@Z 101aae10 f i asw_spawn_selection.obj
 0002:00056090       ?Purge@?$CUtlVector@PAVCASW_Spawn_Set@@V?$CUtlMemory@PAVCASW_Spawn_Set@@H@@@@QAEXXZ 101ab090 f i asw_spawn_selection.obj
 0002:00056100       ??0?$CUtlMemory@PAVCASW_Spawn_Set@@H@@QAE@HH@Z 101ab100 f i asw_spawn_selection.obj
 0002:000562f0       ??1?$CUtlMemory@PAVCASW_Spawn_Set@@H@@QAE@XZ 101ab2f0 f i asw_spawn_selection.obj
 0002:00056340       ??A?$CUtlMemory@PAVCASW_Spawn_Set@@H@@QAEAAPAVCASW_Spawn_Set@@H@Z 101ab340 f i asw_spawn_selection.obj
 0002:00056540       ?Base@?$CUtlMemory@PAVCASW_Spawn_Set@@H@@QAEPAPAVCASW_Spawn_Set@@XZ 101ab540 f i asw_spawn_selection.obj
 0002:00056660       ?ValidateGrowSize@?$CUtlMemory@PAVCASW_Entry@@H@@IAEXXZ 101ab660 f i asw_spawn_selection.obj
 0002:000566a0       ?ValidateGrowSize@?$CUtlMemory@PAVCASW_Spawn_Set@@H@@IAEXXZ 101ab6a0 f i asw_spawn_selection.obj
 0002:000566e0       ?IsValidIndex@?$CUtlVector@PAVCASW_Entry@@V?$CUtlMemory@PAVCASW_Entry@@H@@@@QBE_NH@Z 101ab6e0 f i asw_spawn_selection.obj
 0002:00056750       ?RemoveAll@?$CUtlVector@PAVCASW_Entry@@V?$CUtlMemory@PAVCASW_Entry@@H@@@@QAEXXZ 101ab750 f i asw_spawn_selection.obj
 0002:000567e0       ?GrowVector@?$CUtlVector@PAVCASW_Entry@@V?$CUtlMemory@PAVCASW_Entry@@H@@@@IAEXH@Z 101ab7e0 f i asw_spawn_selection.obj
 0002:00056900       ?ShiftElementsRight@?$CUtlVector@PAVCASW_Entry@@V?$CUtlMemory@PAVCASW_Entry@@H@@@@IAEXHH@Z 101ab900 f i asw_spawn_selection.obj
 0002:00056aa0       ?IsIdxValid@?$CUtlMemory@PAVCASW_Entry@@H@@QBE_NH@Z 101abaa0 f i asw_spawn_selection.obj
 0002:00056b20       ?Purge@?$CUtlMemory@PAVCASW_Entry@@H@@QAEXXZ 101abb20 f i asw_spawn_selection.obj
 0002:00056bd0       ?IsReadOnly@?$CUtlMemory@PAVCASW_Entry@@H@@QBE_NXZ 101abbd0 f i asw_spawn_selection.obj
 0002:00056c20       ??$CopyConstruct@PAVCASW_Entry@@@@YAPAPAVCASW_Entry@@PAPAV0@ABQAV0@@Z 101abc20 f i asw_spawn_selection.obj
 0002:00056cc0       ??$MemAllocClassName@V?$CUtlMemory@PAVCASW_Entry@@H@@@@YAPBDPAV?$CUtlMemory@PAVCASW_Entry@@H@@@Z 101abcc0 f i asw_spawn_selection.obj
 0002:00056d40       ?IsValidIndex@?$CUtlVector@PAVCASW_Spawn_Definition@@V?$CUtlMemory@PAVCASW_Spawn_Definition@@H@@@@QBE_NH@Z 101abd40 f i asw_spawn_selection.obj
 0002:00056db0       ?RemoveAll@?$CUtlVector@PAVCASW_Spawn_Definition@@V?$CUtlMemory@PAVCASW_Spawn_Definition@@H@@@@QAEXXZ 101abdb0 f i asw_spawn_selection.obj
 0002:00056e40       ?GrowVector@?$CUtlVector@PAVCASW_Spawn_Definition@@V?$CUtlMemory@PAVCASW_Spawn_Definition@@H@@@@IAEXH@Z 101abe40 f i asw_spawn_selection.obj
 0002:00056f60       ?ShiftElementsRight@?$CUtlVector@PAVCASW_Spawn_Definition@@V?$CUtlMemory@PAVCASW_Spawn_Definition@@H@@@@IAEXHH@Z 101abf60 f i asw_spawn_selection.obj
 0002:00057100       ?Purge@?$CUtlMemory@PAVCASW_Spawn_Definition@@H@@QAEXXZ 101ac100 f i asw_spawn_selection.obj
 0002:000571b0       ??$CopyConstruct@PAVCASW_Spawn_Definition@@@@YAPAPAVCASW_Spawn_Definition@@PAPAV0@ABQAV0@@Z 101ac1b0 f i asw_spawn_selection.obj
 0002:00057250       ?IsValidIndex@?$CUtlVector@PAVCASW_Spawn_Set@@V?$CUtlMemory@PAVCASW_Spawn_Set@@H@@@@QBE_NH@Z 101ac250 f i asw_spawn_selection.obj
 0002:000572c0       ?RemoveAll@?$CUtlVector@PAVCASW_Spawn_Set@@V?$CUtlMemory@PAVCASW_Spawn_Set@@H@@@@QAEXXZ 101ac2c0 f i asw_spawn_selection.obj
 0002:00057350       ?GrowVector@?$CUtlVector@PAVCASW_Spawn_Set@@V?$CUtlMemory@PAVCASW_Spawn_Set@@H@@@@IAEXH@Z 101ac350 f i asw_spawn_selection.obj
 0002:00057470       ?ShiftElementsRight@?$CUtlVector@PAVCASW_Spawn_Set@@V?$CUtlMemory@PAVCASW_Spawn_Set@@H@@@@IAEXHH@Z 101ac470 f i asw_spawn_selection.obj
 0002:00057610       ?IsIdxValid@?$CUtlMemory@PAVCASW_Spawn_Set@@H@@QBE_NH@Z 101ac610 f i asw_spawn_selection.obj
 0002:00057690       ?Purge@?$CUtlMemory@PAVCASW_Spawn_Set@@H@@QAEXXZ 101ac690 f i asw_spawn_selection.obj
 0002:00057740       ?IsReadOnly@?$CUtlMemory@PAVCASW_Spawn_Set@@H@@QBE_NXZ 101ac740 f i asw_spawn_selection.obj
 0002:00057790       ??$CopyConstruct@PAVCASW_Spawn_Set@@@@YAPAPAVCASW_Spawn_Set@@PAPAV0@ABQAV0@@Z 101ac790 f i asw_spawn_selection.obj
 0002:00057830       ??$MemAllocClassName@V?$CUtlMemory@PAVCASW_Spawn_Set@@H@@@@YAPBDPAV?$CUtlMemory@PAVCASW_Spawn_Set@@H@@@Z 101ac830 f i asw_spawn_selection.obj
 0002:000578b0       ??$Destruct@PAVCASW_Entry@@@@YAXPAPAVCASW_Entry@@@Z 101ac8b0 f i asw_spawn_selection.obj
 0002:00057910       ?NumAllocated@?$CUtlMemory@PAVCASW_Entry@@H@@QBEHXZ 101ac910 f i asw_spawn_selection.obj
 0002:00057950       ?Grow@?$CUtlMemory@PAVCASW_Entry@@H@@QAEXH@Z 101ac950 f i asw_spawn_selection.obj
 0002:00057fc0       ?IsExternallyAllocated@?$CUtlMemory@PAVCASW_Entry@@H@@QBE_NXZ 101acfc0 f i asw_spawn_selection.obj
 0002:00058010       ??$MemAllocClassName@V?$CUtlVector@PAVCASW_Entry@@V?$CUtlMemory@PAVCASW_Entry@@H@@@@@@YAPBDPAV?$CUtlVector@PAVCASW_Entry@@V?$CUtlMemory@PAVCASW_Entry@@H@@@@@Z 101ad010 f i asw_spawn_selection.obj
 0002:00058090       ??$Destruct@PAVCASW_Spawn_Definition@@@@YAXPAPAVCASW_Spawn_Definition@@@Z 101ad090 f i asw_spawn_selection.obj
 0002:000580f0       ?NumAllocated@?$CUtlMemory@PAVCASW_Spawn_Definition@@H@@QBEHXZ 101ad0f0 f i asw_spawn_selection.obj
 0002:00058130       ?Grow@?$CUtlMemory@PAVCASW_Spawn_Definition@@H@@QAEXH@Z 101ad130 f i asw_spawn_selection.obj
 0002:000587a0       ?IsExternallyAllocated@?$CUtlMemory@PAVCASW_Spawn_Definition@@H@@QBE_NXZ 101ad7a0 f i asw_spawn_selection.obj
 0002:000587f0       ??$MemAllocClassName@V?$CUtlVector@PAVCASW_Spawn_Definition@@V?$CUtlMemory@PAVCASW_Spawn_Definition@@H@@@@@@YAPBDPAV?$CUtlVector@PAVCASW_Spawn_Definition@@V?$CUtlMemory@PAVCASW_Spawn_Definition@@H@@@@@Z 101ad7f0 f i asw_spawn_selection.obj
 0002:00058870       ??$Destruct@PAVCASW_Spawn_Set@@@@YAXPAPAVCASW_Spawn_Set@@@Z 101ad870 f i asw_spawn_selection.obj
 0002:000588d0       ?NumAllocated@?$CUtlMemory@PAVCASW_Spawn_Set@@H@@QBEHXZ 101ad8d0 f i asw_spawn_selection.obj
 0002:00058910       ?Grow@?$CUtlMemory@PAVCASW_Spawn_Set@@H@@QAEXH@Z 101ad910 f i asw_spawn_selection.obj
 0002:00058f80       ?IsExternallyAllocated@?$CUtlMemory@PAVCASW_Spawn_Set@@H@@QBE_NXZ 101adf80 f i asw_spawn_selection.obj
 0002:00058fd0       ??$MemAllocClassName@V?$CUtlVector@PAVCASW_Spawn_Set@@V?$CUtlMemory@PAVCASW_Spawn_Set@@H@@@@@@YAPBDPAV?$CUtlVector@PAVCASW_Spawn_Set@@V?$CUtlMemory@PAVCASW_Spawn_Set@@H@@@@@Z 101adfd0 f i asw_spawn_selection.obj
 0002:00059050       ?ASW_System_GetCurrentTimeAndDate@@YA_NPAH000000@Z 101ae050 f   asw_system.obj
 0002:00059170       ?Sys_FindFirst@@YAPBDAAHPBDPADH@Z 101ae170 f   asw_system.obj
 0002:00059260       ?Sys_FindNext@@YAPBDAAHPADH@Z 101ae260 f   asw_system.obj
 0002:00059300       ?Sys_FindClose@@YAXAAH@Z   101ae300 f   asw_system.obj
 0002:00059390       ??0CChunkHandlerMap@@QAE@XZ 101ae390 f   chunkfile.obj
 0002:000593e0       ??1CChunkHandlerMap@@QAE@XZ 101ae3e0 f   chunkfile.obj
 0002:00059470       ?AddHandler@CChunkHandlerMap@@QAEXPBDP6A?AW4ChunkFileResult_t@@PAVCChunkFile@@PAX@Z2@Z 101ae470 f   chunkfile.obj
 0002:00059570       ?SetErrorHandler@CChunkHandlerMap@@QAEXP6A_NPAVCChunkFile@@PBDPAX@Z2@Z 101ae570 f   chunkfile.obj
 0002:000595c0       ?GetErrorHandler@CChunkHandlerMap@@QAEP6A_NPAVCChunkFile@@PBDPAX@ZPAPAX@Z 101ae5c0 f   chunkfile.obj
 0002:00059610       ?GetHandler@CChunkHandlerMap@@QAEP6A?AW4ChunkFileResult_t@@PAVCChunkFile@@PAX@ZPBDPAPAX@Z 101ae610 f   chunkfile.obj
 0002:000596b0       ??0CChunkFile@@QAE@XZ      101ae6b0 f   chunkfile.obj
 0002:00059750       ??1CChunkFile@@QAE@XZ      101ae750 f   chunkfile.obj
 0002:000597d0       ??1TokenReader@@QAE@XZ     101ae7d0 f i chunkfile.obj
 0002:00059820       ?BeginChunk@CChunkFile@@QAE?AW4ChunkFileResult_t@@PBD@Z 101ae820 f   chunkfile.obj
 0002:00059940       ?BuildIndentString@CChunkFile@@IAEXPADH@Z 101ae940 f   chunkfile.obj
 0002:000599c0       ?Close@CChunkFile@@QAE?AW4ChunkFileResult_t@@XZ 101ae9c0 f   chunkfile.obj
 0002:00059a40       ?EndChunk@CChunkFile@@QAE?AW4ChunkFileResult_t@@XZ 101aea40 f   chunkfile.obj
 0002:00059af0       ?GetErrorText@CChunkFile@@QAEPBDW4ChunkFileResult_t@@@Z 101aeaf0 f   chunkfile.obj
 0002:00059c80       ?HandleError@CChunkFile@@QAEXPBDW4ChunkFileResult_t@@@Z 101aec80 f   chunkfile.obj
 0002:00059cc0       ?HandleChunk@CChunkFile@@QAE?AW4ChunkFileResult_t@@PBD@Z 101aecc0 f   chunkfile.obj
 0002:00059ef0       ?Open@CChunkFile@@QAE?AW4ChunkFileResult_t@@PBDW4ChunkFileOpenMode_t@@@Z 101aeef0 f   chunkfile.obj
 0002:00059fd0       ?PopHandlers@CChunkFile@@QAEXXZ 101aefd0 f   chunkfile.obj
 0002:0005a030       ?SetDefaultChunkHandler@CChunkFile@@QAEXP6A?AW4ChunkFileResult_t@@PAV1@PAXPBD@Z1@Z 101af030 f   chunkfile.obj
 0002:0005a090       ?PushHandlers@CChunkFile@@QAEXPAVCChunkHandlerMap@@@Z 101af090 f   chunkfile.obj
 0002:0005a110       ?ReadNext@CChunkFile@@QAE?AW4ChunkFileResult_t@@PAD0HAAW4ChunkType_t@@@Z 101af110 f   chunkfile.obj
 0002:0005a400       ?ReadChunk@CChunkFile@@QAE?AW4ChunkFileResult_t@@P6A?AW42@PBD0PAX@Z1@Z 101af400 f   chunkfile.obj
 0002:0005a570       ?ReadKeyValueBool@CChunkFile@@SA_NPBDAA_N@Z 101af570 f   chunkfile.obj
 0002:0005a5e0       ?ReadKeyValueFloat@CChunkFile@@SA_NPBDAAM@Z 101af5e0 f   chunkfile.obj
 0002:0005a640       ?ReadKeyValueInt@CChunkFile@@SA_NPBDAAH@Z 101af640 f   chunkfile.obj
 0002:0005a6a0       ?ReadKeyValueColor@CChunkFile@@SA_NPBDAAE11@Z 101af6a0 f   chunkfile.obj
 0002:0005a790       ?ReadKeyValuePoint@CChunkFile@@SA_NPBDAAVVector@@@Z 101af790 f   chunkfile.obj
 0002:0005a820       ?ReadKeyValueVector2@CChunkFile@@SA_NPBDAAVVector2D@@@Z 101af820 f   chunkfile.obj
 0002:0005a8a0       ?ReadKeyValueVector3@CChunkFile@@SA_NPBDAAVVector@@@Z 101af8a0 f   chunkfile.obj
 0002:0005a930       ?ReadKeyValueVector4@CChunkFile@@SA_NPBDAAVVector4D@@@Z 101af930 f   chunkfile.obj
 0002:0005a9e0       ??AVector4D@@QAEAAMH@Z     101af9e0 f i chunkfile.obj
 0002:0005ab20       ?WriteKeyValue@CChunkFile@@QAE?AW4ChunkFileResult_t@@PBD0@Z 101afb20 f   chunkfile.obj
 0002:0005abf0       ?WriteKeyValueBool@CChunkFile@@QAE?AW4ChunkFileResult_t@@PBD_N@Z 101afbf0 f   chunkfile.obj
 0002:0005acc0       ?WriteKeyValueInt@CChunkFile@@QAE?AW4ChunkFileResult_t@@PBDH@Z 101afcc0 f   chunkfile.obj
 0002:0005ad90       ?WriteKeyValueFloat@CChunkFile@@QAE?AW4ChunkFileResult_t@@PBDM@Z 101afd90 f   chunkfile.obj
 0002:0005ae70       ?WriteKeyValueColor@CChunkFile@@QAE?AW4ChunkFileResult_t@@PBDEEE@Z 101afe70 f   chunkfile.obj
 0002:0005af50       ?WriteKeyValuePoint@CChunkFile@@QAE?AW4ChunkFileResult_t@@PBDABVVector@@@Z 101aff50 f   chunkfile.obj
 0002:0005b050       ??AVector@@QBEMH@Z         101b0050 f i chunkfile.obj
 0002:0005b190       ?WriteKeyValueVector2@CChunkFile@@QAE?AW4ChunkFileResult_t@@PBDABVVector2D@@@Z 101b0190 f   chunkfile.obj
 0002:0005b290       ?WriteKeyValueVector3@CChunkFile@@QAE?AW4ChunkFileResult_t@@PBDABVVector@@@Z 101b0290 f   chunkfile.obj
 0002:0005b3a0       ?WriteKeyValueVector4@CChunkFile@@QAE?AW4ChunkFileResult_t@@PBDABVVector4D@@@Z 101b03a0 f   chunkfile.obj
 0002:0005b4c0       ?WriteLine@CChunkFile@@QAE?AW4ChunkFileResult_t@@PBD@Z 101b04c0 f   chunkfile.obj
 0002:0005b600       _malloc                    101b0600 f   memoverride.obj
 0002:0005b650       ?AllocUnattributed@@YAPAXI@Z 101b0650 f i memoverride.obj
 0002:0005b6a0       ?MemAlloc_Alloc@@YAPAXI@Z  101b06a0 f i memoverride.obj
 0002:0005b700       ?IndirectAlloc@IMemAlloc@@QAEPAXI@Z 101b0700 f i memoverride.obj
 0002:0005b770       _free                      101b0770 f   memoverride.obj
 0002:0005b7e0       _realloc                   101b07e0 f   memoverride.obj
 0002:0005b840       ?ReallocUnattributed@@YAPAXPAXI@Z 101b0840 f i memoverride.obj
 0002:0005b8b0       _calloc                    101b08b0 f   memoverride.obj
 0002:0005b930       __malloc_base              101b0930 f   memoverride.obj
 0002:0005b980       __calloc_base              101b0980 f   memoverride.obj
 0002:0005b9f0       __realloc_base             101b09f0 f   memoverride.obj
 0002:0005ba50       __recalloc_base            101b0a50 f   memoverride.obj
 0002:0005bac0       __free_base                101b0ac0 f   memoverride.obj
 0002:0005bb30       __expand_base              101b0b30 f   memoverride.obj
 0002:0005bc50       __malloc_crt               101b0c50 f   memoverride.obj
 0002:0005bca0       __calloc_crt               101b0ca0 f   memoverride.obj
 0002:0005bd00       __realloc_crt              101b0d00 f   memoverride.obj
 0002:0005bd60       __recalloc_crt             101b0d60 f   memoverride.obj
 0002:0005bdc0       __recalloc                 101b0dc0 f   memoverride.obj
 0002:0005be40       __msize_base               101b0e40 f   memoverride.obj
 0002:0005beb0       __msize                    101b0eb0 f   memoverride.obj
 0002:0005bf00       _msize                     101b0f00 f   memoverride.obj
 0002:0005bf70       __heap_alloc               101b0f70 f   memoverride.obj
 0002:0005bfc0       __nh_malloc                101b0fc0 f   memoverride.obj
 0002:0005c010       __expand                   101b1010 f   memoverride.obj
 0002:0005c130       __get_sbh_threshold        101b1130 f   memoverride.obj
 0002:0005c160       __set_sbh_threshold        101b1160 f   memoverride.obj
 0002:0005c190       __heapchk                  101b1190 f   memoverride.obj
 0002:0005c200       __heapmin                  101b1200 f   memoverride.obj
 0002:0005c240       __heapadd                  101b1240 f   memoverride.obj
 0002:0005c270       __heapset                  101b1270 f   memoverride.obj
 0002:0005c2a0       __heapused                 101b12a0 f   memoverride.obj
 0002:0005c2d0       __heapwalk                 101b12d0 f   memoverride.obj
 0002:0005c300       _malloc_db                 101b1300 f   memoverride.obj
 0002:0005c360       _free_db                   101b1360 f   memoverride.obj
 0002:0005c3e0       _realloc_db                101b13e0 f   memoverride.obj
 0002:0005c460       __heap_init                101b1460 f   memoverride.obj
 0002:0005c4b0       __heap_term                101b14b0 f   memoverride.obj
 0002:0005c4e0       ??2@YAPAXI@Z               101b14e0 f   memoverride.obj
 0002:0005c530       ??2@YAPAXIHPBDH@Z          101b1530 f   memoverride.obj
 0002:0005c590       ??3@YAXPAX@Z               101b1590 f   memoverride.obj
 0002:0005c600       ??_U@YAPAXI@Z              101b1600 f   memoverride.obj
 0002:0005c650       ??_U@YAPAXIHPBDH@Z         101b1650 f   memoverride.obj
 0002:0005c6b0       ??_V@YAXPAX@Z              101b16b0 f   memoverride.obj
 0002:0005c720       __nh_malloc_dbg            101b1720 f   memoverride.obj
 0002:0005c7e0       ??0CAttibCRT@@QAE@H@Z      101b17e0 f i memoverride.obj
 0002:0005c880       ??1CAttibCRT@@QAE@XZ       101b1880 f i memoverride.obj
 0002:0005c900       __malloc_dbg               101b1900 f   memoverride.obj
 0002:0005c9c0       __calloc_dbg               101b19c0 f   memoverride.obj
 0002:0005cab0       __realloc_dbg              101b1ab0 f   memoverride.obj
 0002:0005cb90       __expand_dbg               101b1b90 f   memoverride.obj
 0002:0005ccb0       __free_dbg                 101b1cb0 f   memoverride.obj
 0002:0005cd70       __msize_dbg                101b1d70 f   memoverride.obj
 0002:0005cdc0       __aligned_malloc_base      101b1dc0 f   memoverride.obj
 0002:0005ce20       ?MemAlloc_AllocAlignedUnattributed@@YAPAXII@Z 101b1e20 f i memoverride.obj
 0002:0005cf00       ?ValueIsPowerOfTwo@@YA_NI@Z 101b1f00 f i memoverride.obj
 0002:0005cf50       __aligned_realloc_base     101b1f50 f   memoverride.obj
 0002:0005cfb0       ?MemAlloc_ReallocAligned@@YAPAXPAXII@Z 101b1fb0 f i memoverride.obj
 0002:0005d120       __aligned_recalloc_base    101b2120 f   memoverride.obj
 0002:0005d180       __aligned_free_base        101b2180 f   memoverride.obj
 0002:0005d1d0       ?MemAlloc_FreeAligned@@YAXPAX@Z 101b21d0 f i memoverride.obj
 0002:0005d270       __aligned_malloc           101b2270 f   memoverride.obj
 0002:0005d2d0       __aligned_realloc          101b22d0 f   memoverride.obj
 0002:0005d330       __aligned_recalloc         101b2330 f   memoverride.obj
 0002:0005d390       __aligned_free             101b2390 f   memoverride.obj
 0002:0005d3e0       __aligned_offset_malloc_base 101b23e0 f   memoverride.obj
 0002:0005d500       __aligned_offset_realloc_base 101b2500 f   memoverride.obj
 0002:0005d620       __aligned_offset_recalloc_base 101b2620 f   memoverride.obj
 0002:0005d740       __aligned_offset_malloc    101b2740 f   memoverride.obj
 0002:0005d7a0       __aligned_offset_realloc   101b27a0 f   memoverride.obj
 0002:0005d800       __aligned_offset_recalloc  101b2800 f   memoverride.obj
 0002:0005d870       __CrtDumpMemoryLeaks       101b2870 f   memoverride.obj
 0002:0005d8a0       __CrtSetDumpClient         101b28a0 f   memoverride.obj
 0002:0005d8d0       __CrtSetDbgFlag            101b28d0 f   memoverride.obj
 0002:0005d940       ___p__crtDbgFlag           101b2940 f   memoverride.obj
 0002:0005d980       ___p__crtBreakAlloc        101b2980 f   memoverride.obj
 0002:0005d9c0       __CrtSetDbgBlockType       101b29c0 f   memoverride.obj
 0002:0005da00       __CrtSetAllocHook          101b2a00 f   memoverride.obj
 0002:0005da50       __CrtSetBreakAlloc         101b2a50 f   memoverride.obj
 0002:0005dac0       __CrtIsValidHeapPointer    101b2ac0 f   memoverride.obj
 0002:0005db30       __CrtIsValidPointer        101b2b30 f   memoverride.obj
 0002:0005dbb0       __CrtCheckMemory           101b2bb0 f   memoverride.obj
 0002:0005dc20       __CrtIsMemoryBlock         101b2c20 f   memoverride.obj
 0002:0005dc70       __CrtMemDifference         101b2c70 f   memoverride.obj
 0002:0005dcc0       __CrtMemDumpStatistics     101b2cc0 f   memoverride.obj
 0002:0005dd00       __CrtMemCheckpoint         101b2d00 f   memoverride.obj
 0002:0005dd70       __CrtMemDumpAllObjectsSince 101b2d70 f   memoverride.obj
 0002:0005ddb0       __CrtDoForAllClientObjects 101b2db0 f   memoverride.obj
 0002:0005ddf0       __CrtSetReportMode         101b2df0 f   memoverride.obj
 0002:0005de60       __CrtSetReportFile         101b2e60 f   memoverride.obj
 0002:0005ded0       __CrtSetReportHook         101b2ed0 f   memoverride.obj
 0002:0005df40       __CrtDbgReport             101b2f40 f   memoverride.obj
 0002:0005dff0       ___crtMessageWindowW       101b2ff0 f   memoverride.obj
 0002:0005e110       __CrtDbgReportV            101b3110 f   memoverride.obj
 0002:0005e230       __CrtDbgReportW            101b3230 f   memoverride.obj
 0002:0005e350       __VCrtDbgReportA           101b3350 f   memoverride.obj
 0002:0005e470       __CrtSetReportHook2        101b3470 f   memoverride.obj
 0002:0005e4c0       __CrtSetCheckCount         101b34c0 f   memoverride.obj
 0002:0005e500       __CrtGetCheckCount         101b3500 f   memoverride.obj
 0002:0005e540       __aligned_offset_recalloc_dbg 101b3540 f   memoverride.obj
 0002:0005e690       __aligned_recalloc_dbg     101b3690 f   memoverride.obj
 0002:0005e700       __recalloc_dbg             101b3700 f   memoverride.obj
 0002:0005e770       __CrtGetReportHook         101b3770 f   memoverride.obj
 0002:0005e7a0       __CrtReportBlockType       101b37a0 f   memoverride.obj
 0002:0005e7d0       __heap_alloc_base          101b37d0 f   memoverride.obj
 0002:0005e8f0       __heap_alloc_dbg           101b38f0 f   memoverride.obj
 0002:0005e940       __free_nolock              101b3940 f   memoverride.obj
 0002:0005e990       __free_dbg_nolock          101b3990 f   memoverride.obj
 0002:0005e9e0       __CrtGetAllocHook          101b39e0 f   memoverride.obj
 0002:0005eb00       __CrtGetDumpClient         101b3b00 f   memoverride.obj
 0002:0005ec20       __aligned_malloc_dbg       101b3c20 f   memoverride.obj
 0002:0005ec80       __aligned_realloc_dbg      101b3c80 f   memoverride.obj
 0002:0005ece0       __aligned_offset_malloc_dbg 101b3ce0 f   memoverride.obj
 0002:0005ed40       __aligned_offset_realloc_dbg 101b3d40 f   memoverride.obj
 0002:0005eda0       __aligned_free_dbg         101b3da0 f   memoverride.obj
 0002:0005edf0       __CrtSetDebugFillThreshold 101b3df0 f   memoverride.obj
 0002:0005ef10       __strdup                   101b3f10 f   memoverride.obj
 0002:0005efa0       __wcsdup_dbg               101b3fa0 f   memoverride.obj
 0002:0005f0c0       __wcsdup                   101b40c0 f   memoverride.obj
 0002:0005f1e0       ??0TileCheck@@QAE@XZ       101b41e0 f   tile_check.obj
 0002:0005f260       ??_GTileCheck@@UAEPAXI@Z   101b4260 f i tile_check.obj
 0002:0005f260       ??_ETileCheck@@UAEPAXI@Z   101b4260 f i tile_check.obj
 0002:0005f2d0       ??1TileCheck@@UAE@XZ       101b42d0 f   tile_check.obj
 0002:0005f330       ?TileCheckError@TileCheck@@QAAXPBDZZ 101b4330 f   tile_check.obj
 0002:0005f420       ?ClearTileCheckErrors@TileCheck@@QAEXXZ 101b4420 f   tile_check.obj
 0002:0005f480       ?ShowTileCheckErrors@TileCheck@@QAE_NXZ 101b4480 f   tile_check.obj
 0002:0005f5e0       ?StartCheckingAllRoomTemplates@TileCheck@@QAEXXZ 101b45e0 f   tile_check.obj
 0002:0005f6f0       ?ContinueCheckingAllRoomTemplates@TileCheck@@QAE_NXZ 101b46f0 f   tile_check.obj
 0002:0005f890       ?CheckTemplate@TileCheck@@QAEXPAVCRoomTemplate@@@Z 101b4890 f   tile_check.obj
 0002:0005fc00       ?GetFullName@CRoomTemplate@@QBEPBDXZ 101b4c00 f i tile_check.obj
 0002:0005fc40       ?CountAINodes@TileCheck@@QAEHPAVKeyValues@@@Z 101b4c40 f   tile_check.obj
 0002:0005fd30       ?CountNonFuncDetailBrushes@TileCheck@@QAEHPAVKeyValues@@@Z 101b4d30 f   tile_check.obj
 0002:0005fe20       ?CountDirectors@TileCheck@@QAEHPAVKeyValues@@@Z 101b4e20 f   tile_check.obj
 0002:0005ff00       ??0CTile_Check_Frame@@QAE@PAVPanel@vgui@@PBD@Z 101b4f00 f   tile_check.obj
 0002:000602b0       ?scheme@vgui@@YAPAVISchemeManager@1@XZ 101b52b0 f i tile_check.obj
 0002:000602f0       ?ivgui@vgui@@YAPAVIVGui@1@XZ 101b52f0 f i tile_check.obj
 0002:00060330       ?GetUnpackStructure@Panel@vgui@@UBEPBUDmxElementUnpackStructure_t@@XZ 101b5330 f i tile_check.obj
 0002:00060370       ?GetVPanel@Panel@vgui@@UAEIXZ 101b5370 f i tile_check.obj
 0002:000603b0       ?LookupElementBounds@Panel@vgui@@UAE_NPBDAAH111@Z 101b53b0 f i tile_check.obj
 0002:000603f0       ?IsProportional@Panel@vgui@@UAE_NXZ 101b53f0 f i tile_check.obj
 0002:00060450       ?GetDragFailCursor@Panel@vgui@@UAEKAAV?$CUtlVector@PAVKeyValues@@V?$CUtlMemory@PAVKeyValues@@H@@@@@Z 101b5450 f i tile_check.obj
 0002:00060490       ?GetPanel@Panel@vgui@@EAEPAV12@XZ 101b5490 f i tile_check.obj
 0002:000604d0       ?OnGripPanelMoveFinished@Frame@vgui@@UAEXXZ 101b54d0 f i tile_check.obj
 0002:00060510       ??0CTile_Check_Frame_RegisterMap@CTile_Check_Frame@@QAE@XZ 101b5510 f i tile_check.obj
 0002:00060560       ?ChainToMap@CTile_Check_Frame@@SAXXZ 101b5560 f i tile_check.obj
 0002:00060620       ?GetMessageMap@CTile_Check_Frame@@UAEPAUPanelMessageMap@vgui@@XZ 101b5620 f i tile_check.obj
 0002:000606a0       ??0CTile_Check_Frame_Register@CTile_Check_Frame@@QAE@XZ 101b56a0 f i tile_check.obj
 0002:000606f0       ?ChainToAnimationMap@CTile_Check_Frame@@SAXXZ 101b56f0 f i tile_check.obj
 0002:000607b0       ?GetAnimMap@CTile_Check_Frame@@UAEPAUPanelAnimationMap@@XZ 101b57b0 f i tile_check.obj
 0002:00060810       ??0CTile_Check_Frame_RegisterKBMap@CTile_Check_Frame@@QAE@XZ 101b5810 f i tile_check.obj
 0002:00060860       ?KB_ChainToMap@CTile_Check_Frame@@SAXXZ 101b5860 f i tile_check.obj
 0002:00060920       ?GetKBMap@CTile_Check_Frame@@UAEPAUPanelKeyBindingMap@vgui@@XZ 101b5920 f i tile_check.obj
 0002:000609a0       ?GetPanelClassName@CTile_Check_Frame@@SAPBDXZ 101b59a0 f i tile_check.obj
 0002:000609e0       ?GetPanelBaseClassName@CTile_Check_Frame@@SAPBDXZ 101b59e0 f i tile_check.obj
 0002:00060a20       ??_ECTile_Check_Frame@@UAEPAXI@Z 101b5a20 f i tile_check.obj
 0002:00060a20       ??_GCTile_Check_Frame@@UAEPAXI@Z 101b5a20 f i tile_check.obj
 0002:00060a90       ??1CTile_Check_Frame@@UAE@XZ 101b5a90 f   tile_check.obj
 0002:00060b60       ?OnClose@CTile_Check_Frame@@MAEXXZ 101b5b60 f   tile_check.obj
 0002:00060bb0       ?OnCommand@CTile_Check_Frame@@MAEXPBD@Z 101b5bb0 f   tile_check.obj
 0002:00060c10       ?PerformLayout@CTile_Check_Frame@@UAEXXZ 101b5c10 f   tile_check.obj
 0002:00060c60       ?ApplySchemeSettings@CTile_Check_Frame@@UAEXPAVIScheme@vgui@@@Z 101b5c60 f   tile_check.obj
 0002:00060cc0       ?OnTick@CTile_Check_Frame@@UAEXXZ 101b5cc0 f   tile_check.obj
 0002:00060e00       ?GetProgress@TileCheck@@QAEMXZ 101b5e00 f i tile_check.obj
 0002:00060e50       ?IsFlagSet@?$CUtlFlags@G@@QBE_NH@Z 101b5e50 f i tile_check.obj
 0002:00060f70       ??0?$CUtlVector@PBDV?$CUtlMemory@PBDH@@@@QAE@HH@Z 101b5f70 f i tile_check.obj
 0002:00060ff0       ??1?$CUtlVector@PBDV?$CUtlMemory@PBDH@@@@QAE@XZ 101b5ff0 f i tile_check.obj
 0002:00061050       ??A?$CUtlVector@PBDV?$CUtlMemory@PBDH@@@@QAEAAPBDH@Z 101b6050 f i tile_check.obj
 0002:00061180       ?Count@?$CUtlVector@PBDV?$CUtlMemory@PBDH@@@@QBEHXZ 101b6180 f i tile_check.obj
 0002:000611c0       ?AddToTail@?$CUtlVector@PBDV?$CUtlMemory@PBDH@@@@QAEHABQBD@Z 101b61c0 f i tile_check.obj
 0002:00061330       ?PurgeAndDeleteElements@?$CUtlVector@PBDV?$CUtlMemory@PBDH@@@@QAEXXZ 101b6330 f i tile_check.obj
 0002:000613e0       ??A?$CUtlVector@PAVCRoomTemplateExit@@V?$CUtlMemory@PAVCRoomTemplateExit@@H@@@@QAEAAPAVCRoomTemplateExit@@H@Z 101b63e0 f i tile_check.obj
 0002:00061510       ?Count@?$CUtlVector@PAVCRoomTemplateExit@@V?$CUtlMemory@PAVCRoomTemplateExit@@H@@@@QBEHXZ 101b6510 f i tile_check.obj
 0002:00061550       ??A?$CUtlVector@PAVCRoomTemplate@@V?$CUtlMemory@PAVCRoomTemplate@@H@@@@QAEAAPAVCRoomTemplate@@H@Z 101b6550 f i tile_check.obj
 0002:00061680       ?Count@?$CUtlVector@PAVCRoomTemplate@@V?$CUtlMemory@PAVCRoomTemplate@@H@@@@QBEHXZ 101b6680 f i tile_check.obj
 0002:000616c0       ??A?$CUtlVector@PAVCLevelTheme@@V?$CUtlMemory@PAVCLevelTheme@@H@@@@QAEAAPAVCLevelTheme@@H@Z 101b66c0 f i tile_check.obj
 0002:000617f0       ?Count@?$CUtlVector@PAVCLevelTheme@@V?$CUtlMemory@PAVCLevelTheme@@H@@@@QBEHXZ 101b67f0 f i tile_check.obj
 0002:00061830       ?Base@?$CUtlVector@PBDV?$CUtlMemory@PBDH@@@@QAEPAPBDXZ 101b6830 f i tile_check.obj
 0002:00061880       ?ResetDbgInfo@?$CUtlVector@PBDV?$CUtlMemory@PBDH@@@@IAEXXZ 101b6880 f i tile_check.obj
 0002:000618e0       ?Element@?$CUtlVector@PBDV?$CUtlMemory@PBDH@@@@QAEAAPBDH@Z 101b68e0 f i tile_check.obj
 0002:00061a10       ?InsertBefore@?$CUtlVector@PBDV?$CUtlMemory@PBDH@@@@QAEHHABQBD@Z 101b6a10 f i tile_check.obj
 0002:00061c90       ?Purge@?$CUtlVector@PBDV?$CUtlMemory@PBDH@@@@QAEXXZ 101b6c90 f i tile_check.obj
 0002:00061d00       ??0?$CUtlMemory@PBDH@@QAE@HH@Z 101b6d00 f i tile_check.obj
 0002:00061ef0       ??1?$CUtlMemory@PBDH@@QAE@XZ 101b6ef0 f i tile_check.obj
 0002:00061f40       ??A?$CUtlMemory@PBDH@@QAEAAPBDH@Z 101b6f40 f i tile_check.obj
 0002:00062140       ?Base@?$CUtlMemory@PBDH@@QAEPAPBDXZ 101b7140 f i tile_check.obj
 0002:00062260       ??A?$CUtlMemory@PAVCRoomTemplateExit@@H@@QAEAAPAVCRoomTemplateExit@@H@Z 101b7260 f i tile_check.obj
 0002:00062460       ??A?$CUtlMemory@PAVCRoomTemplate@@H@@QAEAAPAVCRoomTemplate@@H@Z 101b7460 f i tile_check.obj
 0002:00062660       ??A?$CUtlMemory@PAVCLevelTheme@@H@@QAEAAPAVCLevelTheme@@H@Z 101b7660 f i tile_check.obj
 0002:00062860       ?ValidateGrowSize@?$CUtlMemory@PBDH@@IAEXXZ 101b7860 f i tile_check.obj
 0002:000628a0       ?IsValidIndex@?$CUtlVector@PBDV?$CUtlMemory@PBDH@@@@QBE_NH@Z 101b78a0 f i tile_check.obj
 0002:00062910       ?RemoveAll@?$CUtlVector@PBDV?$CUtlMemory@PBDH@@@@QAEXXZ 101b7910 f i tile_check.obj
 0002:000629a0       ?GrowVector@?$CUtlVector@PBDV?$CUtlMemory@PBDH@@@@IAEXH@Z 101b79a0 f i tile_check.obj
 0002:00062ac0       ?ShiftElementsRight@?$CUtlVector@PBDV?$CUtlMemory@PBDH@@@@IAEXHH@Z 101b7ac0 f i tile_check.obj
 0002:00062c60       ?IsIdxValid@?$CUtlMemory@PBDH@@QBE_NH@Z 101b7c60 f i tile_check.obj
 0002:00062ce0       ?Purge@?$CUtlMemory@PBDH@@QAEXXZ 101b7ce0 f i tile_check.obj
 0002:00062d90       ?IsReadOnly@?$CUtlMemory@PBDH@@QBE_NXZ 101b7d90 f i tile_check.obj
 0002:00062de0       ??$CopyConstruct@PBD@@YAPAPBDPAPBDABQBD@Z 101b7de0 f i tile_check.obj
 0002:00062e80       ??$MemAllocClassName@V?$CUtlMemory@PBDH@@@@YAPBDPAV?$CUtlMemory@PBDH@@@Z 101b7e80 f i tile_check.obj
 0002:00062f00       ?IsIdxValid@?$CUtlMemory@PAVCRoomTemplateExit@@H@@QBE_NH@Z 101b7f00 f i tile_check.obj
 0002:00062f80       ?IsReadOnly@?$CUtlMemory@PAVCRoomTemplateExit@@H@@QBE_NXZ 101b7f80 f i tile_check.obj
 0002:00062fd0       ?IsIdxValid@?$CUtlMemory@PAVCRoomTemplate@@H@@QBE_NH@Z 101b7fd0 f i tile_check.obj
 0002:00063050       ?IsReadOnly@?$CUtlMemory@PAVCRoomTemplate@@H@@QBE_NXZ 101b8050 f i tile_check.obj
 0002:000630a0       ?IsIdxValid@?$CUtlMemory@PAVCLevelTheme@@H@@QBE_NH@Z 101b80a0 f i tile_check.obj
 0002:00063120       ?IsReadOnly@?$CUtlMemory@PAVCLevelTheme@@H@@QBE_NXZ 101b8120 f i tile_check.obj
 0002:00063170       ??$Destruct@PBD@@YAXPAPBD@Z 101b8170 f i tile_check.obj
 0002:000631d0       ?NumAllocated@?$CUtlMemory@PBDH@@QBEHXZ 101b81d0 f i tile_check.obj
 0002:00063210       ?Grow@?$CUtlMemory@PBDH@@QAEXH@Z 101b8210 f i tile_check.obj
 0002:00063880       ?IsExternallyAllocated@?$CUtlMemory@PBDH@@QBE_NXZ 101b8880 f i tile_check.obj
 0002:000638d0       ??$MemAllocClassName@V?$CUtlVector@PBDV?$CUtlMemory@PBDH@@@@@@YAPBDPAV?$CUtlVector@PBDV?$CUtlMemory@PBDH@@@@@Z 101b88d0 f i tile_check.obj
 0002:00063950       ??0VMFExporter@@QAE@XZ     101b8950 f   VMFExporter.obj
 0002:00063a50       ??_GVMFExporter@@UAEPAXI@Z 101b8a50 f i VMFExporter.obj
 0002:00063a50       ??_EVMFExporter@@UAEPAXI@Z 101b8a50 f i VMFExporter.obj
 0002:00063ac0       ??1VMFExporter@@UAE@XZ     101b8ac0 f   VMFExporter.obj
 0002:00063b70       ?Init@VMFExporter@@QAEXXZ  101b8b70 f   VMFExporter.obj
 0002:00063cb0       ?ExportError@VMFExporter@@QAAXPBDZZ 101b8cb0 f   VMFExporter.obj
 0002:00063da0       ?ClearExportErrors@VMFExporter@@QAEXXZ 101b8da0 f   VMFExporter.obj
 0002:00063e00       ?ShowExportErrors@VMFExporter@@QAE_NXZ 101b8e00 f   VMFExporter.obj
 0002:00063f50       ?ExportVMF@VMFExporter@@QAE_NPAVCMapLayout@@PBD_N@Z 101b8f50 f   VMFExporter.obj
 0002:000648e0       ?AddRoomTemplateSolids@VMFExporter@@QAE_NPBVCRoomTemplate@@@Z 101b98e0 f   VMFExporter.obj
 0002:00064ce0       ?AddRoomTemplateEntities@VMFExporter@@QAE_NPBVCRoomTemplate@@@Z 101b9ce0 f   VMFExporter.obj
 0002:00064f80       ?IsDisplacementBrush@VMFExporter@@QAE_NPAVKeyValues@@@Z 101b9f80 f   VMFExporter.obj
 0002:00065030       ?ProcessWorld@VMFExporter@@QAE_NPAVKeyValues@@@Z 101ba030 f   VMFExporter.obj
 0002:000650e0       ?ProcessSolid@VMFExporter@@QAE_NPAVKeyValues@@@Z 101ba0e0 f   VMFExporter.obj
 0002:000651f0       ?ProcessSide@VMFExporter@@QAE_NPAVKeyValues@@@Z 101ba1f0 f   VMFExporter.obj
 0002:000652c0       ?ProcessGenericRecursive@VMFExporter@@QAE_NPAVKeyValues@@@Z 101ba2c0 f   VMFExporter.obj
 0002:00065510       ??AVector@@QAEAAMH@Z       101ba510 f i VMFExporter.obj
 0002:00065650       ?ProcessSideKey@VMFExporter@@QAE_NPAVKeyValues@@@Z 101ba650 f   VMFExporter.obj
 0002:00065ef0       ?Dot@Vector@@QBEMABV1@@Z   101baef0 f i VMFExporter.obj
 0002:00065f50       ?DotProduct@@YAMABVVector@@0@Z 101baf50 f i VMFExporter.obj
 0002:00065fb0       ?ProcessEntity@VMFExporter@@QAE_NPAVKeyValues@@@Z 101bafb0 f   VMFExporter.obj
 0002:00066140       ?ProcessEntityKey@VMFExporter@@QAE_NPAVKeyValues@@@Z 101bb140 f   VMFExporter.obj
 0002:000668e0       ?ProcessConnections@VMFExporter@@QAE_NPAVKeyValues@@@Z 101bb8e0 f   VMFExporter.obj
 0002:00066970       ?ProcessConnectionsKey@VMFExporter@@QAE_NPAVKeyValues@@@Z 101bb970 f   VMFExporter.obj
 0002:00066a90       ?ReorderObjectives@VMFExporter@@QAEXPBVCRoomTemplate@@PAVKeyValues@@@Z 101bba90 f   VMFExporter.obj
 0002:00066bd0       ?MakeNodeIDsUnique@VMFExporter@@QAEHXZ 101bbbd0 f   VMFExporter.obj
 0002:00066e00       ?GetCurrentRoomOffset@VMFExporter@@QAEABVVector@@XZ 101bbe00 f   VMFExporter.obj
 0002:00066f40       ?LoadUniqueKeyList@VMFExporter@@QAEXXZ 101bbf40 f   VMFExporter.obj
 0002:000671d0       ?AddRoomInstance@VMFExporter@@QAEXPBVCRoomTemplate@@H@Z 101bc1d0 f   VMFExporter.obj
 0002:000674f0       ?GetVersionInfo@VMFExporter@@QAEPAVKeyValues@@XZ 101bc4f0 f   VMFExporter.obj
 0002:00067610       ?SetBool@KeyValues@@QAEXPBD_N@Z 101bc610 f i VMFExporter.obj
 0002:00067680       ?GetDefaultVisGroups@VMFExporter@@QAEPAVKeyValues@@XZ 101bc680 f   VMFExporter.obj
 0002:00067740       ?GetViewSettings@VMFExporter@@QAEPAVKeyValues@@XZ 101bc740 f   VMFExporter.obj
 0002:00067860       ?GetDefaultCamera@VMFExporter@@QAEPAVKeyValues@@XZ 101bc860 f   VMFExporter.obj
 0002:000679d0       ?GetPlayerStarts@VMFExporter@@QAEPAVKeyValues@@XZ 101bc9d0 f   VMFExporter.obj
 0002:00067c20       ?GetGameRulesProxy@VMFExporter@@QAEPAVKeyValues@@XZ 101bcc20 f   VMFExporter.obj
 0002:00067e70       ?GetDefaultWorldChunk@VMFExporter@@QAEPAVKeyValues@@XZ 101bce70 f   VMFExporter.obj
 0002:00067fd0       ?AddLevelContainer@VMFExporter@@QAE_NXZ 101bcfd0 f   VMFExporter.obj
 0002:00068370       ??0?$CUtlVector@VCUtlString@@V?$CUtlMemory@VCUtlString@@H@@@@QAE@HH@Z 101bd370 f i VMFExporter.obj
 0002:000683f0       ??1?$CUtlVector@VCUtlString@@V?$CUtlMemory@VCUtlString@@H@@@@QAE@XZ 101bd3f0 f i VMFExporter.obj
 0002:00068450       ??A?$CUtlVector@VCUtlString@@V?$CUtlMemory@VCUtlString@@H@@@@QAEAAVCUtlString@@H@Z 101bd450 f i VMFExporter.obj
 0002:00068580       ?Count@?$CUtlVector@VCUtlString@@V?$CUtlMemory@VCUtlString@@H@@@@QBEHXZ 101bd580 f i VMFExporter.obj
 0002:000685c0       ?AddToTail@?$CUtlVector@VCUtlString@@V?$CUtlMemory@VCUtlString@@H@@@@QAEHABVCUtlString@@@Z 101bd5c0 f i VMFExporter.obj
 0002:00068730       ?RemoveAll@?$CUtlVector@VCUtlString@@V?$CUtlMemory@VCUtlString@@H@@@@QAEXXZ 101bd730 f i VMFExporter.obj
 0002:000687c0       ??0?$CUtlVector@PAUSideTranslation_t@VMFExporter@@V?$CUtlMemory@PAUSideTranslation_t@VMFExporter@@H@@@@QAE@HH@Z 101bd7c0 f i VMFExporter.obj
 0002:00068840       ??1?$CUtlVector@PAUSideTranslation_t@VMFExporter@@V?$CUtlMemory@PAUSideTranslation_t@VMFExporter@@H@@@@QAE@XZ 101bd840 f i VMFExporter.obj
 0002:000688a0       ??A?$CUtlVector@PAUSideTranslation_t@VMFExporter@@V?$CUtlMemory@PAUSideTranslation_t@VMFExporter@@H@@@@QAEAAPAUSideTranslation_t@VMFExporter@@H@Z 101bd8a0 f i VMFExporter.obj
 0002:000689d0       ?Count@?$CUtlVector@PAUSideTranslation_t@VMFExporter@@V?$CUtlMemory@PAUSideTranslation_t@VMFExporter@@H@@@@QBEHXZ 101bd9d0 f i VMFExporter.obj
 0002:00068a10       ?AddToTail@?$CUtlVector@PAUSideTranslation_t@VMFExporter@@V?$CUtlMemory@PAUSideTranslation_t@VMFExporter@@H@@@@QAEHABQAUSideTranslation_t@VMFExporter@@@Z 101bda10 f i VMFExporter.obj
 0002:00068b80       ?Purge@?$CUtlVector@PAUSideTranslation_t@VMFExporter@@V?$CUtlMemory@PAUSideTranslation_t@VMFExporter@@H@@@@QAEXXZ 101bdb80 f i VMFExporter.obj
 0002:00068bf0       ?PurgeAndDeleteElements@?$CUtlVector@PAUSideTranslation_t@VMFExporter@@V?$CUtlMemory@PAUSideTranslation_t@VMFExporter@@H@@@@QAEXXZ 101bdbf0 f i VMFExporter.obj
 0002:00068ca0       ??0?$CUtlVector@PAUNodeTranslation_t@VMFExporter@@V?$CUtlMemory@PAUNodeTranslation_t@VMFExporter@@H@@@@QAE@HH@Z 101bdca0 f i VMFExporter.obj
 0002:00068d20       ??1?$CUtlVector@PAUNodeTranslation_t@VMFExporter@@V?$CUtlMemory@PAUNodeTranslation_t@VMFExporter@@H@@@@QAE@XZ 101bdd20 f i VMFExporter.obj
 0002:00068d80       ??A?$CUtlVector@PAUNodeTranslation_t@VMFExporter@@V?$CUtlMemory@PAUNodeTranslation_t@VMFExporter@@H@@@@QAEAAPAUNodeTranslation_t@VMFExporter@@H@Z 101bdd80 f i VMFExporter.obj
 0002:00068eb0       ?Count@?$CUtlVector@PAUNodeTranslation_t@VMFExporter@@V?$CUtlMemory@PAUNodeTranslation_t@VMFExporter@@H@@@@QBEHXZ 101bdeb0 f i VMFExporter.obj
 0002:00068ef0       ?AddToTail@?$CUtlVector@PAUNodeTranslation_t@VMFExporter@@V?$CUtlMemory@PAUNodeTranslation_t@VMFExporter@@H@@@@QAEHABQAUNodeTranslation_t@VMFExporter@@@Z 101bdef0 f i VMFExporter.obj
 0002:00069060       ?Purge@?$CUtlVector@PAUNodeTranslation_t@VMFExporter@@V?$CUtlMemory@PAUNodeTranslation_t@VMFExporter@@H@@@@QAEXXZ 101be060 f i VMFExporter.obj
 0002:000690d0       ?PurgeAndDeleteElements@?$CUtlVector@PAUNodeTranslation_t@VMFExporter@@V?$CUtlMemory@PAUNodeTranslation_t@VMFExporter@@H@@@@QAEXXZ 101be0d0 f i VMFExporter.obj
 0002:00069180       ?Base@?$CUtlVector@VCUtlString@@V?$CUtlMemory@VCUtlString@@H@@@@QAEPAVCUtlString@@XZ 101be180 f i VMFExporter.obj
 0002:000691d0       ?ResetDbgInfo@?$CUtlVector@VCUtlString@@V?$CUtlMemory@VCUtlString@@H@@@@IAEXXZ 101be1d0 f i VMFExporter.obj
 0002:00069230       ?Base@?$CUtlVector@PAUSideTranslation_t@VMFExporter@@V?$CUtlMemory@PAUSideTranslation_t@VMFExporter@@H@@@@QAEPAPAUSideTranslation_t@VMFExporter@@XZ 101be230 f i VMFExporter.obj
 0002:00069280       ?ResetDbgInfo@?$CUtlVector@PAUSideTranslation_t@VMFExporter@@V?$CUtlMemory@PAUSideTranslation_t@VMFExporter@@H@@@@IAEXXZ 101be280 f i VMFExporter.obj
 0002:000692e0       ?Base@?$CUtlVector@PAUNodeTranslation_t@VMFExporter@@V?$CUtlMemory@PAUNodeTranslation_t@VMFExporter@@H@@@@QAEPAPAUNodeTranslation_t@VMFExporter@@XZ 101be2e0 f i VMFExporter.obj
 0002:00069330       ?ResetDbgInfo@?$CUtlVector@PAUNodeTranslation_t@VMFExporter@@V?$CUtlMemory@PAUNodeTranslation_t@VMFExporter@@H@@@@IAEXXZ 101be330 f i VMFExporter.obj
 0002:00069390       ?Element@?$CUtlVector@VCUtlString@@V?$CUtlMemory@VCUtlString@@H@@@@QAEAAVCUtlString@@H@Z 101be390 f i VMFExporter.obj
 0002:000694c0       ?InsertBefore@?$CUtlVector@VCUtlString@@V?$CUtlMemory@VCUtlString@@H@@@@QAEHHABVCUtlString@@@Z 101be4c0 f i VMFExporter.obj
 0002:00069750       ?Purge@?$CUtlVector@VCUtlString@@V?$CUtlMemory@VCUtlString@@H@@@@QAEXXZ 101be750 f i VMFExporter.obj
 0002:000697c0       ??0?$CUtlMemory@VCUtlString@@H@@QAE@HH@Z 101be7c0 f i VMFExporter.obj
 0002:000699b0       ??1?$CUtlMemory@VCUtlString@@H@@QAE@XZ 101be9b0 f i VMFExporter.obj
 0002:00069a00       ??A?$CUtlMemory@VCUtlString@@H@@QAEAAVCUtlString@@H@Z 101bea00 f i VMFExporter.obj
 0002:00069c00       ?Base@?$CUtlMemory@VCUtlString@@H@@QAEPAVCUtlString@@XZ 101bec00 f i VMFExporter.obj
 0002:00069d20       ??$Destruct@VCUtlString@@@@YAXPAVCUtlString@@@Z 101bed20 f i VMFExporter.obj
 0002:00069d90       ?Element@?$CUtlVector@PAUSideTranslation_t@VMFExporter@@V?$CUtlMemory@PAUSideTranslation_t@VMFExporter@@H@@@@QAEAAPAUSideTranslation_t@VMFExporter@@H@Z 101bed90 f i VMFExporter.obj
 0002:00069ec0       ?InsertBefore@?$CUtlVector@PAUSideTranslation_t@VMFExporter@@V?$CUtlMemory@PAUSideTranslation_t@VMFExporter@@H@@@@QAEHHABQAUSideTranslation_t@VMFExporter@@@Z 101beec0 f i VMFExporter.obj
 0002:0006a140       ?RemoveAll@?$CUtlVector@PAUSideTranslation_t@VMFExporter@@V?$CUtlMemory@PAUSideTranslation_t@VMFExporter@@H@@@@QAEXXZ 101bf140 f i VMFExporter.obj
 0002:0006a1d0       ??0?$CUtlMemory@PAUSideTranslation_t@VMFExporter@@H@@QAE@HH@Z 101bf1d0 f i VMFExporter.obj
 0002:0006a3c0       ??1?$CUtlMemory@PAUSideTranslation_t@VMFExporter@@H@@QAE@XZ 101bf3c0 f i VMFExporter.obj
 0002:0006a410       ??A?$CUtlMemory@PAUSideTranslation_t@VMFExporter@@H@@QAEAAPAUSideTranslation_t@VMFExporter@@H@Z 101bf410 f i VMFExporter.obj
 0002:0006a610       ?Base@?$CUtlMemory@PAUSideTranslation_t@VMFExporter@@H@@QAEPAPAUSideTranslation_t@VMFExporter@@XZ 101bf610 f i VMFExporter.obj
 0002:0006a730       ?Purge@?$CUtlMemory@PAUSideTranslation_t@VMFExporter@@H@@QAEXXZ 101bf730 f i VMFExporter.obj
 0002:0006a7e0       ?Element@?$CUtlVector@PAUNodeTranslation_t@VMFExporter@@V?$CUtlMemory@PAUNodeTranslation_t@VMFExporter@@H@@@@QAEAAPAUNodeTranslation_t@VMFExporter@@H@Z 101bf7e0 f i VMFExporter.obj
 0002:0006a910       ?InsertBefore@?$CUtlVector@PAUNodeTranslation_t@VMFExporter@@V?$CUtlMemory@PAUNodeTranslation_t@VMFExporter@@H@@@@QAEHHABQAUNodeTranslation_t@VMFExporter@@@Z 101bf910 f i VMFExporter.obj
 0002:0006ab90       ?RemoveAll@?$CUtlVector@PAUNodeTranslation_t@VMFExporter@@V?$CUtlMemory@PAUNodeTranslation_t@VMFExporter@@H@@@@QAEXXZ 101bfb90 f i VMFExporter.obj
 0002:0006ac20       ??0?$CUtlMemory@PAUNodeTranslation_t@VMFExporter@@H@@QAE@HH@Z 101bfc20 f i VMFExporter.obj
 0002:0006ae10       ??1?$CUtlMemory@PAUNodeTranslation_t@VMFExporter@@H@@QAE@XZ 101bfe10 f i VMFExporter.obj
 0002:0006ae60       ??A?$CUtlMemory@PAUNodeTranslation_t@VMFExporter@@H@@QAEAAPAUNodeTranslation_t@VMFExporter@@H@Z 101bfe60 f i VMFExporter.obj
 0002:0006b060       ?Base@?$CUtlMemory@PAUNodeTranslation_t@VMFExporter@@H@@QAEPAPAUNodeTranslation_t@VMFExporter@@XZ 101c0060 f i VMFExporter.obj
 0002:0006b180       ?Purge@?$CUtlMemory@PAUNodeTranslation_t@VMFExporter@@H@@QAEXXZ 101c0180 f i VMFExporter.obj
 0002:0006b230       ??_GCUtlString@@QAEPAXI@Z  101c0230 f i VMFExporter.obj
 0002:0006b2a0       ?ValidateGrowSize@?$CUtlMemory@VCUtlString@@H@@IAEXXZ 101c02a0 f i VMFExporter.obj
 0002:0006b2e0       ?ValidateGrowSize@?$CUtlMemory@PAUSideTranslation_t@VMFExporter@@H@@IAEXXZ 101c02e0 f i VMFExporter.obj
 0002:0006b320       ?ValidateGrowSize@?$CUtlMemory@PAUNodeTranslation_t@VMFExporter@@H@@IAEXXZ 101c0320 f i VMFExporter.obj
 0002:0006b360       ?IsValidIndex@?$CUtlVector@VCUtlString@@V?$CUtlMemory@VCUtlString@@H@@@@QBE_NH@Z 101c0360 f i VMFExporter.obj
 0002:0006b3d0       ?GrowVector@?$CUtlVector@VCUtlString@@V?$CUtlMemory@VCUtlString@@H@@@@IAEXH@Z 101c03d0 f i VMFExporter.obj
 0002:0006b4f0       ?ShiftElementsRight@?$CUtlVector@VCUtlString@@V?$CUtlMemory@VCUtlString@@H@@@@IAEXHH@Z 101c04f0 f i VMFExporter.obj
 0002:0006b690       ?IsIdxValid@?$CUtlMemory@VCUtlString@@H@@QBE_NH@Z 101c0690 f i VMFExporter.obj
 0002:0006b710       ?Purge@?$CUtlMemory@VCUtlString@@H@@QAEXXZ 101c0710 f i VMFExporter.obj
 0002:0006b7c0       ?IsReadOnly@?$CUtlMemory@VCUtlString@@H@@QBE_NXZ 101c07c0 f i VMFExporter.obj
 0002:0006b810       ??$CopyConstruct@VCUtlString@@@@YAPAVCUtlString@@PAV0@ABV0@@Z 101c0810 f i VMFExporter.obj
 0002:0006b8b0       ??$MemAllocClassName@V?$CUtlMemory@VCUtlString@@H@@@@YAPBDPAV?$CUtlMemory@VCUtlString@@H@@@Z 101c08b0 f i VMFExporter.obj
 0002:0006b930       ?IsValidIndex@?$CUtlVector@PAUSideTranslation_t@VMFExporter@@V?$CUtlMemory@PAUSideTranslation_t@VMFExporter@@H@@@@QBE_NH@Z 101c0930 f i VMFExporter.obj
 0002:0006b9a0       ?GrowVector@?$CUtlVector@PAUSideTranslation_t@VMFExporter@@V?$CUtlMemory@PAUSideTranslation_t@VMFExporter@@H@@@@IAEXH@Z 101c09a0 f i VMFExporter.obj
 0002:0006bac0       ?ShiftElementsRight@?$CUtlVector@PAUSideTranslation_t@VMFExporter@@V?$CUtlMemory@PAUSideTranslation_t@VMFExporter@@H@@@@IAEXHH@Z 101c0ac0 f i VMFExporter.obj
 0002:0006bc60       ?IsIdxValid@?$CUtlMemory@PAUSideTranslation_t@VMFExporter@@H@@QBE_NH@Z 101c0c60 f i VMFExporter.obj
 0002:0006bce0       ?IsExternallyAllocated@?$CUtlMemory@PAUSideTranslation_t@VMFExporter@@H@@QBE_NXZ 101c0ce0 f i VMFExporter.obj
 0002:0006bd30       ?IsReadOnly@?$CUtlMemory@PAUSideTranslation_t@VMFExporter@@H@@QBE_NXZ 101c0d30 f i VMFExporter.obj
 0002:0006bd80       ??$CopyConstruct@PAUSideTranslation_t@VMFExporter@@@@YAPAPAUSideTranslation_t@VMFExporter@@PAPAU01@ABQAU01@@Z 101c0d80 f i VMFExporter.obj
 0002:0006be20       ??$Destruct@PAUSideTranslation_t@VMFExporter@@@@YAXPAPAUSideTranslation_t@VMFExporter@@@Z 101c0e20 f i VMFExporter.obj
 0002:0006be80       ??$MemAllocClassName@V?$CUtlMemory@PAUSideTranslation_t@VMFExporter@@H@@@@YAPBDPAV?$CUtlMemory@PAUSideTranslation_t@VMFExporter@@H@@@Z 101c0e80 f i VMFExporter.obj
 0002:0006bf00       ?IsValidIndex@?$CUtlVector@PAUNodeTranslation_t@VMFExporter@@V?$CUtlMemory@PAUNodeTranslation_t@VMFExporter@@H@@@@QBE_NH@Z 101c0f00 f i VMFExporter.obj
 0002:0006bf70       ?GrowVector@?$CUtlVector@PAUNodeTranslation_t@VMFExporter@@V?$CUtlMemory@PAUNodeTranslation_t@VMFExporter@@H@@@@IAEXH@Z 101c0f70 f i VMFExporter.obj
 0002:0006c090       ?ShiftElementsRight@?$CUtlVector@PAUNodeTranslation_t@VMFExporter@@V?$CUtlMemory@PAUNodeTranslation_t@VMFExporter@@H@@@@IAEXHH@Z 101c1090 f i VMFExporter.obj
 0002:0006c230       ?IsIdxValid@?$CUtlMemory@PAUNodeTranslation_t@VMFExporter@@H@@QBE_NH@Z 101c1230 f i VMFExporter.obj
 0002:0006c2b0       ?IsExternallyAllocated@?$CUtlMemory@PAUNodeTranslation_t@VMFExporter@@H@@QBE_NXZ 101c12b0 f i VMFExporter.obj
 0002:0006c300       ?IsReadOnly@?$CUtlMemory@PAUNodeTranslation_t@VMFExporter@@H@@QBE_NXZ 101c1300 f i VMFExporter.obj
 0002:0006c350       ??$CopyConstruct@PAUNodeTranslation_t@VMFExporter@@@@YAPAPAUNodeTranslation_t@VMFExporter@@PAPAU01@ABQAU01@@Z 101c1350 f i VMFExporter.obj
 0002:0006c3f0       ??$Destruct@PAUNodeTranslation_t@VMFExporter@@@@YAXPAPAUNodeTranslation_t@VMFExporter@@@Z 101c13f0 f i VMFExporter.obj
 0002:0006c450       ??$MemAllocClassName@V?$CUtlMemory@PAUNodeTranslation_t@VMFExporter@@H@@@@YAPBDPAV?$CUtlMemory@PAUNodeTranslation_t@VMFExporter@@H@@@Z 101c1450 f i VMFExporter.obj
 0002:0006c4d0       ?NumAllocated@?$CUtlMemory@VCUtlString@@H@@QBEHXZ 101c14d0 f i VMFExporter.obj
 0002:0006c510       ?Grow@?$CUtlMemory@VCUtlString@@H@@QAEXH@Z 101c1510 f i VMFExporter.obj
 0002:0006cb80       ?IsExternallyAllocated@?$CUtlMemory@VCUtlString@@H@@QBE_NXZ 101c1b80 f i VMFExporter.obj
 0002:0006cbd0       ??$MemAllocClassName@V?$CUtlVector@VCUtlString@@V?$CUtlMemory@VCUtlString@@H@@@@@@YAPBDPAV?$CUtlVector@VCUtlString@@V?$CUtlMemory@VCUtlString@@H@@@@@Z 101c1bd0 f i VMFExporter.obj
 0002:0006cc50       ?NumAllocated@?$CUtlMemory@PAUSideTranslation_t@VMFExporter@@H@@QBEHXZ 101c1c50 f i VMFExporter.obj
 0002:0006cc90       ?Grow@?$CUtlMemory@PAUSideTranslation_t@VMFExporter@@H@@QAEXH@Z 101c1c90 f i VMFExporter.obj
 0002:0006d300       ??$MemAllocClassName@V?$CUtlVector@PAUSideTranslation_t@VMFExporter@@V?$CUtlMemory@PAUSideTranslation_t@VMFExporter@@H@@@@@@YAPBDPAV?$CUtlVector@PAUSideTranslation_t@VMFExporter@@V?$CUtlMemory@PAUSideTranslation_t@VMFExporter@@H@@@@@Z 101c2300 f i VMFExporter.obj
 0002:0006d380       ?NumAllocated@?$CUtlMemory@PAUNodeTranslation_t@VMFExporter@@H@@QBEHXZ 101c2380 f i VMFExporter.obj
 0002:0006d3c0       ?Grow@?$CUtlMemory@PAUNodeTranslation_t@VMFExporter@@H@@QAEXH@Z 101c23c0 f i VMFExporter.obj
 0002:0006da30       ??$MemAllocClassName@V?$CUtlVector@PAUNodeTranslation_t@VMFExporter@@V?$CUtlMemory@PAUNodeTranslation_t@VMFExporter@@H@@@@@@YAPBDPAV?$CUtlVector@PAUNodeTranslation_t@VMFExporter@@V?$CUtlMemory@PAUNodeTranslation_t@VMFExporter@@H@@@@@Z 101c2a30 f i VMFExporter.obj
 0002:0006dab0       ?LoadLevelThemes@CLevelTheme@@SAXXZ 101c2ab0 f   LevelTheme.obj
 0002:0006dd70       ?SetCurrentTheme@CLevelTheme@@SAXPAV1@@Z 101c2d70 f   LevelTheme.obj
 0002:0006ddc0       ??0CLevelTheme@@QAE@PBD0_N@Z 101c2dc0 f   LevelTheme.obj
 0002:0006deb0       ??1CLevelTheme@@QAE@XZ     101c2eb0 f   LevelTheme.obj
 0002:0006df20       ??1?$CUtlSortVector@PAVCRoomTemplate@@VCRoomTemplateLessFunc@@@@QAE@XZ 101c2f20 f i LevelTheme.obj
 0002:0006df70       ?SaveTheme@CLevelTheme@@QAE_NPBD@Z 101c2f70 f   LevelTheme.obj
 0002:0006e230       ?LoadRoomTemplates@CLevelTheme@@QAEXXZ 101c3230 f   LevelTheme.obj
 0002:0006e300       ?LoadRoomTemplatesInFolder@CLevelTheme@@AAEXPBD@Z 101c3300 f   LevelTheme.obj
 0002:0006e7b0       ?FindTheme@CLevelTheme@@SAPAV1@PBD@Z 101c37b0 f   LevelTheme.obj
 0002:0006e880       ?Less@CRoomTemplateLessFunc@@QAE_NABQAVCRoomTemplate@@0PAX@Z 101c3880 f   LevelTheme.obj
 0002:0006e910       ?CaselessStringLessThan@@YA_NABQBD0@Z 101c3910 f i LevelTheme.obj
 0002:0006e980       ?FindRoom@CLevelTheme@@QAEPAVCRoomTemplate@@PBD@Z 101c3980 f   LevelTheme.obj
 0002:0006ead0       ?SplitThemeAndRoom@CLevelTheme@@SA_NPBDPADH1H@Z 101c3ad0 f   LevelTheme.obj
 0002:0006ec20       ??1?$CUtlVector@PAVCRoomTemplate@@V?$CUtlMemory@PAVCRoomTemplate@@H@@@@QAE@XZ 101c3c20 f i LevelTheme.obj
 0002:0006ec80       ?PurgeAndDeleteElements@?$CUtlVector@PAVCRoomTemplate@@V?$CUtlMemory@PAVCRoomTemplate@@H@@@@QAEXXZ 101c3c80 f i LevelTheme.obj
 0002:0006ed50       ??0?$CUtlSortVector@PAVCRoomTemplate@@VCRoomTemplateLessFunc@@@@QAE@HH@Z 101c3d50 f i LevelTheme.obj
 0002:0006edd0       ?Insert@?$CUtlSortVector@PAVCRoomTemplate@@VCRoomTemplateLessFunc@@@@QAEHABQAVCRoomTemplate@@@Z 101c3dd0 f i LevelTheme.obj
 0002:0006ef50       ?PurgeAndDeleteElements@?$CUtlVector@PAVCLevelTheme@@V?$CUtlMemory@PAVCLevelTheme@@H@@@@QAEXXZ 101c3f50 f i LevelTheme.obj
 0002:0006f020       ??_GCRoomTemplate@@QAEPAXI@Z 101c4020 f i LevelTheme.obj
 0002:0006f090       ??_GCLevelTheme@@QAEPAXI@Z 101c4090 f i LevelTheme.obj
 0002:0006f100       ??0?$CUtlVector@PAVCRoomTemplate@@V?$CUtlMemory@PAVCRoomTemplate@@H@@@@QAE@HH@Z 101c4100 f i LevelTheme.obj
 0002:0006f180       ?Element@?$CUtlVector@PAVCRoomTemplate@@V?$CUtlMemory@PAVCRoomTemplate@@H@@@@QAEAAPAVCRoomTemplate@@H@Z 101c4180 f i LevelTheme.obj
 0002:0006f2b0       ?Purge@?$CUtlVector@PAVCRoomTemplate@@V?$CUtlMemory@PAVCRoomTemplate@@H@@@@QAEXXZ 101c42b0 f i LevelTheme.obj
 0002:0006f320       ?GrowVector@?$CUtlVector@PAVCRoomTemplate@@V?$CUtlMemory@PAVCRoomTemplate@@H@@@@IAEXH@Z 101c4320 f i LevelTheme.obj
 0002:0006f440       ?ShiftElementsRight@?$CUtlVector@PAVCRoomTemplate@@V?$CUtlMemory@PAVCRoomTemplate@@H@@@@IAEXHH@Z 101c4440 f i LevelTheme.obj
 0002:0006f5e0       ??1?$CUtlMemory@PAVCRoomTemplate@@H@@QAE@XZ 101c45e0 f i LevelTheme.obj
 0002:0006f630       ?FindLessOrEqual@?$CUtlSortVector@PAVCRoomTemplate@@VCRoomTemplateLessFunc@@@@QBEHABQAVCRoomTemplate@@@Z 101c4630 f i LevelTheme.obj
 0002:0006f840       ??$CopyConstruct@PAVCRoomTemplate@@@@YAPAPAVCRoomTemplate@@PAPAV0@ABQAV0@@Z 101c4840 f i LevelTheme.obj
 0002:0006f8e0       ?Element@?$CUtlVector@PAVCLevelTheme@@V?$CUtlMemory@PAVCLevelTheme@@H@@@@QAEAAPAVCLevelTheme@@H@Z 101c48e0 f i LevelTheme.obj
 0002:0006fa10       ?Purge@?$CUtlVector@PAVCLevelTheme@@V?$CUtlMemory@PAVCLevelTheme@@H@@@@QAEXXZ 101c4a10 f i LevelTheme.obj
 0002:0006fa80       ?ResetDbgInfo@?$CUtlVector@PAVCLevelTheme@@V?$CUtlMemory@PAVCLevelTheme@@H@@@@IAEXXZ 101c4a80 f i LevelTheme.obj
 0002:0006fae0       ?Base@?$CUtlVector@PAVCLevelTheme@@V?$CUtlMemory@PAVCLevelTheme@@H@@@@QAEPAPAVCLevelTheme@@XZ 101c4ae0 f i LevelTheme.obj
 0002:0006fb30       ?Base@?$CUtlMemory@PAVCLevelTheme@@H@@QAEPAPAVCLevelTheme@@XZ 101c4b30 f i LevelTheme.obj
 0002:0006fc50       ?ResetDbgInfo@?$CUtlVector@PAVCRoomTemplate@@V?$CUtlMemory@PAVCRoomTemplate@@H@@@@IAEXXZ 101c4c50 f i LevelTheme.obj
 0002:0006fcb0       ?Base@?$CUtlVector@PAVCRoomTemplate@@V?$CUtlMemory@PAVCRoomTemplate@@H@@@@QAEPAPAVCRoomTemplate@@XZ 101c4cb0 f i LevelTheme.obj
 0002:0006fd00       ?Element@?$CUtlVector@PAVCRoomTemplate@@V?$CUtlMemory@PAVCRoomTemplate@@H@@@@QBEABQAVCRoomTemplate@@H@Z 101c4d00 f i LevelTheme.obj
 0002:0006fe30       ?IsValidIndex@?$CUtlVector@PAVCRoomTemplate@@V?$CUtlMemory@PAVCRoomTemplate@@H@@@@QBE_NH@Z 101c4e30 f i LevelTheme.obj
 0002:0006fea0       ?RemoveAll@?$CUtlVector@PAVCRoomTemplate@@V?$CUtlMemory@PAVCRoomTemplate@@H@@@@QAEXXZ 101c4ea0 f i LevelTheme.obj
 0002:0006ff30       ??0?$CUtlMemory@PAVCRoomTemplate@@H@@QAE@HH@Z 101c4f30 f i LevelTheme.obj
 0002:00070120       ?Base@?$CUtlMemory@PAVCRoomTemplate@@H@@QAEPAPAVCRoomTemplate@@XZ 101c5120 f i LevelTheme.obj
 0002:00070240       ?NumAllocated@?$CUtlMemory@PAVCRoomTemplate@@H@@QBEHXZ 101c5240 f i LevelTheme.obj
 0002:00070280       ?Grow@?$CUtlMemory@PAVCRoomTemplate@@H@@QAEXH@Z 101c5280 f i LevelTheme.obj
 0002:000708f0       ?Purge@?$CUtlMemory@PAVCRoomTemplate@@H@@QAEXXZ 101c58f0 f i LevelTheme.obj
 0002:000709a0       ??$MemAllocClassName@V?$CUtlVector@PAVCRoomTemplate@@V?$CUtlMemory@PAVCRoomTemplate@@H@@@@@@YAPBDPAV?$CUtlVector@PAVCRoomTemplate@@V?$CUtlMemory@PAVCRoomTemplate@@H@@@@@Z 101c59a0 f i LevelTheme.obj
 0002:00070a20       ?RemoveAll@?$CUtlVector@PAVCLevelTheme@@V?$CUtlMemory@PAVCLevelTheme@@H@@@@QAEXXZ 101c5a20 f i LevelTheme.obj
 0002:00070ab0       ?Purge@?$CUtlMemory@PAVCLevelTheme@@H@@QAEXXZ 101c5ab0 f i LevelTheme.obj
 0002:00070b60       ?ValidateGrowSize@?$CUtlMemory@PAVCRoomTemplate@@H@@IAEXXZ 101c5b60 f i LevelTheme.obj
 0002:00070ba0       ??A?$CUtlMemory@PAVCRoomTemplate@@H@@QBEABQAVCRoomTemplate@@H@Z 101c5ba0 f i LevelTheme.obj
 0002:00070cd0       ?IsExternallyAllocated@?$CUtlMemory@PAVCRoomTemplate@@H@@QBE_NXZ 101c5cd0 f i LevelTheme.obj
 0002:00070d20       ??$Destruct@PAVCRoomTemplate@@@@YAXPAPAVCRoomTemplate@@@Z 101c5d20 f i LevelTheme.obj
 0002:00070d80       ??$MemAllocClassName@V?$CUtlMemory@PAVCRoomTemplate@@H@@@@YAPBDPAV?$CUtlMemory@PAVCRoomTemplate@@H@@@Z 101c5d80 f i LevelTheme.obj
 0002:00070e00       ??$Destruct@PAVCLevelTheme@@@@YAXPAPAVCLevelTheme@@@Z 101c5e00 f i LevelTheme.obj
 0002:00070e60       ?IsExternallyAllocated@?$CUtlMemory@PAVCLevelTheme@@H@@QBE_NXZ 101c5e60 f i LevelTheme.obj
 0002:00070eb0       ??0?$CUtlVector@PAVCLevelTheme@@V?$CUtlMemory@PAVCLevelTheme@@H@@@@QAE@HH@Z 101c5eb0 f i LevelTheme.obj
 0002:00070f30       ??0?$CUtlMemory@PAVCLevelTheme@@H@@QAE@HH@Z 101c5f30 f i LevelTheme.obj
 0002:00071120       ?ValidateGrowSize@?$CUtlMemory@PAVCLevelTheme@@H@@IAEXXZ 101c6120 f i LevelTheme.obj
 0002:00071160       ??$MemAllocClassName@V?$CUtlMemory@PAVCLevelTheme@@H@@@@YAPBDPAV?$CUtlMemory@PAVCLevelTheme@@H@@@Z 101c6160 f i LevelTheme.obj
 0002:000711e0       ??1?$CUtlVector@PAVCLevelTheme@@V?$CUtlMemory@PAVCLevelTheme@@H@@@@QAE@XZ 101c61e0 f i LevelTheme.obj
 0002:00071240       ??1?$CUtlMemory@PAVCLevelTheme@@H@@QAE@XZ 101c6240 f i LevelTheme.obj
 0002:00071290       ??0CInstanceSpawn@@QAE@XZ  101c6290 f   MapLayout.obj
 0002:00071320       ?FixupValues@CInstanceSpawn@@QAEXPBD0@Z 101c6320 f   MapLayout.obj
 0002:00071470       ?LoadFromKeyValues@CInstanceSpawn@@QAE_NPAVKeyValues@@@Z 101c6470 f   MapLayout.obj
 0002:00071790       ?SaveToKeyValues@CInstanceSpawn@@QBEXPAVKeyValues@@@Z 101c6790 f   MapLayout.obj
 0002:000719d0       ??0CMapLayout@@QAE@PAVKeyValues@@@Z 101c69d0 f   MapLayout.obj
 0002:00071b20       ??_GCMapLayout@@UAEPAXI@Z  101c6b20 f i MapLayout.obj
 0002:00071b20       ??_ECMapLayout@@UAEPAXI@Z  101c6b20 f i MapLayout.obj
 0002:00071b90       ??1CMapLayout@@UAE@XZ      101c6b90 f   MapLayout.obj
 0002:00071c50       ?Clear@CMapLayout@@QAEXXZ  101c6c50 f   MapLayout.obj
 0002:00071e00       ?SetGenerationOptions@CMapLayout@@QAEXPAVKeyValues@@@Z 101c6e00 f   MapLayout.obj
 0002:00071e80       ?SaveMapLayout@CMapLayout@@QAE_NPBD@Z 101c6e80 f   MapLayout.obj
 0002:000724d0       ?LoadLogicalRoom@CMapLayout@@QAE_NPAVKeyValues@@@Z 101c74d0 f   MapLayout.obj
 0002:00072770       ?LoadMapLayout@CMapLayout@@QAE_NPBD@Z 101c7770 f   MapLayout.obj
 0002:00072b30       ?MarkEncounterRooms@CMapLayout@@QAEXXZ 101c7b30 f   MapLayout.obj
 0002:00072c10       ?SetHasAlienEncounter@CRoom@@QAEX_N@Z 101c7c10 f i MapLayout.obj
 0002:00072c60       ?SetCurrentFilename@CMapLayout@@QAEXPBD@Z 101c7c60 f   MapLayout.obj
 0002:00072cd0       ?GetRoom@CMapLayout@@QAEPAVCRoom@@ABVVector@@@Z 101c7cd0 f   MapLayout.obj
 0002:00072da0       ?GetRoom@CMapLayout@@QBEPAVCRoom@@HH@Z 101c7da0 f i MapLayout.obj
 0002:00072ef0       ?GetExtents@CMapLayout@@QAEXAAH000@Z 101c7ef0 f   MapLayout.obj
 0002:000730d0       ?SaveMiscMapProperties@CMapLayout@@QAE_NPAVCChunkFile@@@Z 101c80d0 f   MapLayout.obj
 0002:000731b0       ?RoomsOverlap@CMapLayout@@QBE_NHHHHHHHH@Z 101c81b0 f   MapLayout.obj
 0002:00073240       ?TemplateFits@CMapLayout@@QBE_NPBVCRoomTemplate@@HH_N@Z 101c8240 f   MapLayout.obj
 0002:00073390       ?CheckExits@CMapLayout@@QBE_NPBVCRoomTemplate@@HHPAV?$CUtlVector@PAVCRoomTemplateExit@@V?$CUtlMemory@PAVCRoomTemplateExit@@H@@@@@Z 101c8390 f   MapLayout.obj
 0002:00073640       ?CheckExitsOnSquares@CMapLayout@@QBE_NPBVCRoomTemplate@@HHW4ExitDirection_t@@HH_NPAV?$CUtlVector@PAVCRoomTemplateExit@@V?$CUtlMemory@PAVCRoomTemplateExit@@H@@@@@Z 101c8640 f   MapLayout.obj
 0002:00073ad0       ?PlaceRoom@CMapLayout@@QAEXPAVCRoom@@@Z 101c8ad0 f   MapLayout.obj
 0002:00073cb0       ?RemoveRoom@CMapLayout@@QAEXPAVCRoom@@@Z 101c8cb0 f   MapLayout.obj
 0002:00073dc0       ?AddLogicalRoom@CMapLayout@@QAEXPAVCRoomTemplate@@@Z 101c8dc0 f   MapLayout.obj
 0002:00073e30       ?AddSpawnDef@CASW_Encounter@@UAEXPAVCASW_Spawn_Definition@@@Z 101c8e30 f   MapLayout.obj
 0002:00073e90       ?LoadFromKeyValues@CASW_Encounter@@QAEXPAVKeyValues@@@Z 101c8e90 f   MapLayout.obj
 0002:00074070       ?SaveToKeyValues@CASW_Encounter@@QAEXPAVKeyValues@@@Z 101c9070 f   MapLayout.obj
 0002:00074220       ??0?$CCopyableUtlVector@UKeyValue_t@@@@QAE@HH@Z 101c9220 f i MapLayout.obj
 0002:00074290       ??_G?$CCopyableUtlVector@UKeyValue_t@@@@UAEPAXI@Z 101c9290 f i MapLayout.obj
 0002:00074290       ??_E?$CCopyableUtlVector@UKeyValue_t@@@@UAEPAXI@Z 101c9290 f i MapLayout.obj
 0002:00074300       ??1?$CCopyableUtlVector@UKeyValue_t@@@@UAE@XZ 101c9300 f i MapLayout.obj
 0002:00074360       ??A?$CUtlVector@PAVCRoomTemplateExit@@V?$CUtlMemory@PAVCRoomTemplateExit@@H@@@@QBEABQAVCRoomTemplateExit@@H@Z 101c9360 f i MapLayout.obj
 0002:00074490       ?AddToTail@?$CUtlVector@PAVCRoomTemplateExit@@V?$CUtlMemory@PAVCRoomTemplateExit@@H@@@@QAEHABQAVCRoomTemplateExit@@@Z 101c9490 f i MapLayout.obj
 0002:00074600       ??0?$CUtlVector@UKeyValue_t@@V?$CUtlMemory@UKeyValue_t@@H@@@@QAE@HH@Z 101c9600 f i MapLayout.obj
 0002:00074680       ??1?$CUtlVector@UKeyValue_t@@V?$CUtlMemory@UKeyValue_t@@H@@@@QAE@XZ 101c9680 f i MapLayout.obj
 0002:000746e0       ??A?$CUtlVector@UKeyValue_t@@V?$CUtlMemory@UKeyValue_t@@H@@@@QBEABUKeyValue_t@@H@Z 101c96e0 f i MapLayout.obj
 0002:00074810       ??A?$CUtlVector@UKeyValue_t@@V?$CUtlMemory@UKeyValue_t@@H@@@@QAEAAUKeyValue_t@@H@Z 101c9810 f i MapLayout.obj
 0002:00074940       ?Count@?$CUtlVector@UKeyValue_t@@V?$CUtlMemory@UKeyValue_t@@H@@@@QBEHXZ 101c9940 f i MapLayout.obj
 0002:00074980       ?AddToTail@?$CUtlVector@UKeyValue_t@@V?$CUtlMemory@UKeyValue_t@@H@@@@QAEHXZ 101c9980 f i MapLayout.obj
 0002:000749e0       ??0?$CUtlVector@VCInstanceSpawn@@V?$CUtlMemory@VCInstanceSpawn@@H@@@@QAE@HH@Z 101c99e0 f i MapLayout.obj
 0002:00074a60       ??1?$CUtlVector@VCInstanceSpawn@@V?$CUtlMemory@VCInstanceSpawn@@H@@@@QAE@XZ 101c9a60 f i MapLayout.obj
 0002:00074ac0       ??A?$CUtlVector@VCInstanceSpawn@@V?$CUtlMemory@VCInstanceSpawn@@H@@@@QAEAAVCInstanceSpawn@@H@Z 101c9ac0 f i MapLayout.obj
 0002:00074bf0       ?Count@?$CUtlVector@VCInstanceSpawn@@V?$CUtlMemory@VCInstanceSpawn@@H@@@@QBEHXZ 101c9bf0 f i MapLayout.obj
 0002:00074c30       ?AddToTail@?$CUtlVector@VCInstanceSpawn@@V?$CUtlMemory@VCInstanceSpawn@@H@@@@QAEHXZ 101c9c30 f i MapLayout.obj
 0002:00074c90       ?RemoveAll@?$CUtlVector@VCInstanceSpawn@@V?$CUtlMemory@VCInstanceSpawn@@H@@@@QAEXXZ 101c9c90 f i MapLayout.obj
 0002:00074d20       ?FindAndRemove@?$CUtlVector@PAVCRoom@@V?$CUtlMemory@PAVCRoom@@H@@@@QAE_NABQAVCRoom@@@Z 101c9d20 f i MapLayout.obj
 0002:00074da0       ?AddToTail@?$CUtlVector@PAVCRoomTemplate@@V?$CUtlMemory@PAVCRoomTemplate@@H@@@@QAEHABQAVCRoomTemplate@@@Z 101c9da0 f i MapLayout.obj
 0002:00074f10       ??0?$CUtlVector@PAVCASW_Encounter@@V?$CUtlMemory@PAVCASW_Encounter@@H@@@@QAE@HH@Z 101c9f10 f i MapLayout.obj
 0002:00074f90       ??1?$CUtlVector@PAVCASW_Encounter@@V?$CUtlMemory@PAVCASW_Encounter@@H@@@@QAE@XZ 101c9f90 f i MapLayout.obj
 0002:00074ff0       ?PurgeAndDeleteElements@?$CUtlVector@PAVCASW_Encounter@@V?$CUtlMemory@PAVCASW_Encounter@@H@@@@QAEXXZ 101c9ff0 f i MapLayout.obj
 0002:000750c0       ??_GCASW_Encounter@@QAEPAXI@Z 101ca0c0 f i MapLayout.obj
 0002:00075130       ??1CASW_Encounter@@QAE@XZ  101ca130 f i MapLayout.obj
 0002:00075190       ?Base@?$CUtlVector@PAVCRoomTemplateExit@@V?$CUtlMemory@PAVCRoomTemplateExit@@H@@@@QAEPAPAVCRoomTemplateExit@@XZ 101ca190 f i MapLayout.obj
 0002:000751e0       ?ResetDbgInfo@?$CUtlVector@UKeyValue_t@@V?$CUtlMemory@UKeyValue_t@@H@@@@IAEXXZ 101ca1e0 f i MapLayout.obj
 0002:00075240       ?ResetDbgInfo@?$CUtlVector@VCInstanceSpawn@@V?$CUtlMemory@VCInstanceSpawn@@H@@@@IAEXXZ 101ca240 f i MapLayout.obj
 0002:000752a0       ?Base@?$CUtlVector@UKeyValue_t@@V?$CUtlMemory@UKeyValue_t@@H@@@@QAEPAUKeyValue_t@@XZ 101ca2a0 f i MapLayout.obj
 0002:000752f0       ?Base@?$CUtlVector@VCInstanceSpawn@@V?$CUtlMemory@VCInstanceSpawn@@H@@@@QAEPAVCInstanceSpawn@@XZ 101ca2f0 f i MapLayout.obj
 0002:00075340       ?InsertBefore@?$CUtlVector@PAVCRoomTemplateExit@@V?$CUtlMemory@PAVCRoomTemplateExit@@H@@@@QAEHHABQAVCRoomTemplateExit@@@Z 101ca340 f i MapLayout.obj
 0002:000755c0       ??A?$CUtlMemory@PAVCRoomTemplateExit@@H@@QBEABQAVCRoomTemplateExit@@H@Z 101ca5c0 f i MapLayout.obj
 0002:000756f0       ?Base@?$CUtlMemory@PAVCRoomTemplateExit@@H@@QAEPAPAVCRoomTemplateExit@@XZ 101ca6f0 f i MapLayout.obj
 0002:00075810       ??0?$CUtlMemory@UKeyValue_t@@H@@QAE@HH@Z 101ca810 f i MapLayout.obj
 0002:00075a00       ??1?$CUtlMemory@UKeyValue_t@@H@@QAE@XZ 101caa00 f i MapLayout.obj
 0002:00075a50       ??A?$CUtlMemory@UKeyValue_t@@H@@QBEABUKeyValue_t@@H@Z 101caa50 f i MapLayout.obj
 0002:00075b80       ??A?$CUtlMemory@UKeyValue_t@@H@@QAEAAUKeyValue_t@@H@Z 101cab80 f i MapLayout.obj
 0002:00075d80       ?Base@?$CUtlMemory@UKeyValue_t@@H@@QAEPAUKeyValue_t@@XZ 101cad80 f i MapLayout.obj
 0002:00075ea0       ?InsertBefore@?$CUtlVector@UKeyValue_t@@V?$CUtlMemory@UKeyValue_t@@H@@@@QAEHH@Z 101caea0 f i MapLayout.obj
 0002:00076010       ?Purge@?$CUtlVector@UKeyValue_t@@V?$CUtlMemory@UKeyValue_t@@H@@@@QAEXXZ 101cb010 f i MapLayout.obj
 0002:00076080       ?Element@?$CUtlVector@VCInstanceSpawn@@V?$CUtlMemory@VCInstanceSpawn@@H@@@@QAEAAVCInstanceSpawn@@H@Z 101cb080 f i MapLayout.obj
 0002:000761b0       ?InsertBefore@?$CUtlVector@VCInstanceSpawn@@V?$CUtlMemory@VCInstanceSpawn@@H@@@@QAEHH@Z 101cb1b0 f i MapLayout.obj
 0002:00076320       ?Purge@?$CUtlVector@VCInstanceSpawn@@V?$CUtlMemory@VCInstanceSpawn@@H@@@@QAEXXZ 101cb320 f i MapLayout.obj
 0002:00076390       ??0?$CUtlMemory@VCInstanceSpawn@@H@@QAE@HH@Z 101cb390 f i MapLayout.obj
 0002:00076590       ??1?$CUtlMemory@VCInstanceSpawn@@H@@QAE@XZ 101cb590 f i MapLayout.obj
 0002:000765e0       ??A?$CUtlMemory@VCInstanceSpawn@@H@@QAEAAVCInstanceSpawn@@H@Z 101cb5e0 f i MapLayout.obj
 0002:000767f0       ?Base@?$CUtlMemory@VCInstanceSpawn@@H@@QAEPAVCInstanceSpawn@@XZ 101cb7f0 f i MapLayout.obj
 0002:00076910       ??$Destruct@VCInstanceSpawn@@@@YAXPAVCInstanceSpawn@@@Z 101cb910 f i MapLayout.obj
 0002:00076980       ?Find@?$CUtlVector@PAVCRoom@@V?$CUtlMemory@PAVCRoom@@H@@@@QBEHABQAVCRoom@@@Z 101cb980 f i MapLayout.obj
 0002:00076a20       ?Remove@?$CUtlVector@PAVCRoom@@V?$CUtlMemory@PAVCRoom@@H@@@@QAEXH@Z 101cba20 f i MapLayout.obj
 0002:00076ab0       ?InsertBefore@?$CUtlVector@PAVCRoomTemplate@@V?$CUtlMemory@PAVCRoomTemplate@@H@@@@QAEHHABQAVCRoomTemplate@@@Z 101cbab0 f i MapLayout.obj
 0002:00076d30       ?Purge@?$CUtlVector@PAVCASW_Encounter@@V?$CUtlMemory@PAVCASW_Encounter@@H@@@@QAEXXZ 101cbd30 f i MapLayout.obj
 0002:00076da0       ??0?$CUtlMemory@PAVCASW_Encounter@@H@@QAE@HH@Z 101cbda0 f i MapLayout.obj
 0002:00076f90       ??1?$CUtlMemory@PAVCASW_Encounter@@H@@QAE@XZ 101cbf90 f i MapLayout.obj
 0002:00076fe0       ??_GCInstanceSpawn@@QAEPAXI@Z 101cbfe0 f i MapLayout.obj
 0002:00077050       ??1CInstanceSpawn@@QAE@XZ  101cc050 f i MapLayout.obj
 0002:000770b0       ?ValidateGrowSize@?$CUtlMemory@UKeyValue_t@@H@@IAEXXZ 101cc0b0 f i MapLayout.obj
 0002:000770f0       ?ValidateGrowSize@?$CUtlMemory@VCInstanceSpawn@@H@@IAEXXZ 101cc0f0 f i MapLayout.obj
 0002:00077130       ?ValidateGrowSize@?$CUtlMemory@PAVCASW_Encounter@@H@@IAEXXZ 101cc130 f i MapLayout.obj
 0002:00077170       ?Element@?$CUtlVector@PAVCRoomTemplateExit@@V?$CUtlMemory@PAVCRoomTemplateExit@@H@@@@QAEAAPAVCRoomTemplateExit@@H@Z 101cc170 f i MapLayout.obj
 0002:000772a0       ?IsValidIndex@?$CUtlVector@PAVCRoomTemplateExit@@V?$CUtlMemory@PAVCRoomTemplateExit@@H@@@@QBE_NH@Z 101cc2a0 f i MapLayout.obj
 0002:00077310       ?GrowVector@?$CUtlVector@PAVCRoomTemplateExit@@V?$CUtlMemory@PAVCRoomTemplateExit@@H@@@@IAEXH@Z 101cc310 f i MapLayout.obj
 0002:00077430       ?ShiftElementsRight@?$CUtlVector@PAVCRoomTemplateExit@@V?$CUtlMemory@PAVCRoomTemplateExit@@H@@@@IAEXHH@Z 101cc430 f i MapLayout.obj
 0002:000775d0       ??$CopyConstruct@PAVCRoomTemplateExit@@@@YAPAPAVCRoomTemplateExit@@PAPAV0@ABQAV0@@Z 101cc5d0 f i MapLayout.obj
 0002:00077670       ?IsIdxValid@?$CUtlMemory@UKeyValue_t@@H@@QBE_NH@Z 101cc670 f i MapLayout.obj
 0002:000776f0       ?Purge@?$CUtlMemory@UKeyValue_t@@H@@QAEXXZ 101cc6f0 f i MapLayout.obj
 0002:000777a0       ?IsReadOnly@?$CUtlMemory@UKeyValue_t@@H@@QBE_NXZ 101cc7a0 f i MapLayout.obj
 0002:000777f0       ??$MemAllocClassName@V?$CUtlMemory@UKeyValue_t@@H@@@@YAPBDPAV?$CUtlMemory@UKeyValue_t@@H@@@Z 101cc7f0 f i MapLayout.obj
 0002:00077870       ?Element@?$CUtlVector@UKeyValue_t@@V?$CUtlMemory@UKeyValue_t@@H@@@@QAEAAUKeyValue_t@@H@Z 101cc870 f i MapLayout.obj
 0002:000779a0       ?IsValidIndex@?$CUtlVector@UKeyValue_t@@V?$CUtlMemory@UKeyValue_t@@H@@@@QBE_NH@Z 101cc9a0 f i MapLayout.obj
 0002:00077a10       ?RemoveAll@?$CUtlVector@UKeyValue_t@@V?$CUtlMemory@UKeyValue_t@@H@@@@QAEXXZ 101cca10 f i MapLayout.obj
 0002:00077aa0       ?GrowVector@?$CUtlVector@UKeyValue_t@@V?$CUtlMemory@UKeyValue_t@@H@@@@IAEXH@Z 101ccaa0 f i MapLayout.obj
 0002:00077bc0       ?ShiftElementsRight@?$CUtlVector@UKeyValue_t@@V?$CUtlMemory@UKeyValue_t@@H@@@@IAEXHH@Z 101ccbc0 f i MapLayout.obj
 0002:00077d60       ??$Construct@UKeyValue_t@@@@YAPAUKeyValue_t@@PAU0@@Z 101ccd60 f i MapLayout.obj
 0002:00077dd0       ?IsValidIndex@?$CUtlVector@VCInstanceSpawn@@V?$CUtlMemory@VCInstanceSpawn@@H@@@@QBE_NH@Z 101ccdd0 f i MapLayout.obj
 0002:00077e40       ?GrowVector@?$CUtlVector@VCInstanceSpawn@@V?$CUtlMemory@VCInstanceSpawn@@H@@@@IAEXH@Z 101cce40 f i MapLayout.obj
 0002:00077f60       ?ShiftElementsRight@?$CUtlVector@VCInstanceSpawn@@V?$CUtlMemory@VCInstanceSpawn@@H@@@@IAEXHH@Z 101ccf60 f i MapLayout.obj
 0002:00078100       ?IsIdxValid@?$CUtlMemory@VCInstanceSpawn@@H@@QBE_NH@Z 101cd100 f i MapLayout.obj
 0002:00078180       ?Purge@?$CUtlMemory@VCInstanceSpawn@@H@@QAEXXZ 101cd180 f i MapLayout.obj
 0002:00078230       ?IsReadOnly@?$CUtlMemory@VCInstanceSpawn@@H@@QBE_NXZ 101cd230 f i MapLayout.obj
 0002:00078280       ??$Construct@VCInstanceSpawn@@@@YAPAVCInstanceSpawn@@PAV0@@Z 101cd280 f i MapLayout.obj
 0002:00078320       ??$MemAllocClassName@V?$CUtlMemory@VCInstanceSpawn@@H@@@@YAPBDPAV?$CUtlMemory@VCInstanceSpawn@@H@@@Z 101cd320 f i MapLayout.obj
 0002:000783a0       ?Element@?$CUtlVector@PAVCRoom@@V?$CUtlMemory@PAVCRoom@@H@@@@QBEABQAVCRoom@@H@Z 101cd3a0 f i MapLayout.obj
 0002:000784d0       ??A?$CUtlMemory@PAVCRoom@@H@@QBEABQAVCRoom@@H@Z 101cd4d0 f i MapLayout.obj
 0002:00078600       ?ShiftElementsLeft@?$CUtlVector@PAVCRoom@@V?$CUtlMemory@PAVCRoom@@H@@@@IAEXHH@Z 101cd600 f i MapLayout.obj
 0002:000787d0       ?RemoveAll@?$CUtlVector@PAVCASW_Encounter@@V?$CUtlMemory@PAVCASW_Encounter@@H@@@@QAEXXZ 101cd7d0 f i MapLayout.obj
 0002:00078860       ?Purge@?$CUtlMemory@PAVCASW_Encounter@@H@@QAEXXZ 101cd860 f i MapLayout.obj
 0002:00078910       ?ResetDbgInfo@?$CUtlVector@PAVCRoomTemplateExit@@V?$CUtlMemory@PAVCRoomTemplateExit@@H@@@@IAEXXZ 101cd910 f i MapLayout.obj
 0002:00078970       ?NumAllocated@?$CUtlMemory@PAVCRoomTemplateExit@@H@@QBEHXZ 101cd970 f i MapLayout.obj
 0002:000789b0       ?Grow@?$CUtlMemory@PAVCRoomTemplateExit@@H@@QAEXH@Z 101cd9b0 f i MapLayout.obj
 0002:00079020       ??$MemAllocClassName@V?$CUtlVector@PAVCRoomTemplateExit@@V?$CUtlMemory@PAVCRoomTemplateExit@@H@@@@@@YAPBDPAV?$CUtlVector@PAVCRoomTemplateExit@@V?$CUtlMemory@PAVCRoomTemplateExit@@H@@@@@Z 101ce020 f i MapLayout.obj
 0002:000790a0       ?NumAllocated@?$CUtlMemory@UKeyValue_t@@H@@QBEHXZ 101ce0a0 f i MapLayout.obj
 0002:000790e0       ?Grow@?$CUtlMemory@UKeyValue_t@@H@@QAEXH@Z 101ce0e0 f i MapLayout.obj
 0002:00079750       ?IsExternallyAllocated@?$CUtlMemory@UKeyValue_t@@H@@QBE_NXZ 101ce750 f i MapLayout.obj
 0002:000797a0       ??$Destruct@UKeyValue_t@@@@YAXPAUKeyValue_t@@@Z 101ce7a0 f i MapLayout.obj
 0002:00079800       ??$MemAllocClassName@V?$CUtlVector@UKeyValue_t@@V?$CUtlMemory@UKeyValue_t@@H@@@@@@YAPBDPAV?$CUtlVector@UKeyValue_t@@V?$CUtlMemory@UKeyValue_t@@H@@@@@Z 101ce800 f i MapLayout.obj
 0002:00079880       ?NumAllocated@?$CUtlMemory@VCInstanceSpawn@@H@@QBEHXZ 101ce880 f i MapLayout.obj
 0002:000798c0       ?Grow@?$CUtlMemory@VCInstanceSpawn@@H@@QAEXH@Z 101ce8c0 f i MapLayout.obj
 0002:00079f40       ?IsExternallyAllocated@?$CUtlMemory@VCInstanceSpawn@@H@@QBE_NXZ 101cef40 f i MapLayout.obj
 0002:00079f90       ??$MemAllocClassName@V?$CUtlVector@VCInstanceSpawn@@V?$CUtlMemory@VCInstanceSpawn@@H@@@@@@YAPBDPAV?$CUtlVector@VCInstanceSpawn@@V?$CUtlMemory@VCInstanceSpawn@@H@@@@@Z 101cef90 f i MapLayout.obj
 0002:0007a010       ??$Destruct@PAVCASW_Encounter@@@@YAXPAPAVCASW_Encounter@@@Z 101cf010 f i MapLayout.obj
 0002:0007a070       ?IsExternallyAllocated@?$CUtlMemory@PAVCRoomTemplateExit@@H@@QBE_NXZ 101cf070 f i MapLayout.obj
 0002:0007a0c0       ??$MemAllocClassName@V?$CUtlMemory@PAVCRoomTemplateExit@@H@@@@YAPBDPAV?$CUtlMemory@PAVCRoomTemplateExit@@H@@@Z 101cf0c0 f i MapLayout.obj
 0002:0007a140       ??0CRoom@@QAE@XZ           101cf140 f   Room.obj
 0002:0007a200       ?HasAlienEncounter@CRoom@@UAE_NXZ 101cf200 f i Room.obj
 0002:0007a240       ?GetRoomIndex@CRoom@@UBEHXZ 101cf240 f i Room.obj
 0002:0007a280       ??_ECRoom@@UAEPAXI@Z       101cf280 f i Room.obj
 0002:0007a280       ??_GCRoom@@UAEPAXI@Z       101cf280 f i Room.obj
 0002:0007a2f0       ??0IASW_Room_Details@@QAE@XZ 101cf2f0 f i Room.obj
 0002:0007a340       ??0CRoom@@QAE@PAVCMapLayout@@PBVCRoomTemplate@@HH@Z 101cf340 f   Room.obj
 0002:0007a400       ??1CRoom@@UAE@XZ           101cf400 f   Room.obj
 0002:0007a4f0       ?GetKeyValuesCopy@CRoom@@QAEPAVKeyValues@@XZ 101cf4f0 f   Room.obj
 0002:0007a610       ?SaveRoomToFile@CRoom@@QAE_NPAVCChunkFile@@@Z 101cf610 f   Room.obj
 0002:0007a760       ?LoadRoomFromKeyValues@CRoom@@SA_NPAVKeyValues@@PAVCMapLayout@@@Z 101cf760 f   Room.obj
 0002:0007ab40       ?HasTag@CRoom@@UAE_NPBD@Z  101cfb40 f   Room.obj
 0002:0007abb0       ?GetNumTags@CRoom@@UAEHXZ  101cfbb0 f   Room.obj
 0002:0007ac20       ?GetNumTags@CRoomTemplate@@QBEHXZ 101cfc20 f i Room.obj
 0002:0007ac80       ?GetTag@CRoom@@UAEPBDH@Z   101cfc80 f   Room.obj
 0002:0007acf0       ?GetTag@CRoomTemplate@@QBEPBDH@Z 101cfcf0 f i Room.obj
 0002:0007ad50       ?GetSpawnWeight@CRoom@@UAEHXZ 101cfd50 f   Room.obj
 0002:0007adc0       ?GetSpawnWeight@CRoomTemplate@@QBEHXZ 101cfdc0 f i Room.obj
 0002:0007ae00       ?GetThumbnailName@CRoom@@UAE_NPADH@Z 101cfe00 f   Room.obj
 0002:0007aea0       ?GetFullRoomName@CRoom@@UAE_NPADH@Z 101cfea0 f   Room.obj
 0002:0007af40       ?GetSoundscape@CRoom@@UAEXPADH@Z 101cff40 f   Room.obj
 0002:0007afe0       ?GetSoundscape@CRoomTemplate@@QBEPBDXZ 101cffe0 f i Room.obj
 0002:0007b020       ?GetTheme@CRoom@@UAEXPADH@Z 101d0020 f   Room.obj
 0002:0007b0d0       ?GetAmbientLight@CRoom@@UAEABVVector@@XZ 101d00d0 f   Room.obj
 0002:0007b160       ?GetTileType@CRoom@@UAEHXZ 101d0160 f   Room.obj
 0002:0007b1d0       ?GetTileType@CRoomTemplate@@QBEHXZ 101d01d0 f i Room.obj
 0002:0007b210       ?GetTileTypeName@CRoom@@UAEPBDH@Z 101d0210 f   Room.obj
 0002:0007b360       ?GetWorldBounds@CRoom@@UAEXPAVVector@@0@Z 101d0360 f   Room.obj
 0002:0007b520       ?WorldSpaceCenter@CRoom@@UAEABVVector@@XZ 101d0520 f   Room.obj
 0002:0007b670       ?AllocTempVector@@YAAAVVector@@XZ 101d0670 f i Room.obj
 0002:0007b770       ?ThreadPause@@YAXXZ        101d0770 f i Room.obj
 0002:0007b7c0       ??KVector@@QBE?AV0@M@Z     101d07c0 f i Room.obj
 0002:0007b890       ?VectorDivide@@YAXABVVector@@MAAV1@@Z 101d0890 f i Room.obj
 0002:0007ba20       ?GetNumExits@CRoom@@UAEHXZ 101d0a20 f   Room.obj
 0002:0007ba90       ?GetAdjacentRoom@CRoom@@UAEPAVIASW_Room_Details@@H@Z 101d0a90 f   Room.obj
 0002:0007bb90       ?AssignIf@?$CInterlockedIntT@H@@QAE_NHH@Z 101d0b90 f i Room.obj
 0002:0007bbf0       ?ThreadInterlockedAssignIf@@YA_NPCHHH@Z 101d0bf0 f i Room.obj
 0002:0007bd30       ??A?$CUtlVector@PBDV?$CUtlMemory@PBDH@@@@QBEABQBDH@Z 101d0d30 f i Room.obj
 0002:0007be60       ??A?$CUtlMemory@PBDH@@QBEABQBDH@Z 101d0e60 f i Room.obj
 0002:0007bf90       ?GetDirectionFromString@@YA?AW4ExitDirection_t@@PBD@Z 101d0f90 f   RoomTemplate.obj
 0002:0007c070       ??0CRoomTemplate@@QAE@PAVCLevelTheme@@@Z 101d1070 f   RoomTemplate.obj
 0002:0007c160       ??1CRoomTemplate@@QAE@XZ   101d1160 f   RoomTemplate.obj
 0002:0007c1d0       ?LoadFromKeyValues@CRoomTemplate@@QAEXPBDPAVKeyValues@@@Z 101d11d0 f   RoomTemplate.obj
 0002:0007c5e0       ??0CRoomTemplateExit@@QAE@XZ 101d15e0 f i RoomTemplate.obj
 0002:0007c660       ?SetSpawnWeight@CRoomTemplate@@QAEXH@Z 101d1660 f i RoomTemplate.obj
 0002:0007c720       ?SetTileType@CRoomTemplate@@QAEXH@Z 101d1720 f i RoomTemplate.obj
 0002:0007c840       ?SaveRoomTemplate@CRoomTemplate@@QAE_NXZ 101d1840 f   RoomTemplate.obj
 0002:0007ce80       ?SetFullName@CRoomTemplate@@QAEXPBD@Z 101d1e80 f   RoomTemplate.obj
 0002:0007cfb0       ?SetDescription@CRoomTemplate@@QAEXPBD@Z 101d1fb0 f   RoomTemplate.obj
 0002:0007d020       ?SetSoundscape@CRoomTemplate@@QAEXPBD@Z 101d2020 f   RoomTemplate.obj
 0002:0007d090       ?GetExitOffset@CRoomTemplateExit@@SAXW4ExitDirection_t@@PAH1@Z 101d2090 f   RoomTemplate.obj
 0002:0007d160       ?GetOppositeDirection@CRoomTemplateExit@@SA?AW4ExitDirection_t@@W42@@Z 101d2160 f   RoomTemplate.obj
 0002:0007d200       ?IsStartRoom@CRoomTemplate@@QBE_NXZ 101d2200 f   RoomTemplate.obj
 0002:0007d260       ?IsEscapeRoom@CRoomTemplate@@QBE_NXZ 101d2260 f   RoomTemplate.obj
 0002:0007d2c0       ?IsBorderRoom@CRoomTemplate@@QBE_NXZ 101d22c0 f   RoomTemplate.obj
 0002:0007d320       ?ShouldOnlyPlaceByRequest@CRoomTemplate@@QBE_NXZ 101d2320 f   RoomTemplate.obj
 0002:0007d3e0       ?HasTag@CRoomTemplate@@QBE_NPBD@Z 101d23e0 f   RoomTemplate.obj
 0002:0007d490       ?AddTag@CRoomTemplate@@QAE_NPBD@Z 101d2490 f   RoomTemplate.obj
 0002:0007d580       ?RemoveTag@CRoomTemplate@@QAE_NPBD@Z 101d2580 f   RoomTemplate.obj
 0002:0007d650       ??0?$CUtlVector@PAVCRoomTemplateExit@@V?$CUtlMemory@PAVCRoomTemplateExit@@H@@@@QAE@HH@Z 101d2650 f i RoomTemplate.obj
 0002:0007d6d0       ??1?$CUtlVector@PAVCRoomTemplateExit@@V?$CUtlMemory@PAVCRoomTemplateExit@@H@@@@QAE@XZ 101d26d0 f i RoomTemplate.obj
 0002:0007d730       ?PurgeAndDeleteElements@?$CUtlVector@PAVCRoomTemplateExit@@V?$CUtlMemory@PAVCRoomTemplateExit@@H@@@@QAEXXZ 101d2730 f i RoomTemplate.obj
 0002:0007d7e0       ?Remove@?$CUtlVector@PBDV?$CUtlMemory@PBDH@@@@QAEXH@Z 101d27e0 f i RoomTemplate.obj
 0002:0007d870       ?Purge@?$CUtlVector@PAVCRoomTemplateExit@@V?$CUtlMemory@PAVCRoomTemplateExit@@H@@@@QAEXXZ 101d2870 f i RoomTemplate.obj
 0002:0007d8e0       ??0?$CUtlMemory@PAVCRoomTemplateExit@@H@@QAE@HH@Z 101d28e0 f i RoomTemplate.obj
 0002:0007dad0       ??1?$CUtlMemory@PAVCRoomTemplateExit@@H@@QAE@XZ 101d2ad0 f i RoomTemplate.obj
 0002:0007db20       ?ShiftElementsLeft@?$CUtlVector@PBDV?$CUtlMemory@PBDH@@@@IAEXHH@Z 101d2b20 f i RoomTemplate.obj
 0002:0007dcf0       ?ValidateGrowSize@?$CUtlMemory@PAVCRoomTemplateExit@@H@@IAEXXZ 101d2cf0 f i RoomTemplate.obj
 0002:0007dd30       ?RemoveAll@?$CUtlVector@PAVCRoomTemplateExit@@V?$CUtlMemory@PAVCRoomTemplateExit@@H@@@@QAEXXZ 101d2d30 f i RoomTemplate.obj
 0002:0007ddc0       ?Purge@?$CUtlMemory@PAVCRoomTemplateExit@@H@@QAEXXZ 101d2dc0 f i RoomTemplate.obj
 0002:0007de70       ??$Destruct@PAVCRoomTemplateExit@@@@YAXPAPAVCRoomTemplateExit@@@Z 101d2e70 f i RoomTemplate.obj
 0002:0007ded0       ?TagList@@YAPAVCTagList@@XZ 101d2ed0 f   TagList.obj
 0002:0007df90       ??0CTagList@@QAE@XZ        101d2f90 f   TagList.obj
 0002:0007e010       ??1CTagList@@QAE@XZ        101d3010 f   TagList.obj
 0002:0007e110       ?FindTag@CTagList@@QAEPBDPBD@Z 101d3110 f   TagList.obj
 0002:0007e1c0       ?FindTagDescription@CTagList@@QAEPBDPBD@Z 101d31c0 f   TagList.obj
 0002:0007e280       ?LoadTags@CTagList@@AAEXXZ 101d3280 f   TagList.obj
 0002:0007e6b0       ??0CKV_Combo_Leaf_Panel@@QAE@PAVPanel@vgui@@PBD@Z 101d36b0 f   kv_combo_leaf_panel.obj
 0002:0007e960       ??0CKV_Combo_Leaf_Panel_RegisterMap@CKV_Combo_Leaf_Panel@@QAE@XZ 101d3960 f i kv_combo_leaf_panel.obj
 0002:0007e9b0       ?ChainToMap@CKV_Combo_Leaf_Panel@@SAXXZ 101d39b0 f i kv_combo_leaf_panel.obj
 0002:0007ea70       ?GetMessageMap@CKV_Combo_Leaf_Panel@@UAEPAUPanelMessageMap@vgui@@XZ 101d3a70 f i kv_combo_leaf_panel.obj
 0002:0007eaf0       ??0CKV_Combo_Leaf_Panel_Register@CKV_Combo_Leaf_Panel@@QAE@XZ 101d3af0 f i kv_combo_leaf_panel.obj
 0002:0007eb40       ?ChainToAnimationMap@CKV_Combo_Leaf_Panel@@SAXXZ 101d3b40 f i kv_combo_leaf_panel.obj
 0002:0007ec00       ?GetAnimMap@CKV_Combo_Leaf_Panel@@UAEPAUPanelAnimationMap@@XZ 101d3c00 f i kv_combo_leaf_panel.obj
 0002:0007ec60       ??0CKV_Combo_Leaf_Panel_RegisterKBMap@CKV_Combo_Leaf_Panel@@QAE@XZ 101d3c60 f i kv_combo_leaf_panel.obj
 0002:0007ecb0       ?KB_ChainToMap@CKV_Combo_Leaf_Panel@@SAXXZ 101d3cb0 f i kv_combo_leaf_panel.obj
 0002:0007ed70       ?GetKBMap@CKV_Combo_Leaf_Panel@@UAEPAUPanelKeyBindingMap@vgui@@XZ 101d3d70 f i kv_combo_leaf_panel.obj
 0002:0007edf0       ?GetPanelClassName@CKV_Combo_Leaf_Panel@@SAPBDXZ 101d3df0 f i kv_combo_leaf_panel.obj
 0002:0007ee30       ?GetPanelBaseClassName@CKV_Combo_Leaf_Panel@@SAPBDXZ 101d3e30 f i kv_combo_leaf_panel.obj
 0002:0007ee70       ??0PanelMessageFunc_OnTextChanged@CKV_Combo_Leaf_Panel@@QAE@XZ 101d3e70 f i kv_combo_leaf_panel.obj
 0002:0007eec0       ?InitVar@PanelMessageFunc_OnTextChanged@CKV_Combo_Leaf_Panel@@SAXXZ 101d3ec0 f i kv_combo_leaf_panel.obj
 0002:0007efa0       ?AddToMap@CKV_Combo_Leaf_Panel@@SAXPBDP8Panel@vgui@@AEXXZHH0H0@Z 101d3fa0 f i kv_combo_leaf_panel.obj
 0002:0007f0b0       ??_ECKV_Combo_Leaf_Panel@@UAEPAXI@Z 101d40b0 f i kv_combo_leaf_panel.obj
 0002:0007f0b0       ??_GCKV_Combo_Leaf_Panel@@UAEPAXI@Z 101d40b0 f i kv_combo_leaf_panel.obj
 0002:0007f120       ??1CKV_Combo_Leaf_Panel@@UAE@XZ 101d4120 f i kv_combo_leaf_panel.obj
 0002:0007f170       ??1CKV_Editor_Base_Panel@@UAE@XZ 101d4170 f i kv_combo_leaf_panel.obj
 0002:0007f1c0       ?PerformLayout@CKV_Combo_Leaf_Panel@@UAEXXZ 101d41c0 f   kv_combo_leaf_panel.obj
 0002:0007f440       ?ApplySchemeSettings@CKV_Combo_Leaf_Panel@@UAEXPAVIScheme@vgui@@@Z 101d4440 f   kv_combo_leaf_panel.obj
 0002:0007f4f0       ?UpdatePanel@CKV_Combo_Leaf_Panel@@UAEXXZ 101d44f0 f   kv_combo_leaf_panel.obj
 0002:0007f990       ?OnTextChanged@CKV_Combo_Leaf_Panel@@UAEXPAVPanel@vgui@@@Z 101d4990 f   kv_combo_leaf_panel.obj
 0002:0007fb70       ?OnCommand@CKV_Combo_Leaf_Panel@@UAEXPBD@Z 101d4b70 f   kv_combo_leaf_panel.obj
 0002:0007fc60       ?AddToTail@?$CUtlVector@UMessageMapItem_t@vgui@@V?$CUtlMemory@UMessageMapItem_t@vgui@@H@@@@QAEHABUMessageMapItem_t@vgui@@@Z 101d4c60 f i kv_combo_leaf_panel.obj
 0002:0007fdd0       ?Base@?$CUtlVector@UMessageMapItem_t@vgui@@V?$CUtlMemory@UMessageMapItem_t@vgui@@H@@@@QAEPAUMessageMapItem_t@vgui@@XZ 101d4dd0 f i kv_combo_leaf_panel.obj
 0002:0007fe20       ?Count@?$CUtlVector@UMessageMapItem_t@vgui@@V?$CUtlMemory@UMessageMapItem_t@vgui@@H@@@@QBEHXZ 101d4e20 f i kv_combo_leaf_panel.obj
 0002:0007fe60       ?InsertBefore@?$CUtlVector@UMessageMapItem_t@vgui@@V?$CUtlMemory@UMessageMapItem_t@vgui@@H@@@@QAEHHABUMessageMapItem_t@vgui@@@Z 101d4e60 f i kv_combo_leaf_panel.obj
 0002:000800f0       ?Base@?$CUtlMemory@UMessageMapItem_t@vgui@@H@@QAEPAUMessageMapItem_t@vgui@@XZ 101d50f0 f i kv_combo_leaf_panel.obj
 0002:00080210       ?Element@?$CUtlVector@UMessageMapItem_t@vgui@@V?$CUtlMemory@UMessageMapItem_t@vgui@@H@@@@QAEAAUMessageMapItem_t@vgui@@H@Z 101d5210 f i kv_combo_leaf_panel.obj
 0002:00080340       ?IsValidIndex@?$CUtlVector@UMessageMapItem_t@vgui@@V?$CUtlMemory@UMessageMapItem_t@vgui@@H@@@@QBE_NH@Z 101d5340 f i kv_combo_leaf_panel.obj
 0002:000803b0       ?GrowVector@?$CUtlVector@UMessageMapItem_t@vgui@@V?$CUtlMemory@UMessageMapItem_t@vgui@@H@@@@IAEXH@Z 101d53b0 f i kv_combo_leaf_panel.obj
 0002:000804d0       ?ResetDbgInfo@?$CUtlVector@UMessageMapItem_t@vgui@@V?$CUtlMemory@UMessageMapItem_t@vgui@@H@@@@IAEXXZ 101d54d0 f i kv_combo_leaf_panel.obj
 0002:00080530       ?ShiftElementsRight@?$CUtlVector@UMessageMapItem_t@vgui@@V?$CUtlMemory@UMessageMapItem_t@vgui@@H@@@@IAEXHH@Z 101d5530 f i kv_combo_leaf_panel.obj
 0002:000806d0       ??$CopyConstruct@UMessageMapItem_t@vgui@@@@YAPAUMessageMapItem_t@vgui@@PAU01@ABU01@@Z 101d56d0 f i kv_combo_leaf_panel.obj
 0002:00080770       ?IsReadOnly@?$CUtlMemory@UMessageMapItem_t@vgui@@H@@QBE_NXZ 101d5770 f i kv_combo_leaf_panel.obj
 0002:000807c0       ??A?$CUtlMemory@UMessageMapItem_t@vgui@@H@@QAEAAUMessageMapItem_t@vgui@@H@Z 101d57c0 f i kv_combo_leaf_panel.obj
 0002:000809c0       ?NumAllocated@?$CUtlMemory@UMessageMapItem_t@vgui@@H@@QBEHXZ 101d59c0 f i kv_combo_leaf_panel.obj
 0002:00080a00       ?Grow@?$CUtlMemory@UMessageMapItem_t@vgui@@H@@QAEXH@Z 101d5a00 f i kv_combo_leaf_panel.obj
 0002:00081070       ??$MemAllocClassName@V?$CUtlMemory@UMessageMapItem_t@vgui@@H@@@@YAPBDPAV?$CUtlMemory@UMessageMapItem_t@vgui@@H@@@Z 101d6070 f i kv_combo_leaf_panel.obj
 0002:000810f0       ?IsExternallyAllocated@?$CUtlMemory@UMessageMapItem_t@vgui@@H@@QBE_NXZ 101d60f0 f i kv_combo_leaf_panel.obj
 0002:00081140       ??$MemAllocClassName@V?$CUtlVector@UMessageMapItem_t@vgui@@V?$CUtlMemory@UMessageMapItem_t@vgui@@H@@@@@@YAPBDPAV?$CUtlVector@UMessageMapItem_t@vgui@@V?$CUtlMemory@UMessageMapItem_t@vgui@@H@@@@@Z 101d6140 f i kv_combo_leaf_panel.obj
 0002:000811c0       ?IsIdxValid@?$CUtlMemory@UMessageMapItem_t@vgui@@H@@QBE_NH@Z 101d61c0 f i kv_combo_leaf_panel.obj
 0002:00081240       ??_9CKV_Combo_Leaf_Panel@@$BDLA@AE 101d6240 f i kv_combo_leaf_panel.obj
 0002:000812f0       ??0CKV_Editor@@QAE@PAVPanel@vgui@@PBD@Z 101d62f0 f   kv_editor.obj
 0002:00081550       ??0CKV_Editor_RegisterMap@CKV_Editor@@QAE@XZ 101d6550 f i kv_editor.obj
 0002:000815a0       ?ChainToMap@CKV_Editor@@SAXXZ 101d65a0 f i kv_editor.obj
 0002:00081660       ?GetMessageMap@CKV_Editor@@UAEPAUPanelMessageMap@vgui@@XZ 101d6660 f i kv_editor.obj
 0002:000816e0       ??0CKV_Editor_Register@CKV_Editor@@QAE@XZ 101d66e0 f i kv_editor.obj
 0002:00081730       ?ChainToAnimationMap@CKV_Editor@@SAXXZ 101d6730 f i kv_editor.obj
 0002:000817f0       ?GetAnimMap@CKV_Editor@@UAEPAUPanelAnimationMap@@XZ 101d67f0 f i kv_editor.obj
 0002:00081850       ??0CKV_Editor_RegisterKBMap@CKV_Editor@@QAE@XZ 101d6850 f i kv_editor.obj
 0002:000818a0       ?KB_ChainToMap@CKV_Editor@@SAXXZ 101d68a0 f i kv_editor.obj
 0002:00081960       ?GetKBMap@CKV_Editor@@UAEPAUPanelKeyBindingMap@vgui@@XZ 101d6960 f i kv_editor.obj
 0002:000819e0       ?GetPanelClassName@CKV_Editor@@SAPBDXZ 101d69e0 f i kv_editor.obj
 0002:00081a20       ?GetPanelBaseClassName@CKV_Editor@@SAPBDXZ 101d6a20 f i kv_editor.obj
 0002:00081a60       ??_GCKV_Editor@@UAEPAXI@Z  101d6a60 f i kv_editor.obj
 0002:00081a60       ??_ECKV_Editor@@UAEPAXI@Z  101d6a60 f i kv_editor.obj
 0002:00081ad0       ??1CKV_Editor@@UAE@XZ      101d6ad0 f   kv_editor.obj
 0002:00081b40       ?PerformLayout@CKV_Editor@@UAEXXZ 101d6b40 f   kv_editor.obj
 0002:00081bc0       ?ApplySchemeSettings@CKV_Editor@@UAEXPAVIScheme@vgui@@@Z 101d6bc0 f   kv_editor.obj
 0002:00081c70       ?FindPanel@CKV_Editor@@IAEPAVCKV_Editor_Base_Panel@@PAVKeyValues@@@Z 101d6c70 f   kv_editor.obj
 0002:00081d40       ?GetKey@CKV_Editor_Base_Panel@@QAEPAVKeyValues@@XZ 101d6d40 f i kv_editor.obj
 0002:00081d80       ?DeleteAllPanels@CKV_Editor@@IAEXXZ 101d6d80 f   kv_editor.obj
 0002:00081f40       ?CreatePanel@CKV_Editor@@IAEPAVCKV_Editor_Base_Panel@@PBDPAV2@PAVKeyValues@@2@Z 101d6f40 f   kv_editor.obj
 0002:00082180       ?SetEditor@CKV_Editor_Base_Panel@@QAEXPAVCKV_Editor@@@Z 101d7180 f i kv_editor.obj
 0002:000821d0       ?SetAllowDeletion@CKV_Editor_Base_Panel@@QAEX_N@Z 101d71d0 f i kv_editor.obj
 0002:00082220       ?SetSortOrder@CKV_Editor_Base_Panel@@QAEXM@Z 101d7220 f i kv_editor.obj
 0002:00082270       ?UpdatePanels@CKV_Editor@@IAEXPAVKeyValues@@PAVCKV_Editor_Base_Panel@@_N@Z 101d7270 f   kv_editor.obj
 0002:00082660       ?FindParentForKey@CKV_Editor@@IAEPAVKeyValues@@PAV2@@Z 101d7660 f   kv_editor.obj
 0002:00082710       ?FindParentForKey@CKV_Editor@@IAEPAVKeyValues@@PAV2@0@Z 101d7710 f   kv_editor.obj
 0002:000827e0       ?FindFileSpecNodeForKey@CKV_Editor@@IAEPAVKeyValues@@PAV2@@Z 101d77e0 f   kv_editor.obj
 0002:00082a30       ?SetFileSpec@CKV_Editor@@UAEXPBD0@Z 101d7a30 f   kv_editor.obj
 0002:00082b80       ?SetFileSpec@CKV_Editor@@UAEXPAVKeyValues@@@Z 101d7b80 f   kv_editor.obj
 0002:00082c20       ?SetFileFilter@CKV_Editor@@QAEXPBD0@Z 101d7c20 f   kv_editor.obj
 0002:00082cb0       ?SetFileDirectory@CKV_Editor@@QAEXPBD@Z 101d7cb0 f   kv_editor.obj
 0002:00082d20       ?SetKeys@CKV_Editor@@UAEXPAVKeyValues@@@Z 101d7d20 f   kv_editor.obj
 0002:00082e50       ?OnKeyDeleted@CKV_Editor@@UAEXXZ 101d7e50 f   kv_editor.obj
 0002:00082f70       ?OnKeyAdded@CKV_Editor@@UAEXXZ 101d7f70 f   kv_editor.obj
 0002:00083090       ?AddToKey@CKV_Editor@@UAEXPAVKeyValues@@0PBD@Z 101d8090 f   kv_editor.obj
 0002:00083460       ??0?$CUtlVector@PAVCKV_Editor_Base_Panel@@V?$CUtlMemory@PAVCKV_Editor_Base_Panel@@H@@@@QAE@HH@Z 101d8460 f i kv_editor.obj
 0002:000834e0       ??1?$CUtlVector@PAVCKV_Editor_Base_Panel@@V?$CUtlMemory@PAVCKV_Editor_Base_Panel@@H@@@@QAE@XZ 101d84e0 f i kv_editor.obj
 0002:00083540       ??A?$CUtlVector@PAVCKV_Editor_Base_Panel@@V?$CUtlMemory@PAVCKV_Editor_Base_Panel@@H@@@@QAEAAPAVCKV_Editor_Base_Panel@@H@Z 101d8540 f i kv_editor.obj
 0002:00083670       ?Count@?$CUtlVector@PAVCKV_Editor_Base_Panel@@V?$CUtlMemory@PAVCKV_Editor_Base_Panel@@H@@@@QBEHXZ 101d8670 f i kv_editor.obj
 0002:000836b0       ?AddToTail@?$CUtlVector@PAVCKV_Editor_Base_Panel@@V?$CUtlMemory@PAVCKV_Editor_Base_Panel@@H@@@@QAEHABQAVCKV_Editor_Base_Panel@@@Z 101d86b0 f i kv_editor.obj
 0002:00083820       ?Purge@?$CUtlVector@PAVCKV_Editor_Base_Panel@@V?$CUtlMemory@PAVCKV_Editor_Base_Panel@@H@@@@QAEXXZ 101d8820 f i kv_editor.obj
 0002:00083890       ?AddToHead@?$CUtlVector@PAVKeyValues@@V?$CUtlMemory@PAVKeyValues@@H@@@@QAEHABQAVKeyValues@@@Z 101d8890 f i kv_editor.obj
 0002:00083a00       ?Base@?$CUtlVector@PAVCKV_Editor_Base_Panel@@V?$CUtlMemory@PAVCKV_Editor_Base_Panel@@H@@@@QAEPAPAVCKV_Editor_Base_Panel@@XZ 101d8a00 f i kv_editor.obj
 0002:00083a50       ?ResetDbgInfo@?$CUtlVector@PAVCKV_Editor_Base_Panel@@V?$CUtlMemory@PAVCKV_Editor_Base_Panel@@H@@@@IAEXXZ 101d8a50 f i kv_editor.obj
 0002:00083ab0       ?InsertBefore@?$CUtlVector@PAVCKV_Editor_Base_Panel@@V?$CUtlMemory@PAVCKV_Editor_Base_Panel@@H@@@@QAEHHABQAVCKV_Editor_Base_Panel@@@Z 101d8ab0 f i kv_editor.obj
 0002:00083d30       ?RemoveAll@?$CUtlVector@PAVCKV_Editor_Base_Panel@@V?$CUtlMemory@PAVCKV_Editor_Base_Panel@@H@@@@QAEXXZ 101d8d30 f i kv_editor.obj
 0002:00083dc0       ??0?$CUtlMemory@PAVCKV_Editor_Base_Panel@@H@@QAE@HH@Z 101d8dc0 f i kv_editor.obj
 0002:00083fb0       ??1?$CUtlMemory@PAVCKV_Editor_Base_Panel@@H@@QAE@XZ 101d8fb0 f i kv_editor.obj
 0002:00084000       ??A?$CUtlMemory@PAVCKV_Editor_Base_Panel@@H@@QAEAAPAVCKV_Editor_Base_Panel@@H@Z 101d9000 f i kv_editor.obj
 0002:00084200       ?Base@?$CUtlMemory@PAVCKV_Editor_Base_Panel@@H@@QAEPAPAVCKV_Editor_Base_Panel@@XZ 101d9200 f i kv_editor.obj
 0002:00084320       ?Purge@?$CUtlMemory@PAVCKV_Editor_Base_Panel@@H@@QAEXXZ 101d9320 f i kv_editor.obj
 0002:000843d0       ?ValidateGrowSize@?$CUtlMemory@PAVCKV_Editor_Base_Panel@@H@@IAEXXZ 101d93d0 f i kv_editor.obj
 0002:00084410       ?Element@?$CUtlVector@PAVCKV_Editor_Base_Panel@@V?$CUtlMemory@PAVCKV_Editor_Base_Panel@@H@@@@QAEAAPAVCKV_Editor_Base_Panel@@H@Z 101d9410 f i kv_editor.obj
 0002:00084540       ?IsValidIndex@?$CUtlVector@PAVCKV_Editor_Base_Panel@@V?$CUtlMemory@PAVCKV_Editor_Base_Panel@@H@@@@QBE_NH@Z 101d9540 f i kv_editor.obj
 0002:000845b0       ?GrowVector@?$CUtlVector@PAVCKV_Editor_Base_Panel@@V?$CUtlMemory@PAVCKV_Editor_Base_Panel@@H@@@@IAEXH@Z 101d95b0 f i kv_editor.obj
 0002:000846d0       ?ShiftElementsRight@?$CUtlVector@PAVCKV_Editor_Base_Panel@@V?$CUtlMemory@PAVCKV_Editor_Base_Panel@@H@@@@IAEXHH@Z 101d96d0 f i kv_editor.obj
 0002:00084870       ??$CopyConstruct@PAVCKV_Editor_Base_Panel@@@@YAPAPAVCKV_Editor_Base_Panel@@PAPAV0@ABQAV0@@Z 101d9870 f i kv_editor.obj
 0002:00084910       ??$Destruct@PAVCKV_Editor_Base_Panel@@@@YAXPAPAVCKV_Editor_Base_Panel@@@Z 101d9910 f i kv_editor.obj
 0002:00084970       ?IsIdxValid@?$CUtlMemory@PAVCKV_Editor_Base_Panel@@H@@QBE_NH@Z 101d9970 f i kv_editor.obj
 0002:000849f0       ?IsExternallyAllocated@?$CUtlMemory@PAVCKV_Editor_Base_Panel@@H@@QBE_NXZ 101d99f0 f i kv_editor.obj
 0002:00084a40       ?IsReadOnly@?$CUtlMemory@PAVCKV_Editor_Base_Panel@@H@@QBE_NXZ 101d9a40 f i kv_editor.obj
 0002:00084a90       ??$MemAllocClassName@V?$CUtlMemory@PAVCKV_Editor_Base_Panel@@H@@@@YAPBDPAV?$CUtlMemory@PAVCKV_Editor_Base_Panel@@H@@@Z 101d9a90 f i kv_editor.obj
 0002:00084b10       ?NumAllocated@?$CUtlMemory@PAVCKV_Editor_Base_Panel@@H@@QBEHXZ 101d9b10 f i kv_editor.obj
 0002:00084b50       ?Grow@?$CUtlMemory@PAVCKV_Editor_Base_Panel@@H@@QAEXH@Z 101d9b50 f i kv_editor.obj
 0002:000851c0       ??$MemAllocClassName@V?$CUtlVector@PAVCKV_Editor_Base_Panel@@V?$CUtlMemory@PAVCKV_Editor_Base_Panel@@H@@@@@@YAPBDPAV?$CUtlVector@PAVCKV_Editor_Base_Panel@@V?$CUtlMemory@PAVCKV_Editor_Base_Panel@@H@@@@@Z 101da1c0 f i kv_editor.obj
 0002:00085240       ??0CKV_Editor_Base_Panel@@QAE@PAVPanel@vgui@@PBD@Z 101da240 f   kv_editor_base_panel.obj
 0002:00085350       ??0CKV_Editor_Base_Panel_RegisterMap@CKV_Editor_Base_Panel@@QAE@XZ 101da350 f i kv_editor_base_panel.obj
 0002:000853a0       ?ChainToMap@CKV_Editor_Base_Panel@@SAXXZ 101da3a0 f i kv_editor_base_panel.obj
 0002:00085460       ?GetMessageMap@CKV_Editor_Base_Panel@@UAEPAUPanelMessageMap@vgui@@XZ 101da460 f i kv_editor_base_panel.obj
 0002:000854e0       ??0CKV_Editor_Base_Panel_Register@CKV_Editor_Base_Panel@@QAE@XZ 101da4e0 f i kv_editor_base_panel.obj
 0002:00085530       ?ChainToAnimationMap@CKV_Editor_Base_Panel@@SAXXZ 101da530 f i kv_editor_base_panel.obj
 0002:000855f0       ?GetAnimMap@CKV_Editor_Base_Panel@@UAEPAUPanelAnimationMap@@XZ 101da5f0 f i kv_editor_base_panel.obj
 0002:00085650       ??0CKV_Editor_Base_Panel_RegisterKBMap@CKV_Editor_Base_Panel@@QAE@XZ 101da650 f i kv_editor_base_panel.obj
 0002:000856a0       ?KB_ChainToMap@CKV_Editor_Base_Panel@@SAXXZ 101da6a0 f i kv_editor_base_panel.obj
 0002:00085760       ?GetKBMap@CKV_Editor_Base_Panel@@UAEPAUPanelKeyBindingMap@vgui@@XZ 101da760 f i kv_editor_base_panel.obj
 0002:000857e0       ?GetPanelClassName@CKV_Editor_Base_Panel@@SAPBDXZ 101da7e0 f i kv_editor_base_panel.obj
 0002:00085820       ?GetPanelBaseClassName@CKV_Editor_Base_Panel@@SAPBDXZ 101da820 f i kv_editor_base_panel.obj
 0002:00085860       ?UpdatePanel@CKV_Editor_Base_Panel@@UAEXXZ 101da860 f i kv_editor_base_panel.obj
 0002:000858a0       ??_ECKV_Editor_Base_Panel@@UAEPAXI@Z 101da8a0 f i kv_editor_base_panel.obj
 0002:000858a0       ??_GCKV_Editor_Base_Panel@@UAEPAXI@Z 101da8a0 f i kv_editor_base_panel.obj
 0002:00085910       ?PerformLayout@CKV_Editor_Base_Panel@@UAEXXZ 101da910 f   kv_editor_base_panel.obj
 0002:00085960       ?SetKey@CKV_Editor_Base_Panel@@QAEXPAVKeyValues@@@Z 101da960 f   kv_editor_base_panel.obj
 0002:000859f0       ?SetKeyParent@CKV_Editor_Base_Panel@@QAEXPAVKeyValues@@@Z 101da9f0 f   kv_editor_base_panel.obj
 0002:00085a50       ?SetFileSpecNode@CKV_Editor_Base_Panel@@QAEXPAVKeyValues@@@Z 101daa50 f   kv_editor_base_panel.obj
 0002:00085ad0       ??0CKV_Editor_Frame@@QAE@PAVPanel@vgui@@PBD@Z 101daad0 f   kv_editor_frame.obj
 0002:00086080       ??0CKV_Editor_Frame_RegisterMap@CKV_Editor_Frame@@QAE@XZ 101db080 f i kv_editor_frame.obj
 0002:000860d0       ?ChainToMap@CKV_Editor_Frame@@SAXXZ 101db0d0 f i kv_editor_frame.obj
 0002:00086190       ?GetMessageMap@CKV_Editor_Frame@@UAEPAUPanelMessageMap@vgui@@XZ 101db190 f i kv_editor_frame.obj
 0002:00086210       ??0CKV_Editor_Frame_Register@CKV_Editor_Frame@@QAE@XZ 101db210 f i kv_editor_frame.obj
 0002:00086260       ?ChainToAnimationMap@CKV_Editor_Frame@@SAXXZ 101db260 f i kv_editor_frame.obj
 0002:00086320       ?GetAnimMap@CKV_Editor_Frame@@UAEPAUPanelAnimationMap@@XZ 101db320 f i kv_editor_frame.obj
 0002:00086380       ??0CKV_Editor_Frame_RegisterKBMap@CKV_Editor_Frame@@QAE@XZ 101db380 f i kv_editor_frame.obj
 0002:000863d0       ?KB_ChainToMap@CKV_Editor_Frame@@SAXXZ 101db3d0 f i kv_editor_frame.obj
 0002:00086490       ?GetKBMap@CKV_Editor_Frame@@UAEPAUPanelKeyBindingMap@vgui@@XZ 101db490 f i kv_editor_frame.obj
 0002:00086510       ?GetPanelClassName@CKV_Editor_Frame@@SAPBDXZ 101db510 f i kv_editor_frame.obj
 0002:00086550       ?GetPanelBaseClassName@CKV_Editor_Frame@@SAPBDXZ 101db550 f i kv_editor_frame.obj
 0002:00086590       ??_ECKV_Editor_Frame@@UAEPAXI@Z 101db590 f i kv_editor_frame.obj
 0002:00086590       ??_GCKV_Editor_Frame@@UAEPAXI@Z 101db590 f i kv_editor_frame.obj
 0002:00086600       ??1CKV_Editor_Frame@@UAE@XZ 101db600 f   kv_editor_frame.obj
 0002:00086660       ?OnClose@CKV_Editor_Frame@@MAEXXZ 101db660 f   kv_editor_frame.obj
 0002:000866b0       ?OnCommand@CKV_Editor_Frame@@MAEXPBD@Z 101db6b0 f   kv_editor_frame.obj
 0002:00086810       ?GetKeys@CKV_Editor@@QAEPAVKeyValues@@XZ 101db810 f i kv_editor_frame.obj
 0002:00086850       ?PerformLayout@CKV_Editor_Frame@@UAEXXZ 101db850 f   kv_editor_frame.obj
 0002:00086a30       ?surface@vgui@@YAPAVISurface@1@XZ 101dba30 f i kv_editor_frame.obj
 0002:00086a70       ?ApplySchemeSettings@CKV_Editor_Frame@@UAEXPAVIScheme@vgui@@@Z 101dba70 f   kv_editor_frame.obj
 0002:00086ad0       ?DoFileOpen@CKV_Editor_Frame@@QAEXXZ 101dbad0 f   kv_editor_frame.obj
 0002:00086c20       ?GetFileFilter@CKV_Editor@@QAEPBDXZ 101dbc20 f i kv_editor_frame.obj
 0002:00086c60       ?GetFileFilterName@CKV_Editor@@QAEPBDXZ 101dbc60 f i kv_editor_frame.obj
 0002:00086ca0       ?GetFileDirectory@CKV_Editor@@QAEPBDXZ 101dbca0 f i kv_editor_frame.obj
 0002:00086ce0       ?DoFileSaveAs@CKV_Editor_Frame@@QAEXXZ 101dbce0 f   kv_editor_frame.obj
 0002:00086e30       ?OnFileSelected@CKV_Editor_Frame@@QAEXPBD@Z 101dbe30 f   kv_editor_frame.obj
 0002:00087100       ?GetPanelMap@CKV_Editor_Frame@@UAEPAUPanelMap_t@vgui@@XZ 101dc100 f   kv_editor_frame.obj
 0002:00087140       ??0CKV_Fit_Children_Panel@@QAE@PAVPanel@vgui@@PBD@Z 101dc140 f   kv_fit_children_panel.obj
 0002:00087250       ??0CKV_Fit_Children_Panel_RegisterMap@CKV_Fit_Children_Panel@@QAE@XZ 101dc250 f i kv_fit_children_panel.obj
 0002:000872a0       ?ChainToMap@CKV_Fit_Children_Panel@@SAXXZ 101dc2a0 f i kv_fit_children_panel.obj
 0002:00087360       ?GetMessageMap@CKV_Fit_Children_Panel@@UAEPAUPanelMessageMap@vgui@@XZ 101dc360 f i kv_fit_children_panel.obj
 0002:000873e0       ??0CKV_Fit_Children_Panel_Register@CKV_Fit_Children_Panel@@QAE@XZ 101dc3e0 f i kv_fit_children_panel.obj
 0002:00087430       ?ChainToAnimationMap@CKV_Fit_Children_Panel@@SAXXZ 101dc430 f i kv_fit_children_panel.obj
 0002:000874f0       ?GetAnimMap@CKV_Fit_Children_Panel@@UAEPAUPanelAnimationMap@@XZ 101dc4f0 f i kv_fit_children_panel.obj
 0002:00087550       ??0CKV_Fit_Children_Panel_RegisterKBMap@CKV_Fit_Children_Panel@@QAE@XZ 101dc550 f i kv_fit_children_panel.obj
 0002:000875a0       ?KB_ChainToMap@CKV_Fit_Children_Panel@@SAXXZ 101dc5a0 f i kv_fit_children_panel.obj
 0002:00087660       ?GetKBMap@CKV_Fit_Children_Panel@@UAEPAUPanelKeyBindingMap@vgui@@XZ 101dc660 f i kv_fit_children_panel.obj
 0002:000876e0       ?GetPanelClassName@CKV_Fit_Children_Panel@@SAPBDXZ 101dc6e0 f i kv_fit_children_panel.obj
 0002:00087720       ?GetPanelBaseClassName@CKV_Fit_Children_Panel@@SAPBDXZ 101dc720 f i kv_fit_children_panel.obj
 0002:00087760       ??0PanelAnimationVar_m_iBorder@CKV_Fit_Children_Panel@@QAE@XZ 101dc760 f i kv_fit_children_panel.obj
 0002:000877b0       ?InitVar@PanelAnimationVar_m_iBorder@CKV_Fit_Children_Panel@@SAXXZ 101dc7b0 f i kv_fit_children_panel.obj
 0002:00087830       ?AddToAnimationMap@CKV_Fit_Children_Panel@@SAXPBD000_NP6APAXPAVPanel@vgui@@@Z@Z 101dc830 f i kv_fit_children_panel.obj
 0002:00087900       ?GetVar_m_iBorder@CKV_Fit_Children_Panel@@SAPAXPAVPanel@vgui@@@Z 101dc900 f i kv_fit_children_panel.obj
 0002:00087940       ??0PanelAnimationVar_m_iSpacing@CKV_Fit_Children_Panel@@QAE@XZ 101dc940 f i kv_fit_children_panel.obj
 0002:00087990       ?InitVar@PanelAnimationVar_m_iSpacing@CKV_Fit_Children_Panel@@SAXXZ 101dc990 f i kv_fit_children_panel.obj
 0002:00087a10       ?GetVar_m_iSpacing@CKV_Fit_Children_Panel@@SAPAXPAVPanel@vgui@@@Z 101dca10 f i kv_fit_children_panel.obj
 0002:00087a50       ??_ECKV_Fit_Children_Panel@@UAEPAXI@Z 101dca50 f i kv_fit_children_panel.obj
 0002:00087a50       ??_GCKV_Fit_Children_Panel@@UAEPAXI@Z 101dca50 f i kv_fit_children_panel.obj
 0002:00087ac0       ??1CKV_Fit_Children_Panel@@UAE@XZ 101dcac0 f i kv_fit_children_panel.obj
 0002:00087b20       ??1?$CUtlSortVector@PAVCKV_Editor_Base_Panel@@VFitChildrenLessFunc@@@@QAE@XZ 101dcb20 f i kv_fit_children_panel.obj
 0002:00087b70       ?Less@FitChildrenLessFunc@@QAE_NABQAVCKV_Editor_Base_Panel@@0PAX@Z 101dcb70 f   kv_fit_children_panel.obj
 0002:00087c60       ?GetSortOrder@CKV_Editor_Base_Panel@@QBEMXZ 101dcc60 f i kv_fit_children_panel.obj
 0002:00087ca0       ?PerformLayout@CKV_Fit_Children_Panel@@UAEXXZ 101dcca0 f   kv_fit_children_panel.obj
 0002:00087fc0       ?IsNodePanel@CKV_Fit_Children_Panel@@QAE_NPAVPanel@vgui@@@Z 101dcfc0 f   kv_fit_children_panel.obj
 0002:00088030       ?AddAutoPositionPanel@CKV_Fit_Children_Panel@@QAEXPAVCKV_Editor_Base_Panel@@@Z 101dd030 f   kv_fit_children_panel.obj
 0002:00088090       ?RemoveAutoPositionPanel@CKV_Fit_Children_Panel@@QAEXPAVCKV_Editor_Base_Panel@@@Z 101dd090 f   kv_fit_children_panel.obj
 0002:000880f0       ?ClearAutoPositionPanels@CKV_Fit_Children_Panel@@QAEXXZ 101dd0f0 f   kv_fit_children_panel.obj
 0002:00088150       ?AddToTail@?$CUtlVector@UPanelAnimationMapEntry@@V?$CUtlMemory@UPanelAnimationMapEntry@@H@@@@QAEHABUPanelAnimationMapEntry@@@Z 101dd150 f i kv_fit_children_panel.obj
 0002:000882c0       ??0?$CUtlSortVector@PAVCKV_Editor_Base_Panel@@VFitChildrenLessFunc@@@@QAE@HH@Z 101dd2c0 f i kv_fit_children_panel.obj
 0002:00088340       ?Insert@?$CUtlSortVector@PAVCKV_Editor_Base_Panel@@VFitChildrenLessFunc@@@@QAEHABQAVCKV_Editor_Base_Panel@@@Z 101dd340 f i kv_fit_children_panel.obj
 0002:000884c0       ?Remove@?$CUtlSortVector@PAVCKV_Editor_Base_Panel@@VFitChildrenLessFunc@@@@QAEXABQAVCKV_Editor_Base_Panel@@@Z 101dd4c0 f i kv_fit_children_panel.obj
 0002:00088610       ?Base@?$CUtlVector@UPanelAnimationMapEntry@@V?$CUtlMemory@UPanelAnimationMapEntry@@H@@@@QAEPAUPanelAnimationMapEntry@@XZ 101dd610 f i kv_fit_children_panel.obj
 0002:00088660       ?Count@?$CUtlVector@UPanelAnimationMapEntry@@V?$CUtlMemory@UPanelAnimationMapEntry@@H@@@@QBEHXZ 101dd660 f i kv_fit_children_panel.obj
 0002:000886a0       ?InsertBefore@?$CUtlVector@UPanelAnimationMapEntry@@V?$CUtlMemory@UPanelAnimationMapEntry@@H@@@@QAEHHABUPanelAnimationMapEntry@@@Z 101dd6a0 f i kv_fit_children_panel.obj
 0002:00088930       ?Base@?$CUtlMemory@UPanelAnimationMapEntry@@H@@QAEPAUPanelAnimationMapEntry@@XZ 101dd930 f i kv_fit_children_panel.obj
 0002:00088a50       ?Remove@?$CUtlVector@PAVCKV_Editor_Base_Panel@@V?$CUtlMemory@PAVCKV_Editor_Base_Panel@@H@@@@QAEXH@Z 101dda50 f i kv_fit_children_panel.obj
 0002:00088ae0       ?Find@?$CUtlSortVector@PAVCKV_Editor_Base_Panel@@VFitChildrenLessFunc@@@@QBEHABQAVCKV_Editor_Base_Panel@@@Z 101ddae0 f i kv_fit_children_panel.obj
 0002:00088cf0       ?FindLessOrEqual@?$CUtlSortVector@PAVCKV_Editor_Base_Panel@@VFitChildrenLessFunc@@@@QBEHABQAVCKV_Editor_Base_Panel@@@Z 101ddcf0 f i kv_fit_children_panel.obj
 0002:00088f00       ?Element@?$CUtlVector@UPanelAnimationMapEntry@@V?$CUtlMemory@UPanelAnimationMapEntry@@H@@@@QAEAAUPanelAnimationMapEntry@@H@Z 101ddf00 f i kv_fit_children_panel.obj
 0002:00089030       ?IsValidIndex@?$CUtlVector@UPanelAnimationMapEntry@@V?$CUtlMemory@UPanelAnimationMapEntry@@H@@@@QBE_NH@Z 101de030 f i kv_fit_children_panel.obj
 0002:000890a0       ?GrowVector@?$CUtlVector@UPanelAnimationMapEntry@@V?$CUtlMemory@UPanelAnimationMapEntry@@H@@@@IAEXH@Z 101de0a0 f i kv_fit_children_panel.obj
 0002:000891c0       ?ResetDbgInfo@?$CUtlVector@UPanelAnimationMapEntry@@V?$CUtlMemory@UPanelAnimationMapEntry@@H@@@@IAEXXZ 101de1c0 f i kv_fit_children_panel.obj
 0002:00089220       ?ShiftElementsRight@?$CUtlVector@UPanelAnimationMapEntry@@V?$CUtlMemory@UPanelAnimationMapEntry@@H@@@@IAEXHH@Z 101de220 f i kv_fit_children_panel.obj
 0002:000893c0       ??$CopyConstruct@UPanelAnimationMapEntry@@@@YAPAUPanelAnimationMapEntry@@PAU0@ABU0@@Z 101de3c0 f i kv_fit_children_panel.obj
 0002:00089480       ?IsReadOnly@?$CUtlMemory@UPanelAnimationMapEntry@@H@@QBE_NXZ 101de480 f i kv_fit_children_panel.obj
 0002:000894d0       ?Element@?$CUtlVector@PAVCKV_Editor_Base_Panel@@V?$CUtlMemory@PAVCKV_Editor_Base_Panel@@H@@@@QBEABQAVCKV_Editor_Base_Panel@@H@Z 101de4d0 f i kv_fit_children_panel.obj
 0002:00089600       ?ShiftElementsLeft@?$CUtlVector@PAVCKV_Editor_Base_Panel@@V?$CUtlMemory@PAVCKV_Editor_Base_Panel@@H@@@@IAEXHH@Z 101de600 f i kv_fit_children_panel.obj
 0002:000897d0       ??A?$CUtlMemory@UPanelAnimationMapEntry@@H@@QAEAAUPanelAnimationMapEntry@@H@Z 101de7d0 f i kv_fit_children_panel.obj
 0002:000899d0       ?NumAllocated@?$CUtlMemory@UPanelAnimationMapEntry@@H@@QBEHXZ 101de9d0 f i kv_fit_children_panel.obj
 0002:00089a10       ?Grow@?$CUtlMemory@UPanelAnimationMapEntry@@H@@QAEXH@Z 101dea10 f i kv_fit_children_panel.obj
 0002:0008a080       ??$MemAllocClassName@V?$CUtlMemory@UPanelAnimationMapEntry@@H@@@@YAPBDPAV?$CUtlMemory@UPanelAnimationMapEntry@@H@@@Z 101df080 f i kv_fit_children_panel.obj
 0002:0008a100       ?IsExternallyAllocated@?$CUtlMemory@UPanelAnimationMapEntry@@H@@QBE_NXZ 101df100 f i kv_fit_children_panel.obj
 0002:0008a150       ??$MemAllocClassName@V?$CUtlVector@UPanelAnimationMapEntry@@V?$CUtlMemory@UPanelAnimationMapEntry@@H@@@@@@YAPBDPAV?$CUtlVector@UPanelAnimationMapEntry@@V?$CUtlMemory@UPanelAnimationMapEntry@@H@@@@@Z 101df150 f i kv_fit_children_panel.obj
 0002:0008a1d0       ??A?$CUtlMemory@PAVCKV_Editor_Base_Panel@@H@@QBEABQAVCKV_Editor_Base_Panel@@H@Z 101df1d0 f i kv_fit_children_panel.obj
 0002:0008a300       ?IsIdxValid@?$CUtlMemory@UPanelAnimationMapEntry@@H@@QBE_NH@Z 101df300 f i kv_fit_children_panel.obj
 0002:0008a380       ??0CKV_Leaf_Panel@@QAE@PAVPanel@vgui@@PBD@Z 101df380 f   kv_leaf_panel.obj
 0002:0008a620       ??0CKV_Leaf_Panel_RegisterMap@CKV_Leaf_Panel@@QAE@XZ 101df620 f i kv_leaf_panel.obj
 0002:0008a670       ?ChainToMap@CKV_Leaf_Panel@@SAXXZ 101df670 f i kv_leaf_panel.obj
 0002:0008a730       ?GetMessageMap@CKV_Leaf_Panel@@UAEPAUPanelMessageMap@vgui@@XZ 101df730 f i kv_leaf_panel.obj
 0002:0008a7b0       ??0CKV_Leaf_Panel_Register@CKV_Leaf_Panel@@QAE@XZ 101df7b0 f i kv_leaf_panel.obj
 0002:0008a800       ?ChainToAnimationMap@CKV_Leaf_Panel@@SAXXZ 101df800 f i kv_leaf_panel.obj
 0002:0008a8c0       ?GetAnimMap@CKV_Leaf_Panel@@UAEPAUPanelAnimationMap@@XZ 101df8c0 f i kv_leaf_panel.obj
 0002:0008a920       ??0CKV_Leaf_Panel_RegisterKBMap@CKV_Leaf_Panel@@QAE@XZ 101df920 f i kv_leaf_panel.obj
 0002:0008a970       ?KB_ChainToMap@CKV_Leaf_Panel@@SAXXZ 101df970 f i kv_leaf_panel.obj
 0002:0008aa30       ?GetKBMap@CKV_Leaf_Panel@@UAEPAUPanelKeyBindingMap@vgui@@XZ 101dfa30 f i kv_leaf_panel.obj
 0002:0008aab0       ?GetPanelClassName@CKV_Leaf_Panel@@SAPBDXZ 101dfab0 f i kv_leaf_panel.obj
 0002:0008aaf0       ?GetPanelBaseClassName@CKV_Leaf_Panel@@SAPBDXZ 101dfaf0 f i kv_leaf_panel.obj
 0002:0008ab30       ??0PanelMessageFunc_TextEntryChanged@CKV_Leaf_Panel@@QAE@XZ 101dfb30 f i kv_leaf_panel.obj
 0002:0008ab80       ?InitVar@PanelMessageFunc_TextEntryChanged@CKV_Leaf_Panel@@SAXXZ 101dfb80 f i kv_leaf_panel.obj
 0002:0008ac60       ?AddToMap@CKV_Leaf_Panel@@SAXPBDP8Panel@vgui@@AEXXZHH0H0@Z 101dfc60 f i kv_leaf_panel.obj
 0002:0008ad70       ??_ECKV_Leaf_Panel@@UAEPAXI@Z 101dfd70 f i kv_leaf_panel.obj
 0002:0008ad70       ??_GCKV_Leaf_Panel@@UAEPAXI@Z 101dfd70 f i kv_leaf_panel.obj
 0002:0008ade0       ??1CKV_Leaf_Panel@@UAE@XZ  101dfde0 f i kv_leaf_panel.obj
 0002:0008ae30       ?PerformLayout@CKV_Leaf_Panel@@UAEXXZ 101dfe30 f   kv_leaf_panel.obj
 0002:0008b0b0       ?ApplySchemeSettings@CKV_Leaf_Panel@@UAEXPAVIScheme@vgui@@@Z 101e00b0 f   kv_leaf_panel.obj
 0002:0008b1a0       ?UpdatePanel@CKV_Leaf_Panel@@UAEXXZ 101e01a0 f   kv_leaf_panel.obj
 0002:0008b460       ?TextEntryChanged@CKV_Leaf_Panel@@UAEXPAVPanel@vgui@@@Z 101e0460 f   kv_leaf_panel.obj
 0002:0008b600       ?OnCommand@CKV_Leaf_Panel@@UAEXPBD@Z 101e0600 f   kv_leaf_panel.obj
 0002:0008b700       ??_9CKV_Leaf_Panel@@$BDLA@AE 101e0700 f i kv_leaf_panel.obj
 0002:0008b7b0       ??0CKV_Node_Panel@@QAE@PAVPanel@vgui@@PBD@Z 101e07b0 f   kv_node_panel.obj
 0002:0008ba20       ??0CKV_Node_Panel_RegisterMap@CKV_Node_Panel@@QAE@XZ 101e0a20 f i kv_node_panel.obj
 0002:0008ba70       ?ChainToMap@CKV_Node_Panel@@SAXXZ 101e0a70 f i kv_node_panel.obj
 0002:0008bb30       ?GetMessageMap@CKV_Node_Panel@@UAEPAUPanelMessageMap@vgui@@XZ 101e0b30 f i kv_node_panel.obj
 0002:0008bbb0       ??0CKV_Node_Panel_Register@CKV_Node_Panel@@QAE@XZ 101e0bb0 f i kv_node_panel.obj
 0002:0008bc00       ?ChainToAnimationMap@CKV_Node_Panel@@SAXXZ 101e0c00 f i kv_node_panel.obj
 0002:0008bcc0       ?GetAnimMap@CKV_Node_Panel@@UAEPAUPanelAnimationMap@@XZ 101e0cc0 f i kv_node_panel.obj
 0002:0008bd20       ??0CKV_Node_Panel_RegisterKBMap@CKV_Node_Panel@@QAE@XZ 101e0d20 f i kv_node_panel.obj
 0002:0008bd70       ?KB_ChainToMap@CKV_Node_Panel@@SAXXZ 101e0d70 f i kv_node_panel.obj
 0002:0008be30       ?GetKBMap@CKV_Node_Panel@@UAEPAUPanelKeyBindingMap@vgui@@XZ 101e0e30 f i kv_node_panel.obj
 0002:0008beb0       ?GetPanelClassName@CKV_Node_Panel@@SAPBDXZ 101e0eb0 f i kv_node_panel.obj
 0002:0008bef0       ?GetPanelBaseClassName@CKV_Node_Panel@@SAPBDXZ 101e0ef0 f i kv_node_panel.obj
 0002:0008bf30       ??0PanelMessageFunc_OnAddButtonPressed@CKV_Node_Panel@@QAE@XZ 101e0f30 f i kv_node_panel.obj
 0002:0008bf80       ?InitVar@PanelMessageFunc_OnAddButtonPressed@CKV_Node_Panel@@SAXXZ 101e0f80 f i kv_node_panel.obj
 0002:0008c060       ?AddToMap@CKV_Node_Panel@@SAXPBDP8Panel@vgui@@AEXXZHH0H0@Z 101e1060 f i kv_node_panel.obj
 0002:0008c170       ??0PanelAnimationVar_m_iLabelInsetX@CKV_Node_Panel@@QAE@XZ 101e1170 f i kv_node_panel.obj
 0002:0008c1c0       ?InitVar@PanelAnimationVar_m_iLabelInsetX@CKV_Node_Panel@@SAXXZ 101e11c0 f i kv_node_panel.obj
 0002:0008c240       ?AddToAnimationMap@CKV_Node_Panel@@SAXPBD000_NP6APAXPAVPanel@vgui@@@Z@Z 101e1240 f i kv_node_panel.obj
 0002:0008c310       ?GetVar_m_iLabelInsetX@CKV_Node_Panel@@SAPAXPAVPanel@vgui@@@Z 101e1310 f i kv_node_panel.obj
 0002:0008c350       ??0PanelAnimationVar_m_iLabelInsetY@CKV_Node_Panel@@QAE@XZ 101e1350 f i kv_node_panel.obj
 0002:0008c3a0       ?InitVar@PanelAnimationVar_m_iLabelInsetY@CKV_Node_Panel@@SAXXZ 101e13a0 f i kv_node_panel.obj
 0002:0008c420       ?GetVar_m_iLabelInsetY@CKV_Node_Panel@@SAPAXPAVPanel@vgui@@@Z 101e1420 f i kv_node_panel.obj
 0002:0008c460       ??_ECKV_Node_Panel@@UAEPAXI@Z 101e1460 f i kv_node_panel.obj
 0002:0008c460       ??_GCKV_Node_Panel@@UAEPAXI@Z 101e1460 f i kv_node_panel.obj
 0002:0008c4d0       ??1CKV_Node_Panel@@UAE@XZ  101e14d0 f i kv_node_panel.obj
 0002:0008c530       ?PerformLayout@CKV_Node_Panel@@UAEXXZ 101e1530 f   kv_node_panel.obj
 0002:0008c840       ?ApplySchemeSettings@CKV_Node_Panel@@UAEXPAVIScheme@vgui@@@Z 101e1840 f   kv_node_panel.obj
 0002:0008c910       ?UpdatePanel@CKV_Node_Panel@@UAEXXZ 101e1910 f   kv_node_panel.obj
 0002:0008cf80       ?OnCommand@CKV_Node_Panel@@UAEXPBD@Z 101e1f80 f   kv_node_panel.obj
 0002:0008d080       ?OnAddButtonPressed@CKV_Node_Panel@@UAEXPBD@Z 101e2080 f   kv_node_panel.obj
 0002:0008d120       ??0?$CUtlVector@PAVButton@vgui@@V?$CUtlMemory@PAVButton@vgui@@H@@@@QAE@HH@Z 101e2120 f i kv_node_panel.obj
 0002:0008d1a0       ??1?$CUtlVector@PAVButton@vgui@@V?$CUtlMemory@PAVButton@vgui@@H@@@@QAE@XZ 101e21a0 f i kv_node_panel.obj
 0002:0008d200       ??A?$CUtlVector@PAVButton@vgui@@V?$CUtlMemory@PAVButton@vgui@@H@@@@QAEAAPAVButton@vgui@@H@Z 101e2200 f i kv_node_panel.obj
 0002:0008d330       ?Count@?$CUtlVector@PAVButton@vgui@@V?$CUtlMemory@PAVButton@vgui@@H@@@@QBEHXZ 101e2330 f i kv_node_panel.obj
 0002:0008d370       ?AddToTail@?$CUtlVector@PAVButton@vgui@@V?$CUtlMemory@PAVButton@vgui@@H@@@@QAEHABQAVButton@vgui@@@Z 101e2370 f i kv_node_panel.obj
 0002:0008d4e0       ?Purge@?$CUtlVector@PAVButton@vgui@@V?$CUtlMemory@PAVButton@vgui@@H@@@@QAEXXZ 101e24e0 f i kv_node_panel.obj
 0002:0008d550       ?Base@?$CUtlVector@PAVButton@vgui@@V?$CUtlMemory@PAVButton@vgui@@H@@@@QAEPAPAVButton@vgui@@XZ 101e2550 f i kv_node_panel.obj
 0002:0008d5a0       ?ResetDbgInfo@?$CUtlVector@PAVButton@vgui@@V?$CUtlMemory@PAVButton@vgui@@H@@@@IAEXXZ 101e25a0 f i kv_node_panel.obj
 0002:0008d600       ?InsertBefore@?$CUtlVector@PAVButton@vgui@@V?$CUtlMemory@PAVButton@vgui@@H@@@@QAEHHABQAVButton@vgui@@@Z 101e2600 f i kv_node_panel.obj
 0002:0008d880       ?RemoveAll@?$CUtlVector@PAVButton@vgui@@V?$CUtlMemory@PAVButton@vgui@@H@@@@QAEXXZ 101e2880 f i kv_node_panel.obj
 0002:0008d910       ??0?$CUtlMemory@PAVButton@vgui@@H@@QAE@HH@Z 101e2910 f i kv_node_panel.obj
 0002:0008db00       ??1?$CUtlMemory@PAVButton@vgui@@H@@QAE@XZ 101e2b00 f i kv_node_panel.obj
 0002:0008db50       ??A?$CUtlMemory@PAVButton@vgui@@H@@QAEAAPAVButton@vgui@@H@Z 101e2b50 f i kv_node_panel.obj
 0002:0008dd50       ?Base@?$CUtlMemory@PAVButton@vgui@@H@@QAEPAPAVButton@vgui@@XZ 101e2d50 f i kv_node_panel.obj
 0002:0008de70       ?Purge@?$CUtlMemory@PAVButton@vgui@@H@@QAEXXZ 101e2e70 f i kv_node_panel.obj
 0002:0008df20       ?ValidateGrowSize@?$CUtlMemory@PAVButton@vgui@@H@@IAEXXZ 101e2f20 f i kv_node_panel.obj
 0002:0008df60       ?Element@?$CUtlVector@PAVButton@vgui@@V?$CUtlMemory@PAVButton@vgui@@H@@@@QAEAAPAVButton@vgui@@H@Z 101e2f60 f i kv_node_panel.obj
 0002:0008e090       ?IsValidIndex@?$CUtlVector@PAVButton@vgui@@V?$CUtlMemory@PAVButton@vgui@@H@@@@QBE_NH@Z 101e3090 f i kv_node_panel.obj
 0002:0008e100       ?GrowVector@?$CUtlVector@PAVButton@vgui@@V?$CUtlMemory@PAVButton@vgui@@H@@@@IAEXH@Z 101e3100 f i kv_node_panel.obj
 0002:0008e220       ?ShiftElementsRight@?$CUtlVector@PAVButton@vgui@@V?$CUtlMemory@PAVButton@vgui@@H@@@@IAEXHH@Z 101e3220 f i kv_node_panel.obj
 0002:0008e3c0       ??$CopyConstruct@PAVButton@vgui@@@@YAPAPAVButton@vgui@@PAPAV01@ABQAV01@@Z 101e33c0 f i kv_node_panel.obj
 0002:0008e460       ??$Destruct@PAVButton@vgui@@@@YAXPAPAVButton@vgui@@@Z 101e3460 f i kv_node_panel.obj
 0002:0008e4c0       ?IsIdxValid@?$CUtlMemory@PAVButton@vgui@@H@@QBE_NH@Z 101e34c0 f i kv_node_panel.obj
 0002:0008e540       ?IsExternallyAllocated@?$CUtlMemory@PAVButton@vgui@@H@@QBE_NXZ 101e3540 f i kv_node_panel.obj
 0002:0008e590       ?IsReadOnly@?$CUtlMemory@PAVButton@vgui@@H@@QBE_NXZ 101e3590 f i kv_node_panel.obj
 0002:0008e5e0       ??$MemAllocClassName@V?$CUtlMemory@PAVButton@vgui@@H@@@@YAPBDPAV?$CUtlMemory@PAVButton@vgui@@H@@@Z 101e35e0 f i kv_node_panel.obj
 0002:0008e660       ?NumAllocated@?$CUtlMemory@PAVButton@vgui@@H@@QBEHXZ 101e3660 f i kv_node_panel.obj
 0002:0008e6a0       ?Grow@?$CUtlMemory@PAVButton@vgui@@H@@QAEXH@Z 101e36a0 f i kv_node_panel.obj
 0002:0008ed10       ??$MemAllocClassName@V?$CUtlVector@PAVButton@vgui@@V?$CUtlMemory@PAVButton@vgui@@H@@@@@@YAPBDPAV?$CUtlVector@PAVButton@vgui@@V?$CUtlMemory@PAVButton@vgui@@H@@@@@Z 101e3d10 f i kv_node_panel.obj
 0002:0008ed90       ??_9CKV_Node_Panel@@$BDLA@AE 101e3d90 f i kv_node_panel.obj
 0002:0008ee40       ?GroupTreeSortFunc@?A0x06d49fcb@@YA_NPAVKeyValues@@0@Z 101e3e40 f   location_editor_frame.obj
 0002:0008eed0       ??0CLocation_Editor_Frame@@QAE@PAVPanel@vgui@@PBD@Z 101e3ed0 f   location_editor_frame.obj
 0002:0008f460       ??0CLocation_Editor_Frame_RegisterMap@CLocation_Editor_Frame@@QAE@XZ 101e4460 f i location_editor_frame.obj
 0002:0008f4b0       ?ChainToMap@CLocation_Editor_Frame@@SAXXZ 101e44b0 f i location_editor_frame.obj
 0002:0008f570       ?GetMessageMap@CLocation_Editor_Frame@@UAEPAUPanelMessageMap@vgui@@XZ 101e4570 f i location_editor_frame.obj
 0002:0008f5f0       ??0CLocation_Editor_Frame_Register@CLocation_Editor_Frame@@QAE@XZ 101e45f0 f i location_editor_frame.obj
 0002:0008f640       ?ChainToAnimationMap@CLocation_Editor_Frame@@SAXXZ 101e4640 f i location_editor_frame.obj
 0002:0008f700       ?GetAnimMap@CLocation_Editor_Frame@@UAEPAUPanelAnimationMap@@XZ 101e4700 f i location_editor_frame.obj
 0002:0008f760       ??0CLocation_Editor_Frame_RegisterKBMap@CLocation_Editor_Frame@@QAE@XZ 101e4760 f i location_editor_frame.obj
 0002:0008f7b0       ?KB_ChainToMap@CLocation_Editor_Frame@@SAXXZ 101e47b0 f i location_editor_frame.obj
 0002:0008f870       ?GetKBMap@CLocation_Editor_Frame@@UAEPAUPanelKeyBindingMap@vgui@@XZ 101e4870 f i location_editor_frame.obj
 0002:0008f8f0       ?GetPanelClassName@CLocation_Editor_Frame@@SAPBDXZ 101e48f0 f i location_editor_frame.obj
 0002:0008f930       ?GetPanelBaseClassName@CLocation_Editor_Frame@@SAPBDXZ 101e4930 f i location_editor_frame.obj
 0002:0008f970       ??0PanelMessageFunc_KeyValuesChanged@CLocation_Editor_Frame@@QAE@XZ 101e4970 f i location_editor_frame.obj
 0002:0008f9c0       ?InitVar@PanelMessageFunc_KeyValuesChanged@CLocation_Editor_Frame@@SAXXZ 101e49c0 f i location_editor_frame.obj
 0002:0008faa0       ?AddToMap@CLocation_Editor_Frame@@SAXPBDP8Panel@vgui@@AEXXZHH0H0@Z 101e4aa0 f i location_editor_frame.obj
 0002:0008fbb0       ??0PanelMessageFunc_NewGroup@CLocation_Editor_Frame@@QAE@XZ 101e4bb0 f i location_editor_frame.obj
 0002:0008fc00       ?InitVar@PanelMessageFunc_NewGroup@CLocation_Editor_Frame@@SAXXZ 101e4c00 f i location_editor_frame.obj
 0002:0008fce0       ??0PanelMessageFunc_DeleteGroup@CLocation_Editor_Frame@@QAE@XZ 101e4ce0 f i location_editor_frame.obj
 0002:0008fd30       ?InitVar@PanelMessageFunc_DeleteGroup@CLocation_Editor_Frame@@SAXXZ 101e4d30 f i location_editor_frame.obj
 0002:0008fe10       ??0PanelMessageFunc_OnTreeViewItemSelected@CLocation_Editor_Frame@@QAE@XZ 101e4e10 f i location_editor_frame.obj
 0002:0008fe60       ?InitVar@PanelMessageFunc_OnTreeViewItemSelected@CLocation_Editor_Frame@@SAXXZ 101e4e60 f i location_editor_frame.obj
 0002:0008ff40       ??_ECLocation_Editor_Frame@@UAEPAXI@Z 101e4f40 f i location_editor_frame.obj
 0002:0008ff40       ??_GCLocation_Editor_Frame@@UAEPAXI@Z 101e4f40 f i location_editor_frame.obj
 0002:0008ffb0       ??1CLocation_Editor_Frame@@UAE@XZ 101e4fb0 f   location_editor_frame.obj
 0002:00090010       ?OnClose@CLocation_Editor_Frame@@MAEXXZ 101e5010 f   location_editor_frame.obj
 0002:00090060       ?OnCommand@CLocation_Editor_Frame@@MAEXPBD@Z 101e5060 f   location_editor_frame.obj
 0002:00090150       ?KeyValuesChanged@CLocation_Editor_Frame@@UAEXPAVPanel@vgui@@@Z 101e5150 f   location_editor_frame.obj
 0002:00090230       ?NewGroup@CLocation_Editor_Frame@@UAEXPAVPanel@vgui@@@Z 101e5230 f   location_editor_frame.obj
 0002:00090290       ?DeleteGroup@CLocation_Editor_Frame@@UAEXPAVPanel@vgui@@@Z 101e5290 f   location_editor_frame.obj
 0002:00090310       ?PerformLayout@CLocation_Editor_Frame@@UAEXXZ 101e5310 f   location_editor_frame.obj
 0002:00090420       ?ApplySchemeSettings@CLocation_Editor_Frame@@UAEXPAVIScheme@vgui@@@Z 101e5420 f   location_editor_frame.obj
 0002:00090480       ?UpdateTree@CLocation_Editor_Frame@@IAEXXZ 101e5480 f   location_editor_frame.obj
 0002:00090810       ?OnTreeViewItemSelected@CLocation_Editor_Frame@@MAEXH@Z 101e5810 f   location_editor_frame.obj
 0002:000909c0       ?SetLocationID@CLocation_Editor_Frame@@IAEXH@Z 101e59c0 f   location_editor_frame.obj
 0002:00090b90       ?SetGroup@CLocation_Editor_Frame@@QAEXPAVIASW_Location_Group@@@Z 101e5b90 f   location_editor_frame.obj
 0002:00090c60       ??0CGroup_Edit_Page@@QAE@PAVPanel@vgui@@PBD@Z 101e5c60 f   location_editor_frame.obj
 0002:00090ee0       ??0CGroup_Edit_Page_RegisterMap@CGroup_Edit_Page@@QAE@XZ 101e5ee0 f i location_editor_frame.obj
 0002:00090f30       ?ChainToMap@CGroup_Edit_Page@@SAXXZ 101e5f30 f i location_editor_frame.obj
 0002:00090ff0       ?GetMessageMap@CGroup_Edit_Page@@UAEPAUPanelMessageMap@vgui@@XZ 101e5ff0 f i location_editor_frame.obj
 0002:00091070       ??0CGroup_Edit_Page_Register@CGroup_Edit_Page@@QAE@XZ 101e6070 f i location_editor_frame.obj
 0002:000910c0       ?ChainToAnimationMap@CGroup_Edit_Page@@SAXXZ 101e60c0 f i location_editor_frame.obj
 0002:00091180       ?GetAnimMap@CGroup_Edit_Page@@UAEPAUPanelAnimationMap@@XZ 101e6180 f i location_editor_frame.obj
 0002:000911e0       ??0CGroup_Edit_Page_RegisterKBMap@CGroup_Edit_Page@@QAE@XZ 101e61e0 f i location_editor_frame.obj
 0002:00091230       ?KB_ChainToMap@CGroup_Edit_Page@@SAXXZ 101e6230 f i location_editor_frame.obj
 0002:000912f0       ?GetKBMap@CGroup_Edit_Page@@UAEPAUPanelKeyBindingMap@vgui@@XZ 101e62f0 f i location_editor_frame.obj
 0002:00091370       ?GetPanelClassName@CGroup_Edit_Page@@SAPBDXZ 101e6370 f i location_editor_frame.obj
 0002:000913b0       ?GetPanelBaseClassName@CGroup_Edit_Page@@SAPBDXZ 101e63b0 f i location_editor_frame.obj
 0002:000913f0       ??_ECGroup_Edit_Page@@UAEPAXI@Z 101e63f0 f i location_editor_frame.obj
 0002:000913f0       ??_GCGroup_Edit_Page@@UAEPAXI@Z 101e63f0 f i location_editor_frame.obj
 0002:00091460       ??1CGroup_Edit_Page@@UAE@XZ 101e6460 f   location_editor_frame.obj
 0002:000914c0       ?PerformLayout@CGroup_Edit_Page@@UAEXXZ 101e64c0 f   location_editor_frame.obj
 0002:00091590       ?OnCommand@CGroup_Edit_Page@@UAEXPBD@Z 101e6590 f   location_editor_frame.obj
 0002:000915f0       ?ApplySchemeSettings@CGroup_Edit_Page@@UAEXPAVIScheme@vgui@@@Z 101e65f0 f   location_editor_frame.obj
 0002:00091650       ??_9CLocation_Editor_Frame@@$BEFM@AE 101e6650 f i location_editor_frame.obj
 0002:00091660       ??_9CLocation_Editor_Frame@@$BEGA@AE 101e6660 f i location_editor_frame.obj
 0002:00091670       ??_9CLocation_Editor_Frame@@$BEGE@AE 101e6670 f i location_editor_frame.obj
 0002:00091680       ??_9CLocation_Editor_Frame@@$BEFI@AE 101e6680 f i location_editor_frame.obj
 0002:00091690       ??0CLocation_Layout_Panel@@QAE@PAVPanel@vgui@@0PBD@Z 101e6690 f   location_layout_panel.obj
 0002:00091840       ??0CLocation_Layout_Panel_RegisterMap@CLocation_Layout_Panel@@QAE@XZ 101e6840 f i location_layout_panel.obj
 0002:00091890       ?ChainToMap@CLocation_Layout_Panel@@SAXXZ 101e6890 f i location_layout_panel.obj
 0002:00091950       ?GetMessageMap@CLocation_Layout_Panel@@UAEPAUPanelMessageMap@vgui@@XZ 101e6950 f i location_layout_panel.obj
 0002:000919d0       ??0CLocation_Layout_Panel_Register@CLocation_Layout_Panel@@QAE@XZ 101e69d0 f i location_layout_panel.obj
 0002:00091a20       ?ChainToAnimationMap@CLocation_Layout_Panel@@SAXXZ 101e6a20 f i location_layout_panel.obj
 0002:00091ae0       ?GetAnimMap@CLocation_Layout_Panel@@UAEPAUPanelAnimationMap@@XZ 101e6ae0 f i location_layout_panel.obj
 0002:00091b40       ??0CLocation_Layout_Panel_RegisterKBMap@CLocation_Layout_Panel@@QAE@XZ 101e6b40 f i location_layout_panel.obj
 0002:00091b90       ?KB_ChainToMap@CLocation_Layout_Panel@@SAXXZ 101e6b90 f i location_layout_panel.obj
 0002:00091c50       ?GetKBMap@CLocation_Layout_Panel@@UAEPAUPanelKeyBindingMap@vgui@@XZ 101e6c50 f i location_layout_panel.obj
 0002:00091cd0       ?GetPanelClassName@CLocation_Layout_Panel@@SAPBDXZ 101e6cd0 f i location_layout_panel.obj
 0002:00091d10       ?GetPanelBaseClassName@CLocation_Layout_Panel@@SAPBDXZ 101e6d10 f i location_layout_panel.obj
 0002:00091d50       ??_ECLocation_Layout_Panel@@UAEPAXI@Z 101e6d50 f i location_layout_panel.obj
 0002:00091d50       ??_GCLocation_Layout_Panel@@UAEPAXI@Z 101e6d50 f i location_layout_panel.obj
 0002:00091dc0       ??1CLocation_Layout_Panel@@UAE@XZ 101e6dc0 f   location_layout_panel.obj
 0002:00091e30       ?PerformLayout@CLocation_Layout_Panel@@UAEXXZ 101e6e30 f   location_layout_panel.obj
 0002:00091ef0       ?ApplySchemeSettings@CLocation_Layout_Panel@@UAEXPAVIScheme@vgui@@@Z 101e6ef0 f   location_layout_panel.obj
 0002:00091fd0       ?OnThink@CLocation_Layout_Panel@@UAEXXZ 101e6fd0 f   location_layout_panel.obj
 0002:00092020       ?CreateLocationPanels@CLocation_Layout_Panel@@QAEXXZ 101e7020 f   location_layout_panel.obj
 0002:000922e0       ??0CLocation_Panel@@QAE@PAVPanel@vgui@@PBD@Z 101e72e0 f   location_layout_panel.obj
 0002:00092590       ??0Vector2D@@QAE@XZ        101e7590 f i location_layout_panel.obj
 0002:00092620       ?BitsToFloat@@YAMI@Z       101e7620 f i location_layout_panel.obj
 0002:00092690       ??0CLocation_Panel_RegisterMap@CLocation_Panel@@QAE@XZ 101e7690 f i location_layout_panel.obj
 0002:000926e0       ?ChainToMap@CLocation_Panel@@SAXXZ 101e76e0 f i location_layout_panel.obj
 0002:000927a0       ?GetMessageMap@CLocation_Panel@@UAEPAUPanelMessageMap@vgui@@XZ 101e77a0 f i location_layout_panel.obj
 0002:00092820       ??0CLocation_Panel_Register@CLocation_Panel@@QAE@XZ 101e7820 f i location_layout_panel.obj
 0002:00092870       ?ChainToAnimationMap@CLocation_Panel@@SAXXZ 101e7870 f i location_layout_panel.obj
 0002:00092930       ?GetAnimMap@CLocation_Panel@@UAEPAUPanelAnimationMap@@XZ 101e7930 f i location_layout_panel.obj
 0002:00092990       ??0CLocation_Panel_RegisterKBMap@CLocation_Panel@@QAE@XZ 101e7990 f i location_layout_panel.obj
 0002:000929e0       ?KB_ChainToMap@CLocation_Panel@@SAXXZ 101e79e0 f i location_layout_panel.obj
 0002:00092aa0       ?GetKBMap@CLocation_Panel@@UAEPAUPanelKeyBindingMap@vgui@@XZ 101e7aa0 f i location_layout_panel.obj
 0002:00092b20       ?GetPanelClassName@CLocation_Panel@@SAPBDXZ 101e7b20 f i location_layout_panel.obj
 0002:00092b60       ?GetPanelBaseClassName@CLocation_Panel@@SAPBDXZ 101e7b60 f i location_layout_panel.obj
 0002:00092ba0       ??_GCLocation_Panel@@UAEPAXI@Z 101e7ba0 f i location_layout_panel.obj
 0002:00092ba0       ??_ECLocation_Panel@@UAEPAXI@Z 101e7ba0 f i location_layout_panel.obj
 0002:00092c10       ??1CLocation_Panel@@UAE@XZ 101e7c10 f   location_layout_panel.obj
 0002:00092c90       ?SetLocationID@CLocation_Panel@@QAEXH@Z 101e7c90 f   location_layout_panel.obj
 0002:00092e30       ?OnThink@CLocation_Panel@@UAEXXZ 101e7e30 f   location_layout_panel.obj
 0002:00093380       ?input@vgui@@YAPAVIInput@1@XZ 101e8380 f i location_layout_panel.obj
 0002:000933c0       ?GetLocationEditorFrame@CLocation_Layout_Panel@@QAEPAVCLocation_Editor_Frame@@XZ 101e83c0 f i location_layout_panel.obj
 0002:00093400       ?OnMousePressed@CLocation_Panel@@UAEXW4ButtonCode_t@@@Z 101e8400 f   location_layout_panel.obj
 0002:000935b0       ?GetCurrentLocationID@CLocation_Editor_Frame@@QAEHXZ 101e85b0 f i location_layout_panel.obj
 0002:000935f0       ?OnMouseReleased@CLocation_Panel@@UAEXW4ButtonCode_t@@@Z 101e85f0 f   location_layout_panel.obj
 0002:00093680       ?IsCursorOverHex@CLocation_Panel@@AAE_NXZ 101e8680 f   location_layout_panel.obj
 0002:00093830       ?UpdateHexColor@CLocation_Panel@@AAEXXZ 101e8830 f   location_layout_panel.obj
 0002:00093a80       ?PerformLayout@CLocation_Panel@@UAEXXZ 101e8a80 f   location_layout_panel.obj
 0002:00093d00       ?ApplySchemeSettings@CLocation_Panel@@UAEXPAVIScheme@vgui@@@Z 101e8d00 f   location_layout_panel.obj
 0002:00093ea0       ??0?$CUtlVector@PAVCLocation_Panel@@V?$CUtlMemory@PAVCLocation_Panel@@H@@@@QAE@HH@Z 101e8ea0 f i location_layout_panel.obj
 0002:00093f20       ??1?$CUtlVector@PAVCLocation_Panel@@V?$CUtlMemory@PAVCLocation_Panel@@H@@@@QAE@XZ 101e8f20 f i location_layout_panel.obj
 0002:00093f80       ??A?$CUtlVector@PAVCLocation_Panel@@V?$CUtlMemory@PAVCLocation_Panel@@H@@@@QAEAAPAVCLocation_Panel@@H@Z 101e8f80 f i location_layout_panel.obj
 0002:000940b0       ?Count@?$CUtlVector@PAVCLocation_Panel@@V?$CUtlMemory@PAVCLocation_Panel@@H@@@@QBEHXZ 101e90b0 f i location_layout_panel.obj
 0002:000940f0       ?AddToTail@?$CUtlVector@PAVCLocation_Panel@@V?$CUtlMemory@PAVCLocation_Panel@@H@@@@QAEHABQAVCLocation_Panel@@@Z 101e90f0 f i location_layout_panel.obj
 0002:00094260       ?Base@?$CUtlVector@PAVCLocation_Panel@@V?$CUtlMemory@PAVCLocation_Panel@@H@@@@QAEPAPAVCLocation_Panel@@XZ 101e9260 f i location_layout_panel.obj
 0002:000942b0       ?ResetDbgInfo@?$CUtlVector@PAVCLocation_Panel@@V?$CUtlMemory@PAVCLocation_Panel@@H@@@@IAEXXZ 101e92b0 f i location_layout_panel.obj
 0002:00094310       ?InsertBefore@?$CUtlVector@PAVCLocation_Panel@@V?$CUtlMemory@PAVCLocation_Panel@@H@@@@QAEHHABQAVCLocation_Panel@@@Z 101e9310 f i location_layout_panel.obj
 0002:00094590       ?Purge@?$CUtlVector@PAVCLocation_Panel@@V?$CUtlMemory@PAVCLocation_Panel@@H@@@@QAEXXZ 101e9590 f i location_layout_panel.obj
 0002:00094600       ??0?$CUtlMemory@PAVCLocation_Panel@@H@@QAE@HH@Z 101e9600 f i location_layout_panel.obj
 0002:000947f0       ??1?$CUtlMemory@PAVCLocation_Panel@@H@@QAE@XZ 101e97f0 f i location_layout_panel.obj
 0002:00094840       ??A?$CUtlMemory@PAVCLocation_Panel@@H@@QAEAAPAVCLocation_Panel@@H@Z 101e9840 f i location_layout_panel.obj
 0002:00094a40       ?Base@?$CUtlMemory@PAVCLocation_Panel@@H@@QAEPAPAVCLocation_Panel@@XZ 101e9a40 f i location_layout_panel.obj
 0002:00094b60       ?ValidateGrowSize@?$CUtlMemory@PAVCLocation_Panel@@H@@IAEXXZ 101e9b60 f i location_layout_panel.obj
 0002:00094ba0       ?Element@?$CUtlVector@PAVCLocation_Panel@@V?$CUtlMemory@PAVCLocation_Panel@@H@@@@QAEAAPAVCLocation_Panel@@H@Z 101e9ba0 f i location_layout_panel.obj
 0002:00094cd0       ?IsValidIndex@?$CUtlVector@PAVCLocation_Panel@@V?$CUtlMemory@PAVCLocation_Panel@@H@@@@QBE_NH@Z 101e9cd0 f i location_layout_panel.obj
 0002:00094d40       ?RemoveAll@?$CUtlVector@PAVCLocation_Panel@@V?$CUtlMemory@PAVCLocation_Panel@@H@@@@QAEXXZ 101e9d40 f i location_layout_panel.obj
 0002:00094dd0       ?GrowVector@?$CUtlVector@PAVCLocation_Panel@@V?$CUtlMemory@PAVCLocation_Panel@@H@@@@IAEXH@Z 101e9dd0 f i location_layout_panel.obj
 0002:00094ef0       ?ShiftElementsRight@?$CUtlVector@PAVCLocation_Panel@@V?$CUtlMemory@PAVCLocation_Panel@@H@@@@IAEXHH@Z 101e9ef0 f i location_layout_panel.obj
 0002:00095090       ??$CopyConstruct@PAVCLocation_Panel@@@@YAPAPAVCLocation_Panel@@PAPAV0@ABQAV0@@Z 101ea090 f i location_layout_panel.obj
 0002:00095130       ?IsIdxValid@?$CUtlMemory@PAVCLocation_Panel@@H@@QBE_NH@Z 101ea130 f i location_layout_panel.obj
 0002:000951b0       ?Purge@?$CUtlMemory@PAVCLocation_Panel@@H@@QAEXXZ 101ea1b0 f i location_layout_panel.obj
 0002:00095260       ?IsReadOnly@?$CUtlMemory@PAVCLocation_Panel@@H@@QBE_NXZ 101ea260 f i location_layout_panel.obj
 0002:000952b0       ??$MemAllocClassName@V?$CUtlMemory@PAVCLocation_Panel@@H@@@@YAPBDPAV?$CUtlMemory@PAVCLocation_Panel@@H@@@Z 101ea2b0 f i location_layout_panel.obj
 0002:00095330       ?NumAllocated@?$CUtlMemory@PAVCLocation_Panel@@H@@QBEHXZ 101ea330 f i location_layout_panel.obj
 0002:00095370       ?Grow@?$CUtlMemory@PAVCLocation_Panel@@H@@QAEXH@Z 101ea370 f i location_layout_panel.obj
 0002:000959e0       ?IsExternallyAllocated@?$CUtlMemory@PAVCLocation_Panel@@H@@QBE_NXZ 101ea9e0 f i location_layout_panel.obj
 0002:00095a30       ??$Destruct@PAVCLocation_Panel@@@@YAXPAPAVCLocation_Panel@@@Z 101eaa30 f i location_layout_panel.obj
 0002:00095a90       ??$MemAllocClassName@V?$CUtlVector@PAVCLocation_Panel@@V?$CUtlMemory@PAVCLocation_Panel@@H@@@@@@YAPBDPAV?$CUtlVector@PAVCLocation_Panel@@V?$CUtlMemory@PAVCLocation_Panel@@H@@@@@Z 101eaa90 f i location_layout_panel.obj
 0002:00095b10       ??0CMission_Txt_Panel@@QAE@PAVPanel@vgui@@PBD@Z 101eab10 f   mission_txt_leaf_panel.obj
 0002:00095c40       ??0CMission_Txt_Panel_RegisterMap@CMission_Txt_Panel@@QAE@XZ 101eac40 f i mission_txt_leaf_panel.obj
 0002:00095c90       ?ChainToMap@CMission_Txt_Panel@@SAXXZ 101eac90 f i mission_txt_leaf_panel.obj
 0002:00095d50       ?GetMessageMap@CMission_Txt_Panel@@UAEPAUPanelMessageMap@vgui@@XZ 101ead50 f i mission_txt_leaf_panel.obj
 0002:00095dd0       ??0CMission_Txt_Panel_Register@CMission_Txt_Panel@@QAE@XZ 101eadd0 f i mission_txt_leaf_panel.obj
 0002:00095e20       ?ChainToAnimationMap@CMission_Txt_Panel@@SAXXZ 101eae20 f i mission_txt_leaf_panel.obj
 0002:00095ee0       ?GetAnimMap@CMission_Txt_Panel@@UAEPAUPanelAnimationMap@@XZ 101eaee0 f i mission_txt_leaf_panel.obj
 0002:00095f40       ??0CMission_Txt_Panel_RegisterKBMap@CMission_Txt_Panel@@QAE@XZ 101eaf40 f i mission_txt_leaf_panel.obj
 0002:00095f90       ?KB_ChainToMap@CMission_Txt_Panel@@SAXXZ 101eaf90 f i mission_txt_leaf_panel.obj
 0002:00096050       ?GetKBMap@CMission_Txt_Panel@@UAEPAUPanelKeyBindingMap@vgui@@XZ 101eb050 f i mission_txt_leaf_panel.obj
 0002:000960d0       ?GetPanelClassName@CMission_Txt_Panel@@SAPBDXZ 101eb0d0 f i mission_txt_leaf_panel.obj
 0002:00096110       ?GetPanelBaseClassName@CMission_Txt_Panel@@SAPBDXZ 101eb110 f i mission_txt_leaf_panel.obj
 0002:00096150       ??_GCMission_Txt_Panel@@UAEPAXI@Z 101eb150 f i mission_txt_leaf_panel.obj
 0002:00096150       ??_ECMission_Txt_Panel@@UAEPAXI@Z 101eb150 f i mission_txt_leaf_panel.obj
 0002:000961c0       ??1CMission_Txt_Panel@@UAE@XZ 101eb1c0 f i mission_txt_leaf_panel.obj
 0002:00096210       ?OnCommand@CMission_Txt_Panel@@UAEXPBD@Z 101eb210 f   mission_txt_leaf_panel.obj
 0002:00096290       ?DoPick@CMission_Txt_Panel@@QAEXXZ 101eb290 f   mission_txt_leaf_panel.obj
 0002:00096460       ?GetPanelMap@CMission_Txt_Panel@@UAEPAUPanelMap_t@vgui@@XZ 101eb460 f   mission_txt_leaf_panel.obj
 0002:000964a0       ?OnFileSelected@CMission_Txt_Panel@@QAEXPBD@Z 101eb4a0 f   mission_txt_leaf_panel.obj
 0002:00096610       ?PerformLayout@CMission_Txt_Panel@@UAEXXZ 101eb610 f   mission_txt_leaf_panel.obj
 0002:000967b0       ??0CThemeRoomPicker@@QAE@PAVPanel@vgui@@PBDPAVKeyValues@@_N@Z 101eb7b0 f   theme_room_picker.obj
 0002:00096a40       ??0CThemeRoomPicker_RegisterMap@CThemeRoomPicker@@QAE@XZ 101eba40 f i theme_room_picker.obj
 0002:00096a90       ?ChainToMap@CThemeRoomPicker@@SAXXZ 101eba90 f i theme_room_picker.obj
 0002:00096b50       ?GetMessageMap@CThemeRoomPicker@@UAEPAUPanelMessageMap@vgui@@XZ 101ebb50 f i theme_room_picker.obj
 0002:00096bd0       ??0CThemeRoomPicker_Register@CThemeRoomPicker@@QAE@XZ 101ebbd0 f i theme_room_picker.obj
 0002:00096c20       ?ChainToAnimationMap@CThemeRoomPicker@@SAXXZ 101ebc20 f i theme_room_picker.obj
 0002:00096ce0       ?GetAnimMap@CThemeRoomPicker@@UAEPAUPanelAnimationMap@@XZ 101ebce0 f i theme_room_picker.obj
 0002:00096d40       ??0CThemeRoomPicker_RegisterKBMap@CThemeRoomPicker@@QAE@XZ 101ebd40 f i theme_room_picker.obj
 0002:00096d90       ?KB_ChainToMap@CThemeRoomPicker@@SAXXZ 101ebd90 f i theme_room_picker.obj
 0002:00096e50       ?GetKBMap@CThemeRoomPicker@@UAEPAUPanelKeyBindingMap@vgui@@XZ 101ebe50 f i theme_room_picker.obj
 0002:00096ed0       ?GetPanelClassName@CThemeRoomPicker@@SAPBDXZ 101ebed0 f i theme_room_picker.obj
 0002:00096f10       ?GetPanelBaseClassName@CThemeRoomPicker@@SAPBDXZ 101ebf10 f i theme_room_picker.obj
 0002:00096f50       ??_GCThemeRoomPicker@@UAEPAXI@Z 101ebf50 f i theme_room_picker.obj
 0002:00096f50       ??_ECThemeRoomPicker@@UAEPAXI@Z 101ebf50 f i theme_room_picker.obj
 0002:00096fc0       ??1CThemeRoomPicker@@UAE@XZ 101ebfc0 f   theme_room_picker.obj
 0002:00097020       ?PopulateThemeList@CThemeRoomPicker@@UAEXXZ 101ec020 f   theme_room_picker.obj
 0002:00097100       ?ThemeClicked@CThemeRoomPicker@@UAEXPAVCThemeDetails@@@Z 101ec100 f   theme_room_picker.obj
 0002:00097270       ?ShouldHighlight@CThemeRoomPicker@@UAE_NPAVCThemeDetails@@@Z 101ec270 f   theme_room_picker.obj
 0002:000972f0       ?ApplySchemeSettings@CThemeRoomPicker@@UAEXPAVIScheme@vgui@@@Z 101ec2f0 f   theme_room_picker.obj
 0002:00097350       ?OnCommand@CThemeRoomPicker@@UAEXPBD@Z 101ec350 f   theme_room_picker.obj
 0002:000974c0       ??0CTilegenAction_NestedActions@@QAE@XZ 101ec4c0 f   tilegen_actions.obj
 0002:00097540       ??0ITilegenAction@@QAE@XZ  101ec540 f i tilegen_actions.obj
 0002:00097590       ?OnBeginGeneration@ITilegenAction@@UAEXPAVCLayoutSystem@@@Z 101ec590 f i tilegen_actions.obj
 0002:000975d0       ?OnStateChanged@ITilegenAction@@UAEXPAVCLayoutSystem@@@Z 101ec5d0 f i tilegen_actions.obj
 0002:00097610       ??_EITilegenAction@@UAEPAXI@Z 101ec610 f i tilegen_actions.obj
 0002:00097610       ??_GITilegenAction@@UAEPAXI@Z 101ec610 f i tilegen_actions.obj
 0002:00097680       ??1ITilegenAction@@UAE@XZ  101ec680 f i tilegen_actions.obj
 0002:000976c0       ??_ECTilegenAction_NestedActions@@UAEPAXI@Z 101ec6c0 f i tilegen_actions.obj
 0002:000976c0       ??_GCTilegenAction_NestedActions@@UAEPAXI@Z 101ec6c0 f i tilegen_actions.obj
 0002:00097730       ??1CTilegenAction_NestedActions@@UAE@XZ 101ec730 f   tilegen_actions.obj
 0002:00097920       ?OnBeginGeneration@CTilegenAction_NestedActions@@UAEXPAVCLayoutSystem@@@Z 101ec920 f   tilegen_actions.obj
 0002:000979e0       ?OnStateChanged@CTilegenAction_NestedActions@@UAEXPAVCLayoutSystem@@@Z 101ec9e0 f   tilegen_actions.obj
 0002:00097aa0       ?LoadFromKeyValues@CTilegenAction_NestedActions@@UAE_NPAVKeyValues@@@Z 101ecaa0 f   tilegen_actions.obj
 0002:00097c80       ??0ActionConditionPair_t@@QAE@PAVITilegenAction@@PAV?$ITilegenExpression@_N@@@Z 101ecc80 f i tilegen_actions.obj
 0002:00097cd0       ?Execute@CTilegenAction_NestedActions@@UAEXPAVCLayoutSystem@@@Z 101eccd0 f   tilegen_actions.obj
 0002:00097df0       ?GetFreeVariables@CLayoutSystem@@QAEPAVCFreeVariableMap@@XZ 101ecdf0 f i tilegen_actions.obj
 0002:00097e30       ?ShouldStopProcessingActions@CLayoutSystem@@QBE_NXZ 101ece30 f i tilegen_actions.obj
 0002:00097eb0       ??0CTilegenAction_AddRoomCandidates@@QAE@XZ 101eceb0 f   tilegen_actions.obj
 0002:00097f70       ??_ECTilegenAction_AddRoomCandidates@@UAEPAXI@Z 101ecf70 f i tilegen_actions.obj
 0002:00097f70       ??_GCTilegenAction_AddRoomCandidates@@UAEPAXI@Z 101ecf70 f i tilegen_actions.obj
 0002:00097fe0       ??1CTilegenAction_AddRoomCandidates@@UAE@XZ 101ecfe0 f   tilegen_actions.obj
 0002:000982a0       ?LoadFromKeyValues@CTilegenAction_AddRoomCandidates@@UAE_NPAVKeyValues@@@Z 101ed2a0 f   tilegen_actions.obj
 0002:000984b0       ?Execute@CTilegenAction_AddRoomCandidates@@UAEXPAVCLayoutSystem@@@Z 101ed4b0 f   tilegen_actions.obj
 0002:000986c0       ??0CTilegenAction_AddRoomCandidatesAtLocation@@QAE@PAV?$ITilegenExpression@PBD@@PAV?$ITilegenExpression@H@@1PAV?$ITilegenExpression@_N@@@Z 101ed6c0 f   tilegen_actions.obj
 0002:00098760       ??_ECTilegenAction_AddRoomCandidatesAtLocation@@UAEPAXI@Z 101ed760 f i tilegen_actions.obj
 0002:00098760       ??_GCTilegenAction_AddRoomCandidatesAtLocation@@UAEPAXI@Z 101ed760 f i tilegen_actions.obj
 0002:000987d0       ??1CTilegenAction_AddRoomCandidatesAtLocation@@UAE@XZ 101ed7d0 f   tilegen_actions.obj
 0002:000989c0       ?LoadFromKeyValues@CTilegenAction_AddRoomCandidatesAtLocation@@UAE_NPAVKeyValues@@@Z 101ed9c0 f   tilegen_actions.obj
 0002:00098b50       ?Execute@CTilegenAction_AddRoomCandidatesAtLocation@@UAEXPAVCLayoutSystem@@@Z 101edb50 f   tilegen_actions.obj
 0002:00098eb0       ??0CRoomCandidate@@QAE@PBVCRoomTemplate@@HHPBVCExit@@@Z 101edeb0 f i tilegen_actions.obj
 0002:00098f30       ?GetMapLayout@CLayoutSystem@@QAEPAVCMapLayout@@XZ 101edf30 f i tilegen_actions.obj
 0002:00098f70       ?GetRoomCandidateList@CLayoutSystem@@QBEPAV?$CUtlVector@VCRoomCandidate@@V?$CUtlMemory@VCRoomCandidate@@H@@@@XZ 101edf70 f i tilegen_actions.obj
 0002:00098fb0       ?LoadFromKeyValues@CTilegenAction_ChooseCandidate@@UAE_NPAVKeyValues@@@Z 101edfb0 f   tilegen_actions.obj
 0002:00099020       ?Execute@CTilegenAction_ChooseCandidate@@UAEXPAVCLayoutSystem@@@Z 101ee020 f   tilegen_actions.obj
 0002:000993c0       ?StopProcessingActions@CLayoutSystem@@QAEXXZ 101ee3c0 f i tilegen_actions.obj
 0002:00099410       ??0CTilegenAction_FilterCandidatesByDirection@@QAE@PAV?$ITilegenExpression@PBD@@PAV?$ITilegenExpression@H@@@Z 101ee410 f   tilegen_actions.obj
 0002:00099490       ??_GCTilegenAction_FilterCandidatesByDirection@@UAEPAXI@Z 101ee490 f i tilegen_actions.obj
 0002:00099490       ??_ECTilegenAction_FilterCandidatesByDirection@@UAEPAXI@Z 101ee490 f i tilegen_actions.obj
 0002:00099500       ??1CTilegenAction_FilterCandidatesByDirection@@UAE@XZ 101ee500 f   tilegen_actions.obj
 0002:00099630       ?LoadFromKeyValues@CTilegenAction_FilterCandidatesByDirection@@UAE_NPAVKeyValues@@@Z 101ee630 f   tilegen_actions.obj
 0002:00099720       ?Execute@CTilegenAction_FilterCandidatesByDirection@@UAEXPAVCLayoutSystem@@@Z 101ee720 f   tilegen_actions.obj
 0002:000999a0       ?LoadFromKeyValues@CTilegenAction_FilterCandidatesForLinearGrowth@@UAE_NPAVKeyValues@@@Z 101ee9a0 f   tilegen_actions.obj
 0002:00099a40       ?Execute@CTilegenAction_FilterCandidatesForLinearGrowth@@UAEXPAVCLayoutSystem@@@Z 101eea40 f   tilegen_actions.obj
 0002:00099c00       ??0CTilegenAction_SwitchState@@QAE@XZ 101eec00 f   tilegen_actions.obj
 0002:00099c70       ??_GCTilegenAction_SwitchState@@UAEPAXI@Z 101eec70 f i tilegen_actions.obj
 0002:00099c70       ??_ECTilegenAction_SwitchState@@UAEPAXI@Z 101eec70 f i tilegen_actions.obj
 0002:00099ce0       ??1CTilegenAction_SwitchState@@UAE@XZ 101eece0 f   tilegen_actions.obj
 0002:00099da0       ?LoadFromKeyValues@CTilegenAction_SwitchState@@UAE_NPAVKeyValues@@@Z 101eeda0 f   tilegen_actions.obj
 0002:00099e20       ?Execute@CTilegenAction_SwitchState@@UAEXPAVCLayoutSystem@@@Z 101eee20 f   tilegen_actions.obj
 0002:00099ef0       ?GetNextState@CTilegenState@@QAEPAV1@XZ 101eeef0 f i tilegen_actions.obj
 0002:00099f50       ?GetCurrentState@CLayoutSystem@@QBEPAVCTilegenState@@XZ 101eef50 f i tilegen_actions.obj
 0002:00099f90       ?Execute@CTilegenAction_FinishGeneration@@UAEXPAVCLayoutSystem@@@Z 101eef90 f   tilegen_actions.obj
 0002:00099ff0       ?Execute@CTilegenAction_EpicFail@@UAEXPAVCLayoutSystem@@@Z 101eeff0 f   tilegen_actions.obj
 0002:0009a050       ?LoadFromKeyValues@CTilegenAction_EnsureRoomExists@@UAE_NPAVKeyValues@@@Z 101ef050 f   tilegen_actions.obj
 0002:0009a0e0       ?Execute@CTilegenAction_EnsureRoomExists@@UAEXPAVCLayoutSystem@@@Z 101ef0e0 f   tilegen_actions.obj
 0002:0009a3f0       ??0CTilegenAction_AddConnectorRoomCandidates@@QAE@PAVITilegenAction@@@Z 101ef3f0 f   tilegen_actions.obj
 0002:0009a490       ??_ECTilegenAction_AddConnectorRoomCandidates@@UAEPAXI@Z 101ef490 f i tilegen_actions.obj
 0002:0009a490       ??_GCTilegenAction_AddConnectorRoomCandidates@@UAEPAXI@Z 101ef490 f i tilegen_actions.obj
 0002:0009a500       ??1CTilegenAction_AddConnectorRoomCandidates@@UAE@XZ 101ef500 f   tilegen_actions.obj
 0002:0009a690       ?SetRoomTemplate@CTilegenAction_AddConnectorRoomCandidates@@QAEXPBVCRoomTemplate@@@Z 101ef690 f   tilegen_actions.obj
 0002:0009a7e0       ?LoadFromKeyValues@CTilegenAction_AddConnectorRoomCandidates@@UAE_NPAVKeyValues@@@Z 101ef7e0 f   tilegen_actions.obj
 0002:0009aa40       ?Execute@CTilegenAction_AddConnectorRoomCandidates@@UAEXPAVCLayoutSystem@@@Z 101efa40 f   tilegen_actions.obj
 0002:0009b140       ??0CExit@@QAE@HHW4ExitDirection_t@@PBDPAVCRoom@@_N@Z 101f0140 f i tilegen_actions.obj
 0002:0009b1f0       ??0CTilegenAction_PlaceComponent@@QAE@XZ 101f01f0 f   tilegen_actions.obj
 0002:0009b300       ??_GCTilegenAction_PlaceComponent@@UAEPAXI@Z 101f0300 f i tilegen_actions.obj
 0002:0009b300       ??_ECTilegenAction_PlaceComponent@@UAEPAXI@Z 101f0300 f i tilegen_actions.obj
 0002:0009b370       ??1CTilegenAction_PlaceComponent@@UAE@XZ 101f0370 f   tilegen_actions.obj
 0002:0009b650       ??1?$CUtlSortVector@URoomPlacementInstance_t@CTilegenAction_PlaceComponent@@VCRoomPlacementInstanceLessFunc@2@@@QAE@XZ 101f0650 f i tilegen_actions.obj
 0002:0009b6a0       ?OnBeginGeneration@CTilegenAction_PlaceComponent@@UAEXPAVCLayoutSystem@@@Z 101f06a0 f   tilegen_actions.obj
 0002:0009b8d0       ?LoadFromKeyValues@CTilegenAction_PlaceComponent@@UAE_NPAVKeyValues@@@Z 101f08d0 f   tilegen_actions.obj
 0002:0009bd00       ??0CTilegenAction_ChooseCandidate@@QAE@_N@Z 101f0d00 f i tilegen_actions.obj
 0002:0009bd70       ??_GCTilegenAction_ChooseCandidate@@UAEPAXI@Z 101f0d70 f i tilegen_actions.obj
 0002:0009bd70       ??_ECTilegenAction_ChooseCandidate@@UAEPAXI@Z 101f0d70 f i tilegen_actions.obj
 0002:0009bde0       ??1CTilegenAction_ChooseCandidate@@UAE@XZ 101f0de0 f i tilegen_actions.obj
 0002:0009be30       ?Execute@CTilegenAction_PlaceComponent@@UAEXPAVCLayoutSystem@@@Z 101f0e30 f   tilegen_actions.obj
 0002:0009c0a0       ?GetGlobalActionState@CLayoutSystem@@QBEPAVCTilegenState@@XZ 101f10a0 f i tilegen_actions.obj
 0002:0009c0e0       ?AddRoomPlacementInstance@CTilegenAction_PlaceComponent@@AAEXPAVCLayoutSystem@@PAURoomPlacementInfo_t@1@@Z 101f10e0 f   tilegen_actions.obj
 0002:0009c2a0       ?LoadRoomPlacementsFromKeyValues@CTilegenAction_PlaceComponent@@AAE_NPAVKeyValues@@PAV?$CUtlVector@URoomPlacementInfo_t@CTilegenAction_PlaceComponent@@V?$CUtlMemory@URoomPlacementInfo_t@CTilegenAction_PlaceComponent@@H@@@@@Z 101f12a0 f   tilegen_actions.obj
 0002:0009c5c0       ?PlaceRoom@CTilegenAction_PlaceComponent@@AAE_NPAVCLayoutSystem@@PBVCRoomTemplate@@@Z 101f15c0 f   tilegen_actions.obj
 0002:0009c800       ?PlaceConnectorRoom@CTilegenAction_PlaceComponent@@AAE_NPAVCLayoutSystem@@PBVCRoomTemplate@@@Z 101f1800 f   tilegen_actions.obj
 0002:0009cac0       ??0CTilegenAction_AddInstances@@QAE@XZ 101f1ac0 f   tilegen_actions.obj
 0002:0009cb50       ??_GCTilegenAction_AddInstances@@UAEPAXI@Z 101f1b50 f i tilegen_actions.obj
 0002:0009cb50       ??_ECTilegenAction_AddInstances@@UAEPAXI@Z 101f1b50 f i tilegen_actions.obj
 0002:0009cbc0       ??1CTilegenAction_AddInstances@@UAE@XZ 101f1bc0 f   tilegen_actions.obj
 0002:0009cd00       ?LoadFromKeyValues@CTilegenAction_AddInstances@@UAE_NPAVKeyValues@@@Z 101f1d00 f   tilegen_actions.obj
 0002:0009ce20       ?Execute@CTilegenAction_AddInstances@@UAEXPAVCLayoutSystem@@@Z 101f1e20 f   tilegen_actions.obj
 0002:0009d1a0       ?SetPlacedRoomIndex@CInstanceSpawn@@QAEXH@Z 101f21a0 f i tilegen_actions.obj
 0002:0009d1f0       ?SetRandomSeed@CInstanceSpawn@@QAEXH@Z 101f21f0 f i tilegen_actions.obj
 0002:0009d240       ??0CTilegenAction_AddInstanceToRoom@@QAE@XZ 101f2240 f   tilegen_actions.obj
 0002:0009d2c0       ??_ECTilegenAction_AddInstanceToRoom@@UAEPAXI@Z 101f22c0 f i tilegen_actions.obj
 0002:0009d2c0       ??_GCTilegenAction_AddInstanceToRoom@@UAEPAXI@Z 101f22c0 f i tilegen_actions.obj
 0002:0009d330       ??1CTilegenAction_AddInstanceToRoom@@UAE@XZ 101f2330 f   tilegen_actions.obj
 0002:0009d400       ?LoadFromKeyValues@CTilegenAction_AddInstanceToRoom@@UAE_NPAVKeyValues@@@Z 101f2400 f   tilegen_actions.obj
 0002:0009d4b0       ?Execute@CTilegenAction_AddInstanceToRoom@@UAEXPAVCLayoutSystem@@@Z 101f24b0 f   tilegen_actions.obj
 0002:0009d5b0       ??0CTilegenAction_LoadLayout@@QAE@XZ 101f25b0 f   tilegen_actions.obj
 0002:0009d620       ??_ECTilegenAction_LoadLayout@@UAEPAXI@Z 101f2620 f i tilegen_actions.obj
 0002:0009d620       ??_GCTilegenAction_LoadLayout@@UAEPAXI@Z 101f2620 f i tilegen_actions.obj
 0002:0009d690       ??1CTilegenAction_LoadLayout@@UAE@XZ 101f2690 f i tilegen_actions.obj
 0002:0009d6e0       ?LoadFromKeyValues@CTilegenAction_LoadLayout@@UAE_NPAVKeyValues@@@Z 101f26e0 f   tilegen_actions.obj
 0002:0009d7e0       ?Execute@CTilegenAction_LoadLayout@@UAEXPAVCLayoutSystem@@@Z 101f27e0 f   tilegen_actions.obj
 0002:0009e270       ?GetOpenExits@CLayoutSystem@@QBEPBVCExit@@XZ 101f3270 f i tilegen_actions.obj
 0002:0009e2d0       ?GetNumOpenExits@CLayoutSystem@@QBEHXZ 101f32d0 f i tilegen_actions.obj
 0002:0009e3d0       ?Base@?$CUtlVector@VCExit@@V?$CUtlMemory@VCExit@@H@@@@QBEPBVCExit@@XZ 101f33d0 f i tilegen_actions.obj
 0002:0009e420       ?Base@?$CUtlVector@PBVCRoomTemplate@@V?$CUtlMemory@PBVCRoomTemplate@@H@@@@QAEPAPBVCRoomTemplate@@XZ 101f3420 f i tilegen_actions.obj
 0002:0009e470       ?AddToTail@?$CUtlVector@VCInstanceSpawn@@V?$CUtlMemory@VCInstanceSpawn@@H@@@@QAEHABVCInstanceSpawn@@@Z 101f3470 f i tilegen_actions.obj
 0002:0009e5e0       ??0?$CUtlVector@UActionConditionPair_t@@V?$CUtlMemory@UActionConditionPair_t@@H@@@@QAE@HH@Z 101f35e0 f i tilegen_actions.obj
 0002:0009e660       ??1?$CUtlVector@UActionConditionPair_t@@V?$CUtlMemory@UActionConditionPair_t@@H@@@@QAE@XZ 101f3660 f i tilegen_actions.obj
 0002:0009e6c0       ??A?$CUtlVector@UActionConditionPair_t@@V?$CUtlMemory@UActionConditionPair_t@@H@@@@QAEAAUActionConditionPair_t@@H@Z 101f36c0 f i tilegen_actions.obj
 0002:0009e7f0       ?Count@?$CUtlVector@UActionConditionPair_t@@V?$CUtlMemory@UActionConditionPair_t@@H@@@@QBEHXZ 101f37f0 f i tilegen_actions.obj
 0002:0009e830       ?AddToTail@?$CUtlVector@UActionConditionPair_t@@V?$CUtlMemory@UActionConditionPair_t@@H@@@@QAEHABUActionConditionPair_t@@@Z 101f3830 f i tilegen_actions.obj
 0002:0009e9a0       ?Base@?$CUtlMemory@VCExit@@H@@QBEPBVCExit@@XZ 101f39a0 f i tilegen_actions.obj
 0002:0009e9e0       ??0?$CUtlVector@VCExit@@V?$CUtlMemory@VCExit@@H@@@@QAE@HH@Z 101f39e0 f i tilegen_actions.obj
 0002:0009ea60       ??1?$CUtlVector@VCExit@@V?$CUtlMemory@VCExit@@H@@@@QAE@XZ 101f3a60 f i tilegen_actions.obj
 0002:0009eac0       ??A?$CUtlVector@VCExit@@V?$CUtlMemory@VCExit@@H@@@@QAEAAVCExit@@H@Z 101f3ac0 f i tilegen_actions.obj
 0002:0009ebf0       ?Count@?$CUtlVector@VCExit@@V?$CUtlMemory@VCExit@@H@@@@QBEHXZ 101f3bf0 f i tilegen_actions.obj
 0002:0009ec30       ?AddToTail@?$CUtlVector@VCExit@@V?$CUtlMemory@VCExit@@H@@@@QAEHABVCExit@@@Z 101f3c30 f i tilegen_actions.obj
 0002:0009eda0       ?RemoveAll@?$CUtlVector@VCExit@@V?$CUtlMemory@VCExit@@H@@@@QAEXXZ 101f3da0 f i tilegen_actions.obj
 0002:0009ee30       ??$CreateExpressionFromKeyValuesBlock@PBD@@YA_NPAVKeyValues@@PBD1PAPAV?$ITilegenExpression@PBD@@_N3@Z 101f3e30 f i tilegen_actions.obj
 0002:0009eea0       ??0?$CUtlVector@URoomPlacementInfo_t@CTilegenAction_PlaceComponent@@V?$CUtlMemory@URoomPlacementInfo_t@CTilegenAction_PlaceComponent@@H@@@@QAE@HH@Z 101f3ea0 f i tilegen_actions.obj
 0002:0009ef20       ??1?$CUtlVector@URoomPlacementInfo_t@CTilegenAction_PlaceComponent@@V?$CUtlMemory@URoomPlacementInfo_t@CTilegenAction_PlaceComponent@@H@@@@QAE@XZ 101f3f20 f i tilegen_actions.obj
 0002:0009ef80       ??A?$CUtlVector@URoomPlacementInfo_t@CTilegenAction_PlaceComponent@@V?$CUtlMemory@URoomPlacementInfo_t@CTilegenAction_PlaceComponent@@H@@@@QAEAAURoomPlacementInfo_t@CTilegenAction_PlaceComponent@@H@Z 101f3f80 f i tilegen_actions.obj
 0002:0009f0b0       ?Element@?$CUtlVector@URoomPlacementInfo_t@CTilegenAction_PlaceComponent@@V?$CUtlMemory@URoomPlacementInfo_t@CTilegenAction_PlaceComponent@@H@@@@QAEAAURoomPlacementInfo_t@CTilegenAction_PlaceComponent@@H@Z 101f40b0 f i tilegen_actions.obj
 0002:0009f1e0       ?Count@?$CUtlVector@URoomPlacementInfo_t@CTilegenAction_PlaceComponent@@V?$CUtlMemory@URoomPlacementInfo_t@CTilegenAction_PlaceComponent@@H@@@@QBEHXZ 101f41e0 f i tilegen_actions.obj
 0002:0009f220       ?AddToTail@?$CUtlVector@URoomPlacementInfo_t@CTilegenAction_PlaceComponent@@V?$CUtlMemory@URoomPlacementInfo_t@CTilegenAction_PlaceComponent@@H@@@@QAEHXZ 101f4220 f i tilegen_actions.obj
 0002:0009f280       ??1?$CUtlVector@URoomPlacementInstance_t@CTilegenAction_PlaceComponent@@V?$CUtlMemory@URoomPlacementInstance_t@CTilegenAction_PlaceComponent@@H@@@@QAE@XZ 101f4280 f i tilegen_actions.obj
 0002:0009f2e0       ??A?$CUtlVector@URoomPlacementInstance_t@CTilegenAction_PlaceComponent@@V?$CUtlMemory@URoomPlacementInstance_t@CTilegenAction_PlaceComponent@@H@@@@QAEAAURoomPlacementInstance_t@CTilegenAction_PlaceComponent@@H@Z 101f42e0 f i tilegen_actions.obj
 0002:0009f410       ?Count@?$CUtlVector@URoomPlacementInstance_t@CTilegenAction_PlaceComponent@@V?$CUtlMemory@URoomPlacementInstance_t@CTilegenAction_PlaceComponent@@H@@@@QBEHXZ 101f4410 f i tilegen_actions.obj
 0002:0009f450       ?RemoveAll@?$CUtlVector@URoomPlacementInstance_t@CTilegenAction_PlaceComponent@@V?$CUtlMemory@URoomPlacementInstance_t@CTilegenAction_PlaceComponent@@H@@@@QAEXXZ 101f4450 f i tilegen_actions.obj
 0002:0009f4e0       ??0?$CUtlSortVector@URoomPlacementInstance_t@CTilegenAction_PlaceComponent@@VCRoomPlacementInstanceLessFunc@2@@@QAE@HH@Z 101f44e0 f i tilegen_actions.obj
 0002:0009f560       ?Insert@?$CUtlSortVector@URoomPlacementInstance_t@CTilegenAction_PlaceComponent@@VCRoomPlacementInstanceLessFunc@2@@@QAEHABURoomPlacementInstance_t@CTilegenAction_PlaceComponent@@@Z 101f4560 f i tilegen_actions.obj
 0002:0009f6e0       ??$CreateExpressionFromKeyValuesBlock@_N@@YA_NPAVKeyValues@@PBD1PAPAV?$ITilegenExpression@_N@@_N3@Z 101f46e0 f i tilegen_actions.obj
 0002:0009f750       ?Base@?$CUtlMemory@PBVCRoomTemplate@@H@@QAEPAPBVCRoomTemplate@@XZ 101f4750 f i tilegen_actions.obj
 0002:0009f870       ??0?$CUtlVector@PBVCRoomTemplate@@V?$CUtlMemory@PBVCRoomTemplate@@H@@@@QAE@HH@Z 101f4870 f i tilegen_actions.obj
 0002:0009f8f0       ??1?$CUtlVector@PBVCRoomTemplate@@V?$CUtlMemory@PBVCRoomTemplate@@H@@@@QAE@XZ 101f48f0 f i tilegen_actions.obj
 0002:0009f950       ??A?$CUtlVector@PBVCRoomTemplate@@V?$CUtlMemory@PBVCRoomTemplate@@H@@@@QAEAAPBVCRoomTemplate@@H@Z 101f4950 f i tilegen_actions.obj
 0002:0009fa80       ?Count@?$CUtlVector@PBVCRoomTemplate@@V?$CUtlMemory@PBVCRoomTemplate@@H@@@@QBEHXZ 101f4a80 f i tilegen_actions.obj
 0002:0009fac0       ?AddToTail@?$CUtlVector@PBVCRoomTemplate@@V?$CUtlMemory@PBVCRoomTemplate@@H@@@@QAEHABQBVCRoomTemplate@@@Z 101f4ac0 f i tilegen_actions.obj
 0002:0009fc30       ??$CreateExpressionFromKeyValuesBlock@H@@YA_NPAVKeyValues@@PBD1PAPAV?$ITilegenExpression@H@@_N3@Z 101f4c30 f i tilegen_actions.obj
 0002:0009fca0       ??A?$CUtlVector@VCRoomCandidate@@V?$CUtlMemory@VCRoomCandidate@@H@@@@QAEAAVCRoomCandidate@@H@Z 101f4ca0 f i tilegen_actions.obj
 0002:0009fdd0       ?Element@?$CUtlVector@VCRoomCandidate@@V?$CUtlMemory@VCRoomCandidate@@H@@@@QAEAAVCRoomCandidate@@H@Z 101f4dd0 f i tilegen_actions.obj
 0002:0009ff00       ?Count@?$CUtlVector@VCRoomCandidate@@V?$CUtlMemory@VCRoomCandidate@@H@@@@QBEHXZ 101f4f00 f i tilegen_actions.obj
 0002:0009ff40       ?AddToTail@?$CUtlVector@VCRoomCandidate@@V?$CUtlMemory@VCRoomCandidate@@H@@@@QAEHABVCRoomCandidate@@@Z 101f4f40 f i tilegen_actions.obj
 0002:000a00b0       ?FastRemove@?$CUtlVector@VCRoomCandidate@@V?$CUtlMemory@VCRoomCandidate@@H@@@@QAEXH@Z 101f50b0 f i tilegen_actions.obj
 0002:000a0250       ?RemoveAll@?$CUtlVector@VCRoomCandidate@@V?$CUtlMemory@VCRoomCandidate@@H@@@@QAEXXZ 101f5250 f i tilegen_actions.obj
 0002:000a02e0       ??$CreateExpressionFromKeyValuesBlock@PBVCRoom@@@@YA_NPAVKeyValues@@PBD1PAPAV?$ITilegenExpression@PBVCRoom@@@@_N3@Z 101f52e0 f i tilegen_actions.obj
 0002:000a0350       ?Base@?$CUtlVector@UActionConditionPair_t@@V?$CUtlMemory@UActionConditionPair_t@@H@@@@QAEPAUActionConditionPair_t@@XZ 101f5350 f i tilegen_actions.obj
 0002:000a03a0       ?ResetDbgInfo@?$CUtlVector@UActionConditionPair_t@@V?$CUtlMemory@UActionConditionPair_t@@H@@@@IAEXXZ 101f53a0 f i tilegen_actions.obj
 0002:000a0400       ?Base@?$CUtlVector@VCExit@@V?$CUtlMemory@VCExit@@H@@@@QAEPAVCExit@@XZ 101f5400 f i tilegen_actions.obj
 0002:000a0450       ?ResetDbgInfo@?$CUtlVector@VCExit@@V?$CUtlMemory@VCExit@@H@@@@IAEXXZ 101f5450 f i tilegen_actions.obj
 0002:000a04b0       ?ResetDbgInfo@?$CUtlVector@URoomPlacementInfo_t@CTilegenAction_PlaceComponent@@V?$CUtlMemory@URoomPlacementInfo_t@CTilegenAction_PlaceComponent@@H@@@@IAEXXZ 101f54b0 f i tilegen_actions.obj
 0002:000a0510       ?ResetDbgInfo@?$CUtlVector@PBVCRoomTemplate@@V?$CUtlMemory@PBVCRoomTemplate@@H@@@@IAEXXZ 101f5510 f i tilegen_actions.obj
 0002:000a0570       ?Base@?$CUtlVector@VCRoomCandidate@@V?$CUtlMemory@VCRoomCandidate@@H@@@@QAEPAVCRoomCandidate@@XZ 101f5570 f i tilegen_actions.obj
 0002:000a05c0       ?Base@?$CUtlVector@URoomPlacementInfo_t@CTilegenAction_PlaceComponent@@V?$CUtlMemory@URoomPlacementInfo_t@CTilegenAction_PlaceComponent@@H@@@@QAEPAURoomPlacementInfo_t@CTilegenAction_PlaceComponent@@XZ 101f55c0 f i tilegen_actions.obj
 0002:000a0610       ?InsertBefore@?$CUtlVector@VCInstanceSpawn@@V?$CUtlMemory@VCInstanceSpawn@@H@@@@QAEHHABVCInstanceSpawn@@@Z 101f5610 f i tilegen_actions.obj
 0002:000a08a0       ?InsertBefore@?$CUtlVector@UActionConditionPair_t@@V?$CUtlMemory@UActionConditionPair_t@@H@@@@QAEHHABUActionConditionPair_t@@@Z 101f58a0 f i tilegen_actions.obj
 0002:000a0b20       ?Purge@?$CUtlVector@UActionConditionPair_t@@V?$CUtlMemory@UActionConditionPair_t@@H@@@@QAEXXZ 101f5b20 f i tilegen_actions.obj
 0002:000a0b90       ??0?$CUtlMemory@UActionConditionPair_t@@H@@QAE@HH@Z 101f5b90 f i tilegen_actions.obj
 0002:000a0d80       ??1?$CUtlMemory@UActionConditionPair_t@@H@@QAE@XZ 101f5d80 f i tilegen_actions.obj
 0002:000a0dd0       ??A?$CUtlMemory@UActionConditionPair_t@@H@@QAEAAUActionConditionPair_t@@H@Z 101f5dd0 f i tilegen_actions.obj
 0002:000a0fd0       ?Base@?$CUtlMemory@UActionConditionPair_t@@H@@QAEPAUActionConditionPair_t@@XZ 101f5fd0 f i tilegen_actions.obj
 0002:000a10f0       ??0?$CUtlMemory@VCExit@@H@@QAE@HH@Z 101f60f0 f i tilegen_actions.obj
 0002:000a12e0       ??1?$CUtlMemory@VCExit@@H@@QAE@XZ 101f62e0 f i tilegen_actions.obj
 0002:000a1330       ??A?$CUtlMemory@VCExit@@H@@QAEAAVCExit@@H@Z 101f6330 f i tilegen_actions.obj
 0002:000a1530       ?Base@?$CUtlMemory@VCExit@@H@@QAEPAVCExit@@XZ 101f6530 f i tilegen_actions.obj
 0002:000a1650       ?Element@?$CUtlVector@VCExit@@V?$CUtlMemory@VCExit@@H@@@@QAEAAVCExit@@H@Z 101f6650 f i tilegen_actions.obj
 0002:000a1780       ?InsertBefore@?$CUtlVector@VCExit@@V?$CUtlMemory@VCExit@@H@@@@QAEHHABVCExit@@@Z 101f6780 f i tilegen_actions.obj
 0002:000a1a10       ?Purge@?$CUtlVector@VCExit@@V?$CUtlMemory@VCExit@@H@@@@QAEXXZ 101f6a10 f i tilegen_actions.obj
 0002:000a1a80       ??$Destruct@VCExit@@@@YAXPAVCExit@@@Z 101f6a80 f i tilegen_actions.obj
 0002:000a1ae0       ??$CreateFromKeyValuesBlock@V?$ITilegenExpression@PBD@@@@YA_NPAVKeyValues@@PBD1PAPAV?$ITilegenExpression@PBD@@_N3@Z 101f6ae0 f i tilegen_actions.obj
 0002:000a1c50       ?InsertBefore@?$CUtlVector@URoomPlacementInfo_t@CTilegenAction_PlaceComponent@@V?$CUtlMemory@URoomPlacementInfo_t@CTilegenAction_PlaceComponent@@H@@@@QAEHH@Z 101f6c50 f i tilegen_actions.obj
 0002:000a1dc0       ?Purge@?$CUtlVector@URoomPlacementInfo_t@CTilegenAction_PlaceComponent@@V?$CUtlMemory@URoomPlacementInfo_t@CTilegenAction_PlaceComponent@@H@@@@QAEXXZ 101f6dc0 f i tilegen_actions.obj
 0002:000a1e30       ??0?$CUtlMemory@URoomPlacementInfo_t@CTilegenAction_PlaceComponent@@H@@QAE@HH@Z 101f6e30 f i tilegen_actions.obj
 0002:000a2020       ??1?$CUtlMemory@URoomPlacementInfo_t@CTilegenAction_PlaceComponent@@H@@QAE@XZ 101f7020 f i tilegen_actions.obj
 0002:000a2070       ??A?$CUtlMemory@URoomPlacementInfo_t@CTilegenAction_PlaceComponent@@H@@QAEAAURoomPlacementInfo_t@CTilegenAction_PlaceComponent@@H@Z 101f7070 f i tilegen_actions.obj
 0002:000a2270       ?Base@?$CUtlMemory@URoomPlacementInfo_t@CTilegenAction_PlaceComponent@@H@@QAEPAURoomPlacementInfo_t@CTilegenAction_PlaceComponent@@XZ 101f7270 f i tilegen_actions.obj
 0002:000a2390       ??0?$CUtlVector@URoomPlacementInstance_t@CTilegenAction_PlaceComponent@@V?$CUtlMemory@URoomPlacementInstance_t@CTilegenAction_PlaceComponent@@H@@@@QAE@HH@Z 101f7390 f i tilegen_actions.obj
 0002:000a2410       ?Element@?$CUtlVector@URoomPlacementInstance_t@CTilegenAction_PlaceComponent@@V?$CUtlMemory@URoomPlacementInstance_t@CTilegenAction_PlaceComponent@@H@@@@QAEAAURoomPlacementInstance_t@CTilegenAction_PlaceComponent@@H@Z 101f7410 f i tilegen_actions.obj
 0002:000a2540       ?Purge@?$CUtlVector@URoomPlacementInstance_t@CTilegenAction_PlaceComponent@@V?$CUtlMemory@URoomPlacementInstance_t@CTilegenAction_PlaceComponent@@H@@@@QAEXXZ 101f7540 f i tilegen_actions.obj
 0002:000a25b0       ?GrowVector@?$CUtlVector@URoomPlacementInstance_t@CTilegenAction_PlaceComponent@@V?$CUtlMemory@URoomPlacementInstance_t@CTilegenAction_PlaceComponent@@H@@@@IAEXH@Z 101f75b0 f i tilegen_actions.obj
 0002:000a26d0       ?ShiftElementsRight@?$CUtlVector@URoomPlacementInstance_t@CTilegenAction_PlaceComponent@@V?$CUtlMemory@URoomPlacementInstance_t@CTilegenAction_PlaceComponent@@H@@@@IAEXHH@Z 101f76d0 f i tilegen_actions.obj
 0002:000a2870       ??1?$CUtlMemory@URoomPlacementInstance_t@CTilegenAction_PlaceComponent@@H@@QAE@XZ 101f7870 f i tilegen_actions.obj
 0002:000a28c0       ??A?$CUtlMemory@URoomPlacementInstance_t@CTilegenAction_PlaceComponent@@H@@QAEAAURoomPlacementInstance_t@CTilegenAction_PlaceComponent@@H@Z 101f78c0 f i tilegen_actions.obj
 0002:000a2ac0       ??$Destruct@URoomPlacementInstance_t@CTilegenAction_PlaceComponent@@@@YAXPAURoomPlacementInstance_t@CTilegenAction_PlaceComponent@@@Z 101f7ac0 f i tilegen_actions.obj
 0002:000a2b20       ?FindLessOrEqual@?$CUtlSortVector@URoomPlacementInstance_t@CTilegenAction_PlaceComponent@@VCRoomPlacementInstanceLessFunc@2@@@QBEHABURoomPlacementInstance_t@CTilegenAction_PlaceComponent@@@Z 101f7b20 f i tilegen_actions.obj
 0002:000a2d30       ?Less@CRoomPlacementInstanceLessFunc@CTilegenAction_PlaceComponent@@QAE_NABURoomPlacementInstance_t@2@0PAX@Z 101f7d30 f i tilegen_actions.obj
 0002:000a2da0       ??$CopyConstruct@URoomPlacementInstance_t@CTilegenAction_PlaceComponent@@@@YAPAURoomPlacementInstance_t@CTilegenAction_PlaceComponent@@PAU01@ABU01@@Z 101f7da0 f i tilegen_actions.obj
 0002:000a2e50       ??$CreateFromKeyValuesBlock@V?$ITilegenExpression@_N@@@@YA_NPAVKeyValues@@PBD1PAPAV?$ITilegenExpression@_N@@_N3@Z 101f7e50 f i tilegen_actions.obj
 0002:000a3160       ?ReadLiteralValue@?$ITilegenClassFactory@V?$ITilegenExpression@_N@@@@SAPAV?$ITilegenExpression@_N@@PAVKeyValues@@@Z 101f8160 f i tilegen_actions.obj
 0002:000a31b0       ?CreateInstance@?$CTilegenClassRegistry@V?$ITilegenExpression@_N@@@@SAPAV?$ITilegenExpression@_N@@PBD@Z 101f81b0 f i tilegen_actions.obj
 0002:000a3320       ??0?$CUtlMemory@PBVCRoomTemplate@@H@@QAE@HH@Z 101f8320 f i tilegen_actions.obj
 0002:000a3510       ??1?$CUtlMemory@PBVCRoomTemplate@@H@@QAE@XZ 101f8510 f i tilegen_actions.obj
 0002:000a3560       ??A?$CUtlMemory@PBVCRoomTemplate@@H@@QAEAAPBVCRoomTemplate@@H@Z 101f8560 f i tilegen_actions.obj
 0002:000a3760       ?IsReadOnly@?$CUtlMemory@PBVCRoomTemplate@@H@@QBE_NXZ 101f8760 f i tilegen_actions.obj
 0002:000a37b0       ?InsertBefore@?$CUtlVector@PBVCRoomTemplate@@V?$CUtlMemory@PBVCRoomTemplate@@H@@@@QAEHHABQBVCRoomTemplate@@@Z 101f87b0 f i tilegen_actions.obj
 0002:000a3a30       ?Purge@?$CUtlVector@PBVCRoomTemplate@@V?$CUtlMemory@PBVCRoomTemplate@@H@@@@QAEXXZ 101f8a30 f i tilegen_actions.obj
 0002:000a3aa0       ??$CreateFromKeyValuesBlock@V?$ITilegenExpression@H@@@@YA_NPAVKeyValues@@PBD1PAPAV?$ITilegenExpression@H@@_N3@Z 101f8aa0 f i tilegen_actions.obj
 0002:000a3db0       ?ReadLiteralValue@?$ITilegenClassFactory@V?$ITilegenExpression@H@@@@SAPAV?$ITilegenExpression@H@@PAVKeyValues@@@Z 101f8db0 f i tilegen_actions.obj
 0002:000a3e00       ?CreateInstance@?$CTilegenClassRegistry@V?$ITilegenExpression@H@@@@SAPAV?$ITilegenExpression@H@@PBD@Z 101f8e00 f i tilegen_actions.obj
 0002:000a3f70       ?IsValidIndex@?$CUtlVector@VCRoomCandidate@@V?$CUtlMemory@VCRoomCandidate@@H@@@@QBE_NH@Z 101f8f70 f i tilegen_actions.obj
 0002:000a3fe0       ?InsertBefore@?$CUtlVector@VCRoomCandidate@@V?$CUtlMemory@VCRoomCandidate@@H@@@@QAEHHABVCRoomCandidate@@@Z 101f8fe0 f i tilegen_actions.obj
 0002:000a4270       ??A?$CUtlMemory@VCRoomCandidate@@H@@QAEAAVCRoomCandidate@@H@Z 101f9270 f i tilegen_actions.obj
 0002:000a4470       ?Base@?$CUtlMemory@VCRoomCandidate@@H@@QAEPAVCRoomCandidate@@XZ 101f9470 f i tilegen_actions.obj
 0002:000a4590       ??$Destruct@VCRoomCandidate@@@@YAXPAVCRoomCandidate@@@Z 101f9590 f i tilegen_actions.obj
 0002:000a45f0       ??$CreateFromKeyValuesBlock@V?$ITilegenExpression@PBVCRoom@@@@@@YA_NPAVKeyValues@@PBD1PAPAV?$ITilegenExpression@PBVCRoom@@@@_N3@Z 101f95f0 f i tilegen_actions.obj
 0002:000a4760       ??A?$CUtlVector@PAV?$ITilegenClassFactory@V?$ITilegenExpression@H@@@@V?$CUtlMemory@PAV?$ITilegenClassFactory@V?$ITilegenExpression@H@@@@H@@@@QAEAAPAV?$ITilegenClassFactory@V?$ITilegenExpression@H@@@@H@Z 101f9760 f i tilegen_actions.obj
 0002:000a4890       ?Count@?$CUtlVector@PAV?$ITilegenClassFactory@V?$ITilegenExpression@H@@@@V?$CUtlMemory@PAV?$ITilegenClassFactory@V?$ITilegenExpression@H@@@@H@@@@QBEHXZ 101f9890 f i tilegen_actions.obj
 0002:000a48d0       ??A?$CUtlVector@PAV?$ITilegenClassFactory@V?$ITilegenExpression@_N@@@@V?$CUtlMemory@PAV?$ITilegenClassFactory@V?$ITilegenExpression@_N@@@@H@@@@QAEAAPAV?$ITilegenClassFactory@V?$ITilegenExpression@_N@@@@H@Z 101f98d0 f i tilegen_actions.obj
 0002:000a4a00       ?Count@?$CUtlVector@PAV?$ITilegenClassFactory@V?$ITilegenExpression@_N@@@@V?$CUtlMemory@PAV?$ITilegenClassFactory@V?$ITilegenExpression@_N@@@@H@@@@QBEHXZ 101f9a00 f i tilegen_actions.obj
 0002:000a4a40       ?ValidateGrowSize@?$CUtlMemory@UActionConditionPair_t@@H@@IAEXXZ 101f9a40 f i tilegen_actions.obj
 0002:000a4a80       ?ValidateGrowSize@?$CUtlMemory@VCExit@@H@@IAEXXZ 101f9a80 f i tilegen_actions.obj
 0002:000a4ac0       ?ValidateGrowSize@?$CUtlMemory@URoomPlacementInfo_t@CTilegenAction_PlaceComponent@@H@@IAEXXZ 101f9ac0 f i tilegen_actions.obj
 0002:000a4b00       ?ResetDbgInfo@?$CUtlVector@URoomPlacementInstance_t@CTilegenAction_PlaceComponent@@V?$CUtlMemory@URoomPlacementInstance_t@CTilegenAction_PlaceComponent@@H@@@@IAEXXZ 101f9b00 f i tilegen_actions.obj
 0002:000a4b60       ?ValidateGrowSize@?$CUtlMemory@PBVCRoomTemplate@@H@@IAEXXZ 101f9b60 f i tilegen_actions.obj
 0002:000a4ba0       ?Base@?$CUtlVector@URoomPlacementInstance_t@CTilegenAction_PlaceComponent@@V?$CUtlMemory@URoomPlacementInstance_t@CTilegenAction_PlaceComponent@@H@@@@QAEPAURoomPlacementInstance_t@CTilegenAction_PlaceComponent@@XZ 101f9ba0 f i tilegen_actions.obj
 0002:000a4bf0       ??$CopyConstruct@VCInstanceSpawn@@@@YAPAVCInstanceSpawn@@PAV0@ABV0@@Z 101f9bf0 f i tilegen_actions.obj
 0002:000a4c90       ?Element@?$CUtlVector@UActionConditionPair_t@@V?$CUtlMemory@UActionConditionPair_t@@H@@@@QAEAAUActionConditionPair_t@@H@Z 101f9c90 f i tilegen_actions.obj
 0002:000a4dc0       ?IsValidIndex@?$CUtlVector@UActionConditionPair_t@@V?$CUtlMemory@UActionConditionPair_t@@H@@@@QBE_NH@Z 101f9dc0 f i tilegen_actions.obj
 0002:000a4e30       ?RemoveAll@?$CUtlVector@UActionConditionPair_t@@V?$CUtlMemory@UActionConditionPair_t@@H@@@@QAEXXZ 101f9e30 f i tilegen_actions.obj
 0002:000a4ec0       ?GrowVector@?$CUtlVector@UActionConditionPair_t@@V?$CUtlMemory@UActionConditionPair_t@@H@@@@IAEXH@Z 101f9ec0 f i tilegen_actions.obj
 0002:000a4fe0       ?ShiftElementsRight@?$CUtlVector@UActionConditionPair_t@@V?$CUtlMemory@UActionConditionPair_t@@H@@@@IAEXHH@Z 101f9fe0 f i tilegen_actions.obj
 0002:000a5180       ??$CopyConstruct@UActionConditionPair_t@@@@YAPAUActionConditionPair_t@@PAU0@ABU0@@Z 101fa180 f i tilegen_actions.obj
 0002:000a5220       ?IsIdxValid@?$CUtlMemory@UActionConditionPair_t@@H@@QBE_NH@Z 101fa220 f i tilegen_actions.obj
 0002:000a52a0       ?Purge@?$CUtlMemory@UActionConditionPair_t@@H@@QAEXXZ 101fa2a0 f i tilegen_actions.obj
 0002:000a5350       ?IsReadOnly@?$CUtlMemory@UActionConditionPair_t@@H@@QBE_NXZ 101fa350 f i tilegen_actions.obj
 0002:000a53a0       ??$MemAllocClassName@V?$CUtlMemory@UActionConditionPair_t@@H@@@@YAPBDPAV?$CUtlMemory@UActionConditionPair_t@@H@@@Z 101fa3a0 f i tilegen_actions.obj
 0002:000a5420       ?IsIdxValid@?$CUtlMemory@VCExit@@H@@QBE_NH@Z 101fa420 f i tilegen_actions.obj
 0002:000a54a0       ?Purge@?$CUtlMemory@VCExit@@H@@QAEXXZ 101fa4a0 f i tilegen_actions.obj
 0002:000a5550       ?IsReadOnly@?$CUtlMemory@VCExit@@H@@QBE_NXZ 101fa550 f i tilegen_actions.obj
 0002:000a55a0       ??$MemAllocClassName@V?$CUtlMemory@VCExit@@H@@@@YAPBDPAV?$CUtlMemory@VCExit@@H@@@Z 101fa5a0 f i tilegen_actions.obj
 0002:000a5620       ?IsValidIndex@?$CUtlVector@VCExit@@V?$CUtlMemory@VCExit@@H@@@@QBE_NH@Z 101fa620 f i tilegen_actions.obj
 0002:000a5690       ?GrowVector@?$CUtlVector@VCExit@@V?$CUtlMemory@VCExit@@H@@@@IAEXH@Z 101fa690 f i tilegen_actions.obj
 0002:000a57b0       ?ShiftElementsRight@?$CUtlVector@VCExit@@V?$CUtlMemory@VCExit@@H@@@@IAEXHH@Z 101fa7b0 f i tilegen_actions.obj
 0002:000a5950       ??$CopyConstruct@VCExit@@@@YAPAVCExit@@PAV0@ABV0@@Z 101fa950 f i tilegen_actions.obj
 0002:000a5b90       ?ReadLiteralValue@?$ITilegenClassFactory@V?$ITilegenExpression@PBD@@@@SAPAV?$ITilegenExpression@PBD@@PAVKeyValues@@@Z 101fab90 f i tilegen_actions.obj
 0002:000a5be0       ?IsValidIndex@?$CUtlVector@URoomPlacementInfo_t@CTilegenAction_PlaceComponent@@V?$CUtlMemory@URoomPlacementInfo_t@CTilegenAction_PlaceComponent@@H@@@@QBE_NH@Z 101fabe0 f i tilegen_actions.obj
 0002:000a5c50       ?RemoveAll@?$CUtlVector@URoomPlacementInfo_t@CTilegenAction_PlaceComponent@@V?$CUtlMemory@URoomPlacementInfo_t@CTilegenAction_PlaceComponent@@H@@@@QAEXXZ 101fac50 f i tilegen_actions.obj
 0002:000a5ce0       ?GrowVector@?$CUtlVector@URoomPlacementInfo_t@CTilegenAction_PlaceComponent@@V?$CUtlMemory@URoomPlacementInfo_t@CTilegenAction_PlaceComponent@@H@@@@IAEXH@Z 101face0 f i tilegen_actions.obj
 0002:000a5e00       ?ShiftElementsRight@?$CUtlVector@URoomPlacementInfo_t@CTilegenAction_PlaceComponent@@V?$CUtlMemory@URoomPlacementInfo_t@CTilegenAction_PlaceComponent@@H@@@@IAEXHH@Z 101fae00 f i tilegen_actions.obj
 0002:000a5fa0       ??$Construct@URoomPlacementInfo_t@CTilegenAction_PlaceComponent@@@@YAPAURoomPlacementInfo_t@CTilegenAction_PlaceComponent@@PAU01@@Z 101fafa0 f i tilegen_actions.obj
 0002:000a6000       ?IsIdxValid@?$CUtlMemory@URoomPlacementInfo_t@CTilegenAction_PlaceComponent@@H@@QBE_NH@Z 101fb000 f i tilegen_actions.obj
 0002:000a6080       ?Purge@?$CUtlMemory@URoomPlacementInfo_t@CTilegenAction_PlaceComponent@@H@@QAEXXZ 101fb080 f i tilegen_actions.obj
 0002:000a6130       ?IsReadOnly@?$CUtlMemory@URoomPlacementInfo_t@CTilegenAction_PlaceComponent@@H@@QBE_NXZ 101fb130 f i tilegen_actions.obj
 0002:000a6180       ??$MemAllocClassName@V?$CUtlMemory@URoomPlacementInfo_t@CTilegenAction_PlaceComponent@@H@@@@YAPBDPAV?$CUtlMemory@URoomPlacementInfo_t@CTilegenAction_PlaceComponent@@H@@@Z 101fb180 f i tilegen_actions.obj
 0002:000a6200       ?Element@?$CUtlVector@URoomPlacementInstance_t@CTilegenAction_PlaceComponent@@V?$CUtlMemory@URoomPlacementInstance_t@CTilegenAction_PlaceComponent@@H@@@@QBEABURoomPlacementInstance_t@CTilegenAction_PlaceComponent@@H@Z 101fb200 f i tilegen_actions.obj
 0002:000a6330       ?IsValidIndex@?$CUtlVector@URoomPlacementInstance_t@CTilegenAction_PlaceComponent@@V?$CUtlMemory@URoomPlacementInstance_t@CTilegenAction_PlaceComponent@@H@@@@QBE_NH@Z 101fb330 f i tilegen_actions.obj
 0002:000a63a0       ??0?$CUtlMemory@URoomPlacementInstance_t@CTilegenAction_PlaceComponent@@H@@QAE@HH@Z 101fb3a0 f i tilegen_actions.obj
 0002:000a6590       ?IsIdxValid@?$CUtlMemory@URoomPlacementInstance_t@CTilegenAction_PlaceComponent@@H@@QBE_NH@Z 101fb590 f i tilegen_actions.obj
 0002:000a6610       ?Base@?$CUtlMemory@URoomPlacementInstance_t@CTilegenAction_PlaceComponent@@H@@QAEPAURoomPlacementInstance_t@CTilegenAction_PlaceComponent@@XZ 101fb610 f i tilegen_actions.obj
 0002:000a6730       ?NumAllocated@?$CUtlMemory@URoomPlacementInstance_t@CTilegenAction_PlaceComponent@@H@@QBEHXZ 101fb730 f i tilegen_actions.obj
 0002:000a6770       ?Grow@?$CUtlMemory@URoomPlacementInstance_t@CTilegenAction_PlaceComponent@@H@@QAEXH@Z 101fb770 f i tilegen_actions.obj
 0002:000a6de0       ?Purge@?$CUtlMemory@URoomPlacementInstance_t@CTilegenAction_PlaceComponent@@H@@QAEXXZ 101fbde0 f i tilegen_actions.obj
 0002:000a6e90       ?IsReadOnly@?$CUtlMemory@URoomPlacementInstance_t@CTilegenAction_PlaceComponent@@H@@QBE_NXZ 101fbe90 f i tilegen_actions.obj
 0002:000a6ee0       ??$MemAllocClassName@V?$CUtlVector@URoomPlacementInstance_t@CTilegenAction_PlaceComponent@@V?$CUtlMemory@URoomPlacementInstance_t@CTilegenAction_PlaceComponent@@H@@@@@@YAPBDPAV?$CUtlVector@URoomPlacementInstance_t@CTilegenAction_PlaceComponent@@V?$CUtlMemory@URoomPlacementInstance_t@CTilegenAction_PlaceComponent@@H@@@@@Z 101fbee0 f i tilegen_actions.obj
 0002:000a6f60       ?IsIdxValid@?$CUtlMemory@PBVCRoomTemplate@@H@@QBE_NH@Z 101fbf60 f i tilegen_actions.obj
 0002:000a6fe0       ?Purge@?$CUtlMemory@PBVCRoomTemplate@@H@@QAEXXZ 101fbfe0 f i tilegen_actions.obj
 0002:000a7090       ??$MemAllocClassName@V?$CUtlMemory@PBVCRoomTemplate@@H@@@@YAPBDPAV?$CUtlMemory@PBVCRoomTemplate@@H@@@Z 101fc090 f i tilegen_actions.obj
 0002:000a7110       ?Element@?$CUtlVector@PBVCRoomTemplate@@V?$CUtlMemory@PBVCRoomTemplate@@H@@@@QAEAAPBVCRoomTemplate@@H@Z 101fc110 f i tilegen_actions.obj
 0002:000a7240       ?IsValidIndex@?$CUtlVector@PBVCRoomTemplate@@V?$CUtlMemory@PBVCRoomTemplate@@H@@@@QBE_NH@Z 101fc240 f i tilegen_actions.obj
 0002:000a72b0       ?RemoveAll@?$CUtlVector@PBVCRoomTemplate@@V?$CUtlMemory@PBVCRoomTemplate@@H@@@@QAEXXZ 101fc2b0 f i tilegen_actions.obj
 0002:000a7340       ?GrowVector@?$CUtlVector@PBVCRoomTemplate@@V?$CUtlMemory@PBVCRoomTemplate@@H@@@@IAEXH@Z 101fc340 f i tilegen_actions.obj
 0002:000a7460       ?ShiftElementsRight@?$CUtlVector@PBVCRoomTemplate@@V?$CUtlMemory@PBVCRoomTemplate@@H@@@@IAEXHH@Z 101fc460 f i tilegen_actions.obj
 0002:000a7600       ??$CopyConstruct@PBVCRoomTemplate@@@@YAPAPBVCRoomTemplate@@PAPBV0@ABQBV0@@Z 101fc600 f i tilegen_actions.obj
 0002:000a76a0       ?GrowVector@?$CUtlVector@VCRoomCandidate@@V?$CUtlMemory@VCRoomCandidate@@H@@@@IAEXH@Z 101fc6a0 f i tilegen_actions.obj
 0002:000a77c0       ?ShiftElementsRight@?$CUtlVector@VCRoomCandidate@@V?$CUtlMemory@VCRoomCandidate@@H@@@@IAEXHH@Z 101fc7c0 f i tilegen_actions.obj
 0002:000a7960       ??$CopyConstruct@VCRoomCandidate@@@@YAPAVCRoomCandidate@@PAV0@ABV0@@Z 101fc960 f i tilegen_actions.obj
 0002:000a7a20       ?IsIdxValid@?$CUtlMemory@VCRoomCandidate@@H@@QBE_NH@Z 101fca20 f i tilegen_actions.obj
 0002:000a7aa0       ?IsReadOnly@?$CUtlMemory@VCRoomCandidate@@H@@QBE_NXZ 101fcaa0 f i tilegen_actions.obj
 0002:000a7c90       ??A?$CUtlMemory@PAV?$ITilegenClassFactory@V?$ITilegenExpression@H@@@@H@@QAEAAPAV?$ITilegenClassFactory@V?$ITilegenExpression@H@@@@H@Z 101fcc90 f i tilegen_actions.obj
 0002:000a7e90       ??A?$CUtlMemory@PAV?$ITilegenClassFactory@V?$ITilegenExpression@_N@@@@H@@QAEAAPAV?$ITilegenClassFactory@V?$ITilegenExpression@_N@@@@H@Z 101fce90 f i tilegen_actions.obj
 0002:000a8090       ??0CInstanceSpawn@@QAE@ABV0@@Z 101fd090 f i tilegen_actions.obj
 0002:000a8150       ??0?$CCopyableUtlVector@UKeyValue_t@@@@QAE@ABV0@@Z 101fd150 f i tilegen_actions.obj
 0002:000a81f0       ?Base@?$CUtlVector@UKeyValue_t@@V?$CUtlMemory@UKeyValue_t@@H@@@@QBEPBUKeyValue_t@@XZ 101fd1f0 f i tilegen_actions.obj
 0002:000a8240       ?Base@?$CUtlMemory@UKeyValue_t@@H@@QBEPBUKeyValue_t@@XZ 101fd240 f i tilegen_actions.obj
 0002:000a8280       ?ValidateGrowSize@?$CUtlMemory@URoomPlacementInstance_t@CTilegenAction_PlaceComponent@@H@@IAEXXZ 101fd280 f i tilegen_actions.obj
 0002:000a82c0       ?ResetDbgInfo@?$CUtlVector@VCRoomCandidate@@V?$CUtlMemory@VCRoomCandidate@@H@@@@IAEXXZ 101fd2c0 f i tilegen_actions.obj
 0002:000a8320       ?CreateInstance@?$CTilegenClassRegistry@V?$ITilegenExpression@PBD@@@@SAPAV?$ITilegenExpression@PBD@@PBD@Z 101fd320 f i tilegen_actions.obj
 0002:000a8490       ?ReadLiteralValue@?$ITilegenClassFactory@V?$ITilegenExpression@PBVCRoom@@@@@@SAPAV?$ITilegenExpression@PBVCRoom@@@@PAVKeyValues@@@Z 101fd490 f i tilegen_actions.obj
 0002:000a8530       ?CreateInstance@?$CTilegenClassRegistry@V?$ITilegenExpression@PBVCRoom@@@@@@SAPAV?$ITilegenExpression@PBVCRoom@@@@PBD@Z 101fd530 f i tilegen_actions.obj
 0002:000a86a0       ?CopyArray@?$CUtlVector@UKeyValue_t@@V?$CUtlMemory@UKeyValue_t@@H@@@@QAEXPBUKeyValue_t@@H@Z 101fd6a0 f i tilegen_actions.obj
 0002:000a8870       ?NumAllocated@?$CUtlMemory@UActionConditionPair_t@@H@@QBEHXZ 101fd870 f i tilegen_actions.obj
 0002:000a88b0       ?Grow@?$CUtlMemory@UActionConditionPair_t@@H@@QAEXH@Z 101fd8b0 f i tilegen_actions.obj
 0002:000a8f20       ?IsExternallyAllocated@?$CUtlMemory@UActionConditionPair_t@@H@@QBE_NXZ 101fdf20 f i tilegen_actions.obj
 0002:000a8f70       ??$Destruct@UActionConditionPair_t@@@@YAXPAUActionConditionPair_t@@@Z 101fdf70 f i tilegen_actions.obj
 0002:000a8fd0       ??$MemAllocClassName@V?$CUtlVector@UActionConditionPair_t@@V?$CUtlMemory@UActionConditionPair_t@@H@@@@@@YAPBDPAV?$CUtlVector@UActionConditionPair_t@@V?$CUtlMemory@UActionConditionPair_t@@H@@@@@Z 101fdfd0 f i tilegen_actions.obj
 0002:000a9050       ?NumAllocated@?$CUtlMemory@VCExit@@H@@QBEHXZ 101fe050 f i tilegen_actions.obj
 0002:000a9090       ?Grow@?$CUtlMemory@VCExit@@H@@QAEXH@Z 101fe090 f i tilegen_actions.obj
 0002:000a9700       ?IsExternallyAllocated@?$CUtlMemory@VCExit@@H@@QBE_NXZ 101fe700 f i tilegen_actions.obj
 0002:000a9750       ??$MemAllocClassName@V?$CUtlVector@VCExit@@V?$CUtlMemory@VCExit@@H@@@@@@YAPBDPAV?$CUtlVector@VCExit@@V?$CUtlMemory@VCExit@@H@@@@@Z 101fe750 f i tilegen_actions.obj
 0002:000a97d0       ??A?$CUtlVector@PAV?$ITilegenClassFactory@V?$ITilegenExpression@PBD@@@@V?$CUtlMemory@PAV?$ITilegenClassFactory@V?$ITilegenExpression@PBD@@@@H@@@@QAEAAPAV?$ITilegenClassFactory@V?$ITilegenExpression@PBD@@@@H@Z 101fe7d0 f i tilegen_actions.obj
 0002:000a9900       ?Count@?$CUtlVector@PAV?$ITilegenClassFactory@V?$ITilegenExpression@PBD@@@@V?$CUtlMemory@PAV?$ITilegenClassFactory@V?$ITilegenExpression@PBD@@@@H@@@@QBEHXZ 101fe900 f i tilegen_actions.obj
 0002:000a9940       ??$Destruct@URoomPlacementInfo_t@CTilegenAction_PlaceComponent@@@@YAXPAURoomPlacementInfo_t@CTilegenAction_PlaceComponent@@@Z 101fe940 f i tilegen_actions.obj
 0002:000a99a0       ?NumAllocated@?$CUtlMemory@URoomPlacementInfo_t@CTilegenAction_PlaceComponent@@H@@QBEHXZ 101fe9a0 f i tilegen_actions.obj
 0002:000a99e0       ?Grow@?$CUtlMemory@URoomPlacementInfo_t@CTilegenAction_PlaceComponent@@H@@QAEXH@Z 101fe9e0 f i tilegen_actions.obj
 0002:000aa050       ?IsExternallyAllocated@?$CUtlMemory@URoomPlacementInfo_t@CTilegenAction_PlaceComponent@@H@@QBE_NXZ 101ff050 f i tilegen_actions.obj
 0002:000aa0a0       ??$MemAllocClassName@V?$CUtlVector@URoomPlacementInfo_t@CTilegenAction_PlaceComponent@@V?$CUtlMemory@URoomPlacementInfo_t@CTilegenAction_PlaceComponent@@H@@@@@@YAPBDPAV?$CUtlVector@URoomPlacementInfo_t@CTilegenAction_PlaceComponent@@V?$CUtlMemory@URoomPlacementInfo_t@CTilegenAction_PlaceComponent@@H@@@@@Z 101ff0a0 f i tilegen_actions.obj
 0002:000aa120       ??A?$CUtlMemory@URoomPlacementInstance_t@CTilegenAction_PlaceComponent@@H@@QBEABURoomPlacementInstance_t@CTilegenAction_PlaceComponent@@H@Z 101ff120 f i tilegen_actions.obj
 0002:000aa250       ?IsExternallyAllocated@?$CUtlMemory@URoomPlacementInstance_t@CTilegenAction_PlaceComponent@@H@@QBE_NXZ 101ff250 f i tilegen_actions.obj
 0002:000aa2a0       ??$MemAllocClassName@V?$CUtlMemory@URoomPlacementInstance_t@CTilegenAction_PlaceComponent@@H@@@@YAPBDPAV?$CUtlMemory@URoomPlacementInstance_t@CTilegenAction_PlaceComponent@@H@@@Z 101ff2a0 f i tilegen_actions.obj
 0002:000aa320       ?NumAllocated@?$CUtlMemory@PBVCRoomTemplate@@H@@QBEHXZ 101ff320 f i tilegen_actions.obj
 0002:000aa360       ?Grow@?$CUtlMemory@PBVCRoomTemplate@@H@@QAEXH@Z 101ff360 f i tilegen_actions.obj
 0002:000aa9d0       ?IsExternallyAllocated@?$CUtlMemory@PBVCRoomTemplate@@H@@QBE_NXZ 101ff9d0 f i tilegen_actions.obj
 0002:000aaa20       ??$Destruct@PBVCRoomTemplate@@@@YAXPAPBVCRoomTemplate@@@Z 101ffa20 f i tilegen_actions.obj
 0002:000aaa80       ??$MemAllocClassName@V?$CUtlVector@PBVCRoomTemplate@@V?$CUtlMemory@PBVCRoomTemplate@@H@@@@@@YAPBDPAV?$CUtlVector@PBVCRoomTemplate@@V?$CUtlMemory@PBVCRoomTemplate@@H@@@@@Z 101ffa80 f i tilegen_actions.obj
 0002:000aab00       ?NumAllocated@?$CUtlMemory@VCRoomCandidate@@H@@QBEHXZ 101ffb00 f i tilegen_actions.obj
 0002:000aab40       ?Grow@?$CUtlMemory@VCRoomCandidate@@H@@QAEXH@Z 101ffb40 f i tilegen_actions.obj
 0002:000ab1b0       ??$MemAllocClassName@V?$CUtlVector@VCRoomCandidate@@V?$CUtlMemory@VCRoomCandidate@@H@@@@@@YAPBDPAV?$CUtlVector@VCRoomCandidate@@V?$CUtlMemory@VCRoomCandidate@@H@@@@@Z 102001b0 f i tilegen_actions.obj
 0002:000ab230       ??A?$CUtlVector@PAV?$ITilegenClassFactory@V?$ITilegenExpression@PBVCRoom@@@@@@V?$CUtlMemory@PAV?$ITilegenClassFactory@V?$ITilegenExpression@PBVCRoom@@@@@@H@@@@QAEAAPAV?$ITilegenClassFactory@V?$ITilegenExpression@PBVCRoom@@@@@@H@Z 10200230 f i tilegen_actions.obj
 0002:000ab360       ?Count@?$CUtlVector@PAV?$ITilegenClassFactory@V?$ITilegenExpression@PBVCRoom@@@@@@V?$CUtlMemory@PAV?$ITilegenClassFactory@V?$ITilegenExpression@PBVCRoom@@@@@@H@@@@QBEHXZ 10200360 f i tilegen_actions.obj
 0002:000ab3a0       ?IsIdxValid@?$CUtlMemory@PAV?$ITilegenClassFactory@V?$ITilegenExpression@H@@@@H@@QBE_NH@Z 102003a0 f i tilegen_actions.obj
 0002:000ab420       ?IsReadOnly@?$CUtlMemory@PAV?$ITilegenClassFactory@V?$ITilegenExpression@H@@@@H@@QBE_NXZ 10200420 f i tilegen_actions.obj
 0002:000ab470       ?IsIdxValid@?$CUtlMemory@PAV?$ITilegenClassFactory@V?$ITilegenExpression@_N@@@@H@@QBE_NH@Z 10200470 f i tilegen_actions.obj
 0002:000ab4f0       ?IsReadOnly@?$CUtlMemory@PAV?$ITilegenClassFactory@V?$ITilegenExpression@_N@@@@H@@QBE_NXZ 102004f0 f i tilegen_actions.obj
 0002:000ab540       ?SetSize@?$CUtlVector@UKeyValue_t@@V?$CUtlMemory@UKeyValue_t@@H@@@@QAEXH@Z 10200540 f i tilegen_actions.obj
 0002:000ab5a0       ??A?$CUtlMemory@PAV?$ITilegenClassFactory@V?$ITilegenExpression@PBD@@@@H@@QAEAAPAV?$ITilegenClassFactory@V?$ITilegenExpression@PBD@@@@H@Z 102005a0 f i tilegen_actions.obj
 0002:000ab7a0       ?IsExternallyAllocated@?$CUtlMemory@VCRoomCandidate@@H@@QBE_NXZ 102007a0 f i tilegen_actions.obj
 0002:000ab7f0       ??$MemAllocClassName@V?$CUtlMemory@VCRoomCandidate@@H@@@@YAPBDPAV?$CUtlMemory@VCRoomCandidate@@H@@@Z 102007f0 f i tilegen_actions.obj
 0002:000ab870       ??A?$CUtlMemory@PAV?$ITilegenClassFactory@V?$ITilegenExpression@PBVCRoom@@@@@@H@@QAEAAPAV?$ITilegenClassFactory@V?$ITilegenExpression@PBVCRoom@@@@@@H@Z 10200870 f i tilegen_actions.obj
 0002:000aba70       ?SetCount@?$CUtlVector@UKeyValue_t@@V?$CUtlMemory@UKeyValue_t@@H@@@@QAEXH@Z 10200a70 f i tilegen_actions.obj
 0002:000abad0       ?IsIdxValid@?$CUtlMemory@PAV?$ITilegenClassFactory@V?$ITilegenExpression@PBD@@@@H@@QBE_NH@Z 10200ad0 f i tilegen_actions.obj
 0002:000abb50       ?IsReadOnly@?$CUtlMemory@PAV?$ITilegenClassFactory@V?$ITilegenExpression@PBD@@@@H@@QBE_NXZ 10200b50 f i tilegen_actions.obj
 0002:000abba0       ?IsIdxValid@?$CUtlMemory@PAV?$ITilegenClassFactory@V?$ITilegenExpression@PBVCRoom@@@@@@H@@QBE_NH@Z 10200ba0 f i tilegen_actions.obj
 0002:000abc20       ?IsReadOnly@?$CUtlMemory@PAV?$ITilegenClassFactory@V?$ITilegenExpression@PBVCRoom@@@@@@H@@QBE_NXZ 10200c20 f i tilegen_actions.obj
 0002:000abc70       ?AddMultipleToTail@?$CUtlVector@UKeyValue_t@@V?$CUtlMemory@UKeyValue_t@@H@@@@QAEHH@Z 10200c70 f i tilegen_actions.obj
 0002:000abcd0       ?InsertMultipleBefore@?$CUtlVector@UKeyValue_t@@V?$CUtlMemory@UKeyValue_t@@H@@@@QAEHHH@Z 10200cd0 f i tilegen_actions.obj
 0002:000abe80       ?GetName@?$CTilegenClassFactory@V?$ITilegenExpression@H@@VCTilegenExpression_Add@@@@UAEPBDXZ 10200e80 f   tilegen_class_factories.obj
 0002:000abec0       ?GetTypeName@CTilegenExpression_Add@@UAEPBDXZ 10200ec0 f   tilegen_class_factories.obj
 0002:000abf00       ?GetName@?$CTilegenClassFactory@V?$ITilegenExpression@H@@VCTilegenExpression_Subtract@@@@UAEPBDXZ 10200f00 f   tilegen_class_factories.obj
 0002:000abf40       ?GetTypeName@CTilegenExpression_Subtract@@UAEPBDXZ 10200f40 f   tilegen_class_factories.obj
 0002:000abf80       ?GetName@?$CTilegenClassFactory@V?$ITilegenExpression@M@@VCTilegenExpression_FloatMultiply@@@@UAEPBDXZ 10200f80 f   tilegen_class_factories.obj
 0002:000abfc0       ?GetTypeName@CTilegenExpression_FloatMultiply@@UAEPBDXZ 10200fc0 f   tilegen_class_factories.obj
 0002:000ac000       ?GetName@?$CTilegenClassFactory@V?$ITilegenExpression@_N@@VCTilegenExpression_And@@@@UAEPBDXZ 10201000 f   tilegen_class_factories.obj
 0002:000ac040       ?GetTypeName@CTilegenExpression_And@@UAEPBDXZ 10201040 f   tilegen_class_factories.obj
 0002:000ac080       ?GetName@?$CTilegenClassFactory@V?$ITilegenExpression@_N@@VCTilegenExpression_Or@@@@UAEPBDXZ 10201080 f   tilegen_class_factories.obj
 0002:000ac0c0       ?GetTypeName@CTilegenExpression_Or@@UAEPBDXZ 102010c0 f   tilegen_class_factories.obj
 0002:000ac100       ?GetName@?$CTilegenClassFactory@V?$ITilegenExpression@_N@@VCTilegenExpression_Not@@@@UAEPBDXZ 10201100 f   tilegen_class_factories.obj
 0002:000ac140       ?GetTypeName@CTilegenExpression_Not@@UAEPBDXZ 10201140 f   tilegen_class_factories.obj
 0002:000ac180       ?GetName@?$CTilegenClassFactory@V?$ITilegenExpression@H@@VCTilegenExpression_BoolToInt@@@@UAEPBDXZ 10201180 f   tilegen_class_factories.obj
 0002:000ac1c0       ?GetTypeName@CTilegenExpression_BoolToInt@@UAEPBDXZ 102011c0 f   tilegen_class_factories.obj
 0002:000ac200       ?GetName@?$CTilegenClassFactory@V?$ITilegenExpression@_N@@VCTilegenExpression_IntToBool@@@@UAEPBDXZ 10201200 f   tilegen_class_factories.obj
 0002:000ac240       ?GetTypeName@CTilegenExpression_IntToBool@@UAEPBDXZ 10201240 f   tilegen_class_factories.obj
 0002:000ac280       ?GetName@?$CTilegenClassFactory@V?$ITilegenExpression@H@@VCTilegenExpression_FloatToInt@@@@UAEPBDXZ 10201280 f   tilegen_class_factories.obj
 0002:000ac2c0       ?GetTypeName@CTilegenExpression_FloatToInt@@UAEPBDXZ 102012c0 f   tilegen_class_factories.obj
 0002:000ac300       ?GetName@?$CTilegenClassFactory@V?$ITilegenExpression@M@@VCTilegenExpression_IntToFloat@@@@UAEPBDXZ 10201300 f   tilegen_class_factories.obj
 0002:000ac340       ?GetTypeName@CTilegenExpression_IntToFloat@@UAEPBDXZ 10201340 f   tilegen_class_factories.obj
 0002:000ac380       ?GetName@?$CTilegenClassFactory@V?$ITilegenExpression@_N@@VCTilegenExpression_Greater@@@@UAEPBDXZ 10201380 f   tilegen_class_factories.obj
 0002:000ac3c0       ?GetTypeName@CTilegenExpression_Greater@@UAEPBDXZ 102013c0 f   tilegen_class_factories.obj
 0002:000ac400       ?GetName@?$CTilegenClassFactory@V?$ITilegenExpression@_N@@VCTilegenExpression_GreaterOrEqual@@@@UAEPBDXZ 10201400 f   tilegen_class_factories.obj
 0002:000ac440       ?GetTypeName@CTilegenExpression_GreaterOrEqual@@UAEPBDXZ 10201440 f   tilegen_class_factories.obj
 0002:000ac480       ?GetName@?$CTilegenClassFactory@V?$ITilegenExpression@_N@@VCTilegenExpression_Equal@@@@UAEPBDXZ 10201480 f   tilegen_class_factories.obj
 0002:000ac4c0       ?GetTypeName@CTilegenExpression_Equal@@UAEPBDXZ 102014c0 f   tilegen_class_factories.obj
 0002:000ac500       ?GetName@?$CTilegenClassFactory@V?$ITilegenExpression@_N@@VCTilegenExpression_NotEqual@@@@UAEPBDXZ 10201500 f   tilegen_class_factories.obj
 0002:000ac540       ?GetTypeName@CTilegenExpression_NotEqual@@UAEPBDXZ 10201540 f   tilegen_class_factories.obj
 0002:000ac580       ?GetName@?$CTilegenClassFactory@V?$ITilegenExpression@_N@@VCTilegenExpression_Less@@@@UAEPBDXZ 10201580 f   tilegen_class_factories.obj
 0002:000ac5c0       ?GetTypeName@CTilegenExpression_Less@@UAEPBDXZ 102015c0 f   tilegen_class_factories.obj
 0002:000ac600       ?GetName@?$CTilegenClassFactory@V?$ITilegenExpression@_N@@VCTilegenExpression_LessOrEqual@@@@UAEPBDXZ 10201600 f   tilegen_class_factories.obj
 0002:000ac640       ?GetTypeName@CTilegenExpression_LessOrEqual@@UAEPBDXZ 10201640 f   tilegen_class_factories.obj
 0002:000ac680       ?GetName@?$CTilegenClassFactory@V?$ITilegenExpression@H@@VCTilegenExpression_LiteralInt@@@@UAEPBDXZ 10201680 f   tilegen_class_factories.obj
 0002:000ac6c0       ?GetTypeName@CTilegenExpression_LiteralInt@@UAEPBDXZ 102016c0 f   tilegen_class_factories.obj
 0002:000ac700       ?GetName@?$CTilegenClassFactory@V?$ITilegenExpression@_N@@VCTilegenExpression_LiteralBool@@@@UAEPBDXZ 10201700 f   tilegen_class_factories.obj
 0002:000ac740       ?GetTypeName@CTilegenExpression_LiteralBool@@UAEPBDXZ 10201740 f   tilegen_class_factories.obj
 0002:000ac780       ?GetName@?$CTilegenClassFactory@V?$ITilegenExpression@M@@VCTilegenExpression_LiteralFloat@@@@UAEPBDXZ 10201780 f   tilegen_class_factories.obj
 0002:000ac7c0       ?GetTypeName@CTilegenExpression_LiteralFloat@@UAEPBDXZ 102017c0 f   tilegen_class_factories.obj
 0002:000ac800       ?GetName@?$CTilegenClassFactory@V?$ITilegenExpression@PBD@@VCTilegenExpression_LiteralString@@@@UAEPBDXZ 10201800 f   tilegen_class_factories.obj
 0002:000ac840       ?GetTypeName@CTilegenExpression_LiteralString@@UAEPBDXZ 10201840 f   tilegen_class_factories.obj
 0002:000ac880       ?GetName@?$CTilegenClassFactory@V?$ITilegenExpression@_N@@VCTilegenExpression_StringEqual@@@@UAEPBDXZ 10201880 f   tilegen_class_factories.obj
 0002:000ac8c0       ?GetTypeName@CTilegenExpression_StringEqual@@UAEPBDXZ 102018c0 f   tilegen_class_factories.obj
 0002:000ac900       ?GetName@?$CTilegenClassFactory@V?$ITilegenExpression@_N@@VCTilegenExpression_StringNotEqual@@@@UAEPBDXZ 10201900 f   tilegen_class_factories.obj
 0002:000ac940       ?GetTypeName@CTilegenExpression_StringNotEqual@@UAEPBDXZ 10201940 f   tilegen_class_factories.obj
 0002:000ac980       ?GetName@?$CTilegenClassFactory@V?$ITilegenExpression@PBD@@VCTilegenExpression_StringConcatenate@@@@UAEPBDXZ 10201980 f   tilegen_class_factories.obj
 0002:000ac9c0       ?GetTypeName@CTilegenExpression_StringConcatenate@@UAEPBDXZ 102019c0 f   tilegen_class_factories.obj
 0002:000aca00       ?GetName@?$CTilegenClassFactory@V?$ITilegenExpression@PBD@@VCTilegenExpression_RoomName@@@@UAEPBDXZ 10201a00 f   tilegen_class_factories.obj
 0002:000aca40       ?GetTypeName@CTilegenExpression_RoomName@@UAEPBDXZ 10201a40 f   tilegen_class_factories.obj
 0002:000aca80       ?GetName@?$CTilegenClassFactory@V?$ITilegenExpression@H@@VCTilegenExpression_RoomArea@@@@UAEPBDXZ 10201a80 f   tilegen_class_factories.obj
 0002:000acac0       ?GetTypeName@CTilegenExpression_RoomArea@@UAEPBDXZ 10201ac0 f   tilegen_class_factories.obj
 0002:000acb00       ?GetName@?$CTilegenClassFactory@V?$ITilegenExpression@PBD@@VCTilegenExpression_ExtractRoomName@@@@UAEPBDXZ 10201b00 f   tilegen_class_factories.obj
 0002:000acb40       ?GetTypeName@CTilegenExpression_ExtractRoomName@@UAEPBDXZ 10201b40 f   tilegen_class_factories.obj
 0002:000acb80       ?GetName@?$CTilegenClassFactory@V?$ITilegenExpression@PBD@@VCTilegenExpression_ExtractThemeName@@@@UAEPBDXZ 10201b80 f   tilegen_class_factories.obj
 0002:000acbc0       ?GetTypeName@CTilegenExpression_ExtractThemeName@@UAEPBDXZ 10201bc0 f   tilegen_class_factories.obj
 0002:000acc00       ?GetName@?$CTilegenClassFactory@V?$ITilegenExpression@PBVCRoom@@@@VCTilegenExpression_LastPlacedRoom@@@@UAEPBDXZ 10201c00 f   tilegen_class_factories.obj
 0002:000acc40       ?GetTypeName@CTilegenExpression_LastPlacedRoom@@UAEPBDXZ 10201c40 f   tilegen_class_factories.obj
 0002:000acc80       ?GetName@?$CTilegenClassFactory@V?$ITilegenExpression@PBVCRoom@@@@VCTilegenExpression_SourceRoomFromExit@@@@UAEPBDXZ 10201c80 f   tilegen_class_factories.obj
 0002:000accc0       ?GetTypeName@CTilegenExpression_SourceRoomFromExit@@UAEPBDXZ 10201cc0 f   tilegen_class_factories.obj
 0002:000acd00       ?GetName@?$CTilegenClassFactory@V?$ITilegenExpression@PBVCRoomTemplate@@@@VCTilegenExpression_SourceRoomTemplateFromExit@@@@UAEPBDXZ 10201d00 f   tilegen_class_factories.obj
 0002:000acd40       ?GetTypeName@CTilegenExpression_SourceRoomTemplateFromExit@@UAEPBDXZ 10201d40 f   tilegen_class_factories.obj
 0002:000acd80       ?GetName@?$CTilegenClassFactory@V?$ITilegenExpression@_N@@VCTilegenExpression_ChokepointGrowSource@@@@UAEPBDXZ 10201d80 f   tilegen_class_factories.obj
 0002:000acdc0       ?GetTypeName@CTilegenExpression_ChokepointGrowSource@@UAEPBDXZ 10201dc0 f   tilegen_class_factories.obj
 0002:000ace00       ?GetName@?$CTilegenClassFactory@V?$ITilegenExpression@H@@VCTilegenExpression_RoomChildCount@@@@UAEPBDXZ 10201e00 f   tilegen_class_factories.obj
 0002:000ace40       ?GetTypeName@CTilegenExpression_RoomChildCount@@UAEPBDXZ 10201e40 f   tilegen_class_factories.obj
 0002:000ace80       ?GetName@?$CTilegenClassFactory@V?$ITilegenExpression@PBVCRoomTemplate@@@@VCTilegenExpression_RoomTemplateFromName@@@@UAEPBDXZ 10201e80 f   tilegen_class_factories.obj
 0002:000acec0       ?GetTypeName@CTilegenExpression_RoomTemplateFromName@@UAEPBDXZ 10201ec0 f   tilegen_class_factories.obj
 0002:000acf00       ?GetName@?$CTilegenClassFactory@V?$ITilegenExpression@H@@VCTilegenExpression_XPosition@@@@UAEPBDXZ 10201f00 f   tilegen_class_factories.obj
 0002:000acf40       ?GetTypeName@CTilegenExpression_XPosition@@UAEPBDXZ 10201f40 f   tilegen_class_factories.obj
 0002:000acf80       ?GetName@?$CTilegenClassFactory@V?$ITilegenExpression@H@@VCTilegenExpression_YPosition@@@@UAEPBDXZ 10201f80 f   tilegen_class_factories.obj
 0002:000acfc0       ?GetTypeName@CTilegenExpression_YPosition@@UAEPBDXZ 10201fc0 f   tilegen_class_factories.obj
 0002:000ad000       ?GetName@?$CTilegenClassFactory@V?$ITilegenExpression@_N@@VCTilegenExpression_HasTag@@@@UAEPBDXZ 10202000 f   tilegen_class_factories.obj
 0002:000ad040       ?GetTypeName@CTilegenExpression_HasTag@@UAEPBDXZ 10202040 f   tilegen_class_factories.obj
 0002:000ad080       ?GetName@?$CTilegenClassFactory@V?$ITilegenExpression@_N@@VCTilegenExpression_CanPlaceRandomly@@@@UAEPBDXZ 10202080 f   tilegen_class_factories.obj
 0002:000ad0c0       ?GetTypeName@CTilegenExpression_CanPlaceRandomly@@UAEPBDXZ 102020c0 f   tilegen_class_factories.obj
 0002:000ad100       ?GetName@?$CTilegenClassFactory@V?$ITilegenExpression@H@@VCTilegenExpression_NumTimesPlaced@@@@UAEPBDXZ 10202100 f   tilegen_class_factories.obj
 0002:000ad140       ?GetTypeName@CTilegenExpression_NumTimesPlaced@@UAEPBDXZ 10202140 f   tilegen_class_factories.obj
 0002:000ad180       ?GetName@?$CTilegenClassFactory@V?$ITilegenExpression@PBD@@VCTilegenExpression_ExitTag@@@@UAEPBDXZ 10202180 f   tilegen_class_factories.obj
 0002:000ad1c0       ?GetTypeName@CTilegenExpression_ExitTag@@UAEPBDXZ 102021c0 f   tilegen_class_factories.obj
 0002:000ad200       ?GetName@?$CTilegenClassFactory@V?$ITilegenExpression@H@@VCTilegenExpression_ExitDirection@@@@UAEPBDXZ 10202200 f   tilegen_class_factories.obj
 0002:000ad240       ?GetTypeName@CTilegenExpression_ExitDirection@@UAEPBDXZ 10202240 f   tilegen_class_factories.obj
 0002:000ad280       ?GetName@?$CTilegenClassFactory@V?$ITilegenExpression@PBVCTilegenState@@@@VCTilegenExpression_ParentState@@@@UAEPBDXZ 10202280 f   tilegen_class_factories.obj
 0002:000ad2c0       ?GetTypeName@CTilegenExpression_ParentState@@UAEPBDXZ 102022c0 f   tilegen_class_factories.obj
 0002:000ad300       ?GetName@?$CTilegenClassFactory@V?$ITilegenExpression@PBD@@VCTilegenExpression_StateName@@@@UAEPBDXZ 10202300 f   tilegen_class_factories.obj
 0002:000ad340       ?GetTypeName@CTilegenExpression_StateName@@UAEPBDXZ 10202340 f   tilegen_class_factories.obj
 0002:000ad380       ?GetName@?$CTilegenClassFactory@V?$ITilegenExpression@H@@VCTilegenExpression_MapReduceExits@@@@UAEPBDXZ 10202380 f   tilegen_class_factories.obj
 0002:000ad3c0       ?GetTypeName@CTilegenExpression_MapReduceExits@@UAEPBDXZ 102023c0 f   tilegen_class_factories.obj
 0002:000ad400       ?GetName@?$CTilegenClassFactory@V?$ITilegenExpression@H@@VCTilegenExpression_CountExits@@@@UAEPBDXZ 10202400 f   tilegen_class_factories.obj
 0002:000ad440       ?GetTypeName@CTilegenExpression_CountExits@@UAEPBDXZ 10202440 f   tilegen_class_factories.obj
 0002:000ad480       ?GetName@?$CTilegenClassFactory@V?$ITilegenExpression@H@@VCTilegenExpression_VariableInt@@@@UAEPBDXZ 10202480 f   tilegen_class_factories.obj
 0002:000ad4c0       ?GetTypeName@CTilegenExpression_VariableInt@@UAEPBDXZ 102024c0 f   tilegen_class_factories.obj
 0002:000ad500       ?GetName@?$CTilegenClassFactory@V?$ITilegenExpression@PBD@@VCTilegenExpression_VariableString@@@@UAEPBDXZ 10202500 f   tilegen_class_factories.obj
 0002:000ad540       ?GetTypeName@CTilegenExpression_VariableString@@UAEPBDXZ 10202540 f   tilegen_class_factories.obj
 0002:000ad580       ?GetName@?$CTilegenClassFactory@V?$ITilegenExpression@PBVCExit@@@@VCTilegenExpression_VariableExit@@@@UAEPBDXZ 10202580 f   tilegen_class_factories.obj
 0002:000ad5c0       ?GetTypeName@CTilegenExpression_VariableExit@@UAEPBDXZ 102025c0 f   tilegen_class_factories.obj
 0002:000ad600       ?GetName@?$CTilegenClassFactory@V?$ITilegenExpression@PBVCRoomCandidate@@@@VCTilegenExpression_VariableRoomCandidate@@@@UAEPBDXZ 10202600 f   tilegen_class_factories.obj
 0002:000ad640       ?GetTypeName@CTilegenExpression_VariableRoomCandidate@@UAEPBDXZ 10202640 f   tilegen_class_factories.obj
 0002:000ad680       ?GetName@?$CTilegenClassFactory@V?$ITilegenExpression@PBVCRoomTemplate@@@@VCTilegenExpression_VariableRoomTemplate@@@@UAEPBDXZ 10202680 f   tilegen_class_factories.obj
 0002:000ad6c0       ?GetTypeName@CTilegenExpression_VariableRoomTemplate@@UAEPBDXZ 102026c0 f   tilegen_class_factories.obj
 0002:000ad700       ?GetName@?$CTilegenClassFactory@V?$ITilegenExpression@PBVCTilegenState@@@@VCTilegenExpression_VariableState@@@@UAEPBDXZ 10202700 f   tilegen_class_factories.obj
 0002:000ad740       ?GetTypeName@CTilegenExpression_VariableState@@UAEPBDXZ 10202740 f   tilegen_class_factories.obj
 0002:000ad780       ?GetName@?$CTilegenClassFactory@VITilegenAction@@VCTilegenAction_NestedActions@@@@UAEPBDXZ 10202780 f   tilegen_class_factories.obj
 0002:000ad7c0       ?GetTypeName@CTilegenAction_NestedActions@@UAEPBDXZ 102027c0 f   tilegen_class_factories.obj
 0002:000ad800       ?GetName@?$CTilegenClassFactory@VITilegenAction@@VCTilegenAction_SetVariableInt@@@@UAEPBDXZ 10202800 f   tilegen_class_factories.obj
 0002:000ad840       ?GetTypeName@CTilegenAction_SetVariableInt@@UAEPBDXZ 10202840 f   tilegen_class_factories.obj
 0002:000ad880       ?GetName@?$CTilegenClassFactory@VITilegenAction@@VCTilegenAction_SetVariableString@@@@UAEPBDXZ 10202880 f   tilegen_class_factories.obj
 0002:000ad8c0       ?GetTypeName@CTilegenAction_SetVariableString@@UAEPBDXZ 102028c0 f   tilegen_class_factories.obj
 0002:000ad900       ?GetName@?$CTilegenClassFactory@VITilegenAction@@VCTilegenAction_SetVariableBoolExpression@@@@UAEPBDXZ 10202900 f   tilegen_class_factories.obj
 0002:000ad940       ?GetTypeName@CTilegenAction_SetVariableBoolExpression@@UAEPBDXZ 10202940 f   tilegen_class_factories.obj
 0002:000ad980       ?GetName@?$CTilegenClassFactory@VITilegenAction@@VCTilegenAction_SetVariableAction@@@@UAEPBDXZ 10202980 f   tilegen_class_factories.obj
 0002:000ad9c0       ?GetTypeName@CTilegenAction_SetVariableAction@@UAEPBDXZ 102029c0 f   tilegen_class_factories.obj
 0002:000ada00       ?GetName@?$CTilegenClassFactory@VITilegenAction@@VCTilegenAction_AddRoomCandidates@@@@UAEPBDXZ 10202a00 f   tilegen_class_factories.obj
 0002:000ada40       ?GetTypeName@CTilegenAction_AddRoomCandidates@@UAEPBDXZ 10202a40 f   tilegen_class_factories.obj
 0002:000ada80       ?GetName@?$CTilegenClassFactory@VITilegenAction@@VCTilegenAction_AddRoomCandidatesAtLocation@@@@UAEPBDXZ 10202a80 f   tilegen_class_factories.obj
 0002:000adac0       ?GetTypeName@CTilegenAction_AddRoomCandidatesAtLocation@@UAEPBDXZ 10202ac0 f   tilegen_class_factories.obj
 0002:000adb00       ?GetName@?$CTilegenClassFactory@VITilegenAction@@VCTilegenAction_ChooseCandidate@@@@UAEPBDXZ 10202b00 f   tilegen_class_factories.obj
 0002:000adb40       ?GetTypeName@CTilegenAction_ChooseCandidate@@UAEPBDXZ 10202b40 f   tilegen_class_factories.obj
 0002:000adb80       ?GetName@?$CTilegenClassFactory@VITilegenAction@@VCTilegenAction_FilterCandidatesByDirection@@@@UAEPBDXZ 10202b80 f   tilegen_class_factories.obj
 0002:000adbc0       ?GetTypeName@CTilegenAction_FilterCandidatesByDirection@@UAEPBDXZ 10202bc0 f   tilegen_class_factories.obj
 0002:000adc00       ?GetName@?$CTilegenClassFactory@VITilegenAction@@VCTilegenAction_FilterCandidatesForLinearGrowth@@@@UAEPBDXZ 10202c00 f   tilegen_class_factories.obj
 0002:000adc40       ?GetTypeName@CTilegenAction_FilterCandidatesForLinearGrowth@@UAEPBDXZ 10202c40 f   tilegen_class_factories.obj
 0002:000adc80       ?GetName@?$CTilegenClassFactory@VITilegenAction@@VCTilegenAction_SwitchState@@@@UAEPBDXZ 10202c80 f   tilegen_class_factories.obj
 0002:000adcc0       ?GetTypeName@CTilegenAction_SwitchState@@UAEPBDXZ 10202cc0 f   tilegen_class_factories.obj
 0002:000add00       ?GetName@?$CTilegenClassFactory@VITilegenAction@@VCTilegenAction_FinishGeneration@@@@UAEPBDXZ 10202d00 f   tilegen_class_factories.obj
 0002:000add40       ?GetTypeName@CTilegenAction_FinishGeneration@@UAEPBDXZ 10202d40 f   tilegen_class_factories.obj
 0002:000add80       ?GetName@?$CTilegenClassFactory@VITilegenAction@@VCTilegenAction_EpicFail@@@@UAEPBDXZ 10202d80 f   tilegen_class_factories.obj
 0002:000addc0       ?GetTypeName@CTilegenAction_EpicFail@@UAEPBDXZ 10202dc0 f   tilegen_class_factories.obj
 0002:000ade00       ?GetName@?$CTilegenClassFactory@VITilegenAction@@VCTilegenAction_EnsureRoomExists@@@@UAEPBDXZ 10202e00 f   tilegen_class_factories.obj
 0002:000ade40       ?GetTypeName@CTilegenAction_EnsureRoomExists@@UAEPBDXZ 10202e40 f   tilegen_class_factories.obj
 0002:000ade80       ?GetName@?$CTilegenClassFactory@VITilegenAction@@VCTilegenAction_AddConnectorRoomCandidates@@@@UAEPBDXZ 10202e80 f   tilegen_class_factories.obj
 0002:000adec0       ?GetTypeName@CTilegenAction_AddConnectorRoomCandidates@@UAEPBDXZ 10202ec0 f   tilegen_class_factories.obj
 0002:000adf00       ?GetName@?$CTilegenClassFactory@VITilegenAction@@VCTilegenAction_PlaceComponent@@@@UAEPBDXZ 10202f00 f   tilegen_class_factories.obj
 0002:000adf40       ?GetTypeName@CTilegenAction_PlaceComponent@@UAEPBDXZ 10202f40 f   tilegen_class_factories.obj
 0002:000adf80       ?GetName@?$CTilegenClassFactory@VITilegenAction@@VCTilegenAction_AddInstances@@@@UAEPBDXZ 10202f80 f   tilegen_class_factories.obj
 0002:000adfc0       ?GetTypeName@CTilegenAction_AddInstances@@UAEPBDXZ 10202fc0 f   tilegen_class_factories.obj
 0002:000ae000       ?GetName@?$CTilegenClassFactory@VITilegenAction@@VCTilegenAction_AddInstanceToRoom@@@@UAEPBDXZ 10203000 f   tilegen_class_factories.obj
 0002:000ae040       ?GetTypeName@CTilegenAction_AddInstanceToRoom@@UAEPBDXZ 10203040 f   tilegen_class_factories.obj
 0002:000ae080       ?GetName@?$CTilegenClassFactory@VITilegenAction@@VCTilegenAction_LoadLayout@@@@UAEPBDXZ 10203080 f   tilegen_class_factories.obj
 0002:000ae0c0       ?GetTypeName@CTilegenAction_LoadLayout@@UAEPBDXZ 102030c0 f   tilegen_class_factories.obj
 0002:000ae100       ?GetName@?$CTilegenClassFactory@V?$ITilegenRange@PBVCExit@@@@VCTilegenRange_NewOpenExits@@@@UAEPBDXZ 10203100 f   tilegen_class_factories.obj
 0002:000ae140       ?GetName@?$CTilegenClassFactory@V?$ITilegenRange@PBVCExit@@@@VCTilegenRange_ClosedExits@@@@UAEPBDXZ 10203140 f   tilegen_class_factories.obj
 0002:000ae180       ?RegisterAllTilegenClasses@@YAXXZ 10203180 f   tilegen_class_factories.obj
 0002:000ae660       ?CreateActionAndCondition@@YA_NPAVKeyValues@@PAPAVITilegenAction@@PAPAV?$ITilegenExpression@_N@@@Z 10203660 f   tilegen_class_factories.obj
 0002:000ae720       ?CreateActionAndConditionFromKeyValuesBlock@@YA_NPAVKeyValues@@PBD1PAPAVITilegenAction@@PAPAV?$ITilegenExpression@_N@@@Z 10203720 f   tilegen_class_factories.obj
 0002:000ae810       ?AddFactory@?$CTilegenClassRegistry@V?$ITilegenExpression@_N@@@@SAXPAV?$ITilegenClassFactory@V?$ITilegenExpression@_N@@@@@Z 10203810 f i tilegen_class_factories.obj
 0002:000ae860       ?AddFactory@?$CTilegenClassRegistry@V?$ITilegenExpression@H@@@@SAXPAV?$ITilegenClassFactory@V?$ITilegenExpression@H@@@@@Z 10203860 f i tilegen_class_factories.obj
 0002:000ae8b0       ?AddFactory@?$CTilegenClassRegistry@V?$ITilegenExpression@M@@@@SAXPAV?$ITilegenClassFactory@V?$ITilegenExpression@M@@@@@Z 102038b0 f i tilegen_class_factories.obj
 0002:000ae900       ?AddFactory@?$CTilegenClassRegistry@V?$ITilegenExpression@PBD@@@@SAXPAV?$ITilegenClassFactory@V?$ITilegenExpression@PBD@@@@@Z 10203900 f i tilegen_class_factories.obj
 0002:000ae950       ?AddFactory@?$CTilegenClassRegistry@V?$ITilegenExpression@PBVCExit@@@@@@SAXPAV?$ITilegenClassFactory@V?$ITilegenExpression@PBVCExit@@@@@@@Z 10203950 f i tilegen_class_factories.obj
 0002:000ae9a0       ?AddFactory@?$CTilegenClassRegistry@V?$ITilegenExpression@PBVCRoomTemplate@@@@@@SAXPAV?$ITilegenClassFactory@V?$ITilegenExpression@PBVCRoomTemplate@@@@@@@Z 102039a0 f i tilegen_class_factories.obj
 0002:000ae9f0       ?AddFactory@?$CTilegenClassRegistry@V?$ITilegenExpression@PBVCRoom@@@@@@SAXPAV?$ITilegenClassFactory@V?$ITilegenExpression@PBVCRoom@@@@@@@Z 102039f0 f i tilegen_class_factories.obj
 0002:000aea40       ?AddFactory@?$CTilegenClassRegistry@V?$ITilegenExpression@PBVCRoomCandidate@@@@@@SAXPAV?$ITilegenClassFactory@V?$ITilegenExpression@PBVCRoomCandidate@@@@@@@Z 10203a40 f i tilegen_class_factories.obj
 0002:000aea90       ?AddFactory@?$CTilegenClassRegistry@V?$ITilegenExpression@PBVCTilegenState@@@@@@SAXPAV?$ITilegenClassFactory@V?$ITilegenExpression@PBVCTilegenState@@@@@@@Z 10203a90 f i tilegen_class_factories.obj
 0002:000aeae0       ?AddFactory@?$CTilegenClassRegistry@VITilegenAction@@@@SAXPAV?$ITilegenClassFactory@VITilegenAction@@@@@Z 10203ae0 f i tilegen_class_factories.obj
 0002:000aeb30       ?AddFactory@?$CTilegenClassRegistry@V?$ITilegenRange@PBVCExit@@@@@@SAXPAV?$ITilegenClassFactory@V?$ITilegenRange@PBVCExit@@@@@@@Z 10203b30 f i tilegen_class_factories.obj
 0002:000aeb80       ?AddToTail@?$CUtlVector@PAV?$ITilegenClassFactory@V?$ITilegenExpression@_N@@@@V?$CUtlMemory@PAV?$ITilegenClassFactory@V?$ITilegenExpression@_N@@@@H@@@@QAEHABQAV?$ITilegenClassFactory@V?$ITilegenExpression@_N@@@@@Z 10203b80 f i tilegen_class_factories.obj
 0002:000aecf0       ?AddToTail@?$CUtlVector@PAV?$ITilegenClassFactory@V?$ITilegenExpression@H@@@@V?$CUtlMemory@PAV?$ITilegenClassFactory@V?$ITilegenExpression@H@@@@H@@@@QAEHABQAV?$ITilegenClassFactory@V?$ITilegenExpression@H@@@@@Z 10203cf0 f i tilegen_class_factories.obj
 0002:000aee60       ?AddToTail@?$CUtlVector@PAV?$ITilegenClassFactory@V?$ITilegenExpression@M@@@@V?$CUtlMemory@PAV?$ITilegenClassFactory@V?$ITilegenExpression@M@@@@H@@@@QAEHABQAV?$ITilegenClassFactory@V?$ITilegenExpression@M@@@@@Z 10203e60 f i tilegen_class_factories.obj
 0002:000aefd0       ?AddToTail@?$CUtlVector@PAV?$ITilegenClassFactory@V?$ITilegenExpression@PBD@@@@V?$CUtlMemory@PAV?$ITilegenClassFactory@V?$ITilegenExpression@PBD@@@@H@@@@QAEHABQAV?$ITilegenClassFactory@V?$ITilegenExpression@PBD@@@@@Z 10203fd0 f i tilegen_class_factories.obj
 0002:000af140       ?AddToTail@?$CUtlVector@PAV?$ITilegenClassFactory@V?$ITilegenExpression@PBVCExit@@@@@@V?$CUtlMemory@PAV?$ITilegenClassFactory@V?$ITilegenExpression@PBVCExit@@@@@@H@@@@QAEHABQAV?$ITilegenClassFactory@V?$ITilegenExpression@PBVCExit@@@@@@@Z 10204140 f i tilegen_class_factories.obj
 0002:000af2b0       ?AddToTail@?$CUtlVector@PAV?$ITilegenClassFactory@V?$ITilegenExpression@PBVCRoomTemplate@@@@@@V?$CUtlMemory@PAV?$ITilegenClassFactory@V?$ITilegenExpression@PBVCRoomTemplate@@@@@@H@@@@QAEHABQAV?$ITilegenClassFactory@V?$ITilegenExpression@PBVCRoomTemplate@@@@@@@Z 102042b0 f i tilegen_class_factories.obj
 0002:000af420       ?AddToTail@?$CUtlVector@PAV?$ITilegenClassFactory@V?$ITilegenExpression@PBVCRoom@@@@@@V?$CUtlMemory@PAV?$ITilegenClassFactory@V?$ITilegenExpression@PBVCRoom@@@@@@H@@@@QAEHABQAV?$ITilegenClassFactory@V?$ITilegenExpression@PBVCRoom@@@@@@@Z 10204420 f i tilegen_class_factories.obj
 0002:000af590       ?AddToTail@?$CUtlVector@PAV?$ITilegenClassFactory@V?$ITilegenExpression@PBVCRoomCandidate@@@@@@V?$CUtlMemory@PAV?$ITilegenClassFactory@V?$ITilegenExpression@PBVCRoomCandidate@@@@@@H@@@@QAEHABQAV?$ITilegenClassFactory@V?$ITilegenExpression@PBVCRoomCandidate@@@@@@@Z 10204590 f i tilegen_class_factories.obj
 0002:000af700       ?AddToTail@?$CUtlVector@PAV?$ITilegenClassFactory@V?$ITilegenExpression@PBVCTilegenState@@@@@@V?$CUtlMemory@PAV?$ITilegenClassFactory@V?$ITilegenExpression@PBVCTilegenState@@@@@@H@@@@QAEHABQAV?$ITilegenClassFactory@V?$ITilegenExpression@PBVCTilegenState@@@@@@@Z 10204700 f i tilegen_class_factories.obj
 0002:000af870       ?AddToTail@?$CUtlVector@PAV?$ITilegenClassFactory@VITilegenAction@@@@V?$CUtlMemory@PAV?$ITilegenClassFactory@VITilegenAction@@@@H@@@@QAEHABQAV?$ITilegenClassFactory@VITilegenAction@@@@@Z 10204870 f i tilegen_class_factories.obj
 0002:000af9e0       ?AddToTail@?$CUtlVector@PAV?$ITilegenClassFactory@V?$ITilegenRange@PBVCExit@@@@@@V?$CUtlMemory@PAV?$ITilegenClassFactory@V?$ITilegenRange@PBVCExit@@@@@@H@@@@QAEHABQAV?$ITilegenClassFactory@V?$ITilegenRange@PBVCExit@@@@@@@Z 102049e0 f i tilegen_class_factories.obj
 0002:000afe90       ?Base@?$CUtlVector@PAV?$ITilegenClassFactory@V?$ITilegenExpression@_N@@@@V?$CUtlMemory@PAV?$ITilegenClassFactory@V?$ITilegenExpression@_N@@@@H@@@@QAEPAPAV?$ITilegenClassFactory@V?$ITilegenExpression@_N@@@@XZ 10204e90 f i tilegen_class_factories.obj
 0002:000afee0       ?Base@?$CUtlVector@PAV?$ITilegenClassFactory@V?$ITilegenExpression@H@@@@V?$CUtlMemory@PAV?$ITilegenClassFactory@V?$ITilegenExpression@H@@@@H@@@@QAEPAPAV?$ITilegenClassFactory@V?$ITilegenExpression@H@@@@XZ 10204ee0 f i tilegen_class_factories.obj
 0002:000aff30       ?Base@?$CUtlVector@PAV?$ITilegenClassFactory@V?$ITilegenExpression@M@@@@V?$CUtlMemory@PAV?$ITilegenClassFactory@V?$ITilegenExpression@M@@@@H@@@@QAEPAPAV?$ITilegenClassFactory@V?$ITilegenExpression@M@@@@XZ 10204f30 f i tilegen_class_factories.obj
 0002:000aff80       ?Base@?$CUtlVector@PAV?$ITilegenClassFactory@V?$ITilegenExpression@PBD@@@@V?$CUtlMemory@PAV?$ITilegenClassFactory@V?$ITilegenExpression@PBD@@@@H@@@@QAEPAPAV?$ITilegenClassFactory@V?$ITilegenExpression@PBD@@@@XZ 10204f80 f i tilegen_class_factories.obj
 0002:000affd0       ?Base@?$CUtlVector@PAV?$ITilegenClassFactory@V?$ITilegenExpression@PBVCExit@@@@@@V?$CUtlMemory@PAV?$ITilegenClassFactory@V?$ITilegenExpression@PBVCExit@@@@@@H@@@@QAEPAPAV?$ITilegenClassFactory@V?$ITilegenExpression@PBVCExit@@@@@@XZ 10204fd0 f i tilegen_class_factories.obj
 0002:000b0020       ?Base@?$CUtlVector@PAV?$ITilegenClassFactory@V?$ITilegenExpression@PBVCRoomTemplate@@@@@@V?$CUtlMemory@PAV?$ITilegenClassFactory@V?$ITilegenExpression@PBVCRoomTemplate@@@@@@H@@@@QAEPAPAV?$ITilegenClassFactory@V?$ITilegenExpression@PBVCRoomTemplate@@@@@@XZ 10205020 f i tilegen_class_factories.obj
 0002:000b0070       ?Base@?$CUtlVector@PAV?$ITilegenClassFactory@V?$ITilegenExpression@PBVCRoom@@@@@@V?$CUtlMemory@PAV?$ITilegenClassFactory@V?$ITilegenExpression@PBVCRoom@@@@@@H@@@@QAEPAPAV?$ITilegenClassFactory@V?$ITilegenExpression@PBVCRoom@@@@@@XZ 10205070 f i tilegen_class_factories.obj
 0002:000b00c0       ?Base@?$CUtlVector@PAV?$ITilegenClassFactory@V?$ITilegenExpression@PBVCRoomCandidate@@@@@@V?$CUtlMemory@PAV?$ITilegenClassFactory@V?$ITilegenExpression@PBVCRoomCandidate@@@@@@H@@@@QAEPAPAV?$ITilegenClassFactory@V?$ITilegenExpression@PBVCRoomCandidate@@@@@@XZ 102050c0 f i tilegen_class_factories.obj
 0002:000b0110       ?Base@?$CUtlVector@PAV?$ITilegenClassFactory@V?$ITilegenExpression@PBVCTilegenState@@@@@@V?$CUtlMemory@PAV?$ITilegenClassFactory@V?$ITilegenExpression@PBVCTilegenState@@@@@@H@@@@QAEPAPAV?$ITilegenClassFactory@V?$ITilegenExpression@PBVCTilegenState@@@@@@XZ 10205110 f i tilegen_class_factories.obj
 0002:000b0160       ?CreateInstance@?$CTilegenClassRegistry@VITilegenAction@@@@SAPAVITilegenAction@@PBD@Z 10205160 f i tilegen_class_factories.obj
 0002:000b02d0       ?Base@?$CUtlVector@PAV?$ITilegenClassFactory@VITilegenAction@@@@V?$CUtlMemory@PAV?$ITilegenClassFactory@VITilegenAction@@@@H@@@@QAEPAPAV?$ITilegenClassFactory@VITilegenAction@@@@XZ 102052d0 f i tilegen_class_factories.obj
 0002:000b0320       ?Base@?$CUtlVector@PAV?$ITilegenClassFactory@V?$ITilegenRange@PBVCExit@@@@@@V?$CUtlMemory@PAV?$ITilegenClassFactory@V?$ITilegenRange@PBVCExit@@@@@@H@@@@QAEPAPAV?$ITilegenClassFactory@V?$ITilegenRange@PBVCExit@@@@@@XZ 10205320 f i tilegen_class_factories.obj
 0002:000b0370       ?ReadLiteralValue@?$ITilegenClassFactory@VITilegenAction@@@@SAPAVITilegenAction@@PAVKeyValues@@@Z 10205370 f i tilegen_class_factories.obj
 0002:000b0410       ?InsertBefore@?$CUtlVector@PAV?$ITilegenClassFactory@V?$ITilegenExpression@_N@@@@V?$CUtlMemory@PAV?$ITilegenClassFactory@V?$ITilegenExpression@_N@@@@H@@@@QAEHHABQAV?$ITilegenClassFactory@V?$ITilegenExpression@_N@@@@@Z 10205410 f i tilegen_class_factories.obj
 0002:000b0690       ?Base@?$CUtlMemory@PAV?$ITilegenClassFactory@V?$ITilegenExpression@_N@@@@H@@QAEPAPAV?$ITilegenClassFactory@V?$ITilegenExpression@_N@@@@XZ 10205690 f i tilegen_class_factories.obj
 0002:000b07b0       ?InsertBefore@?$CUtlVector@PAV?$ITilegenClassFactory@V?$ITilegenExpression@H@@@@V?$CUtlMemory@PAV?$ITilegenClassFactory@V?$ITilegenExpression@H@@@@H@@@@QAEHHABQAV?$ITilegenClassFactory@V?$ITilegenExpression@H@@@@@Z 102057b0 f i tilegen_class_factories.obj
 0002:000b0a30       ?Base@?$CUtlMemory@PAV?$ITilegenClassFactory@V?$ITilegenExpression@H@@@@H@@QAEPAPAV?$ITilegenClassFactory@V?$ITilegenExpression@H@@@@XZ 10205a30 f i tilegen_class_factories.obj
 0002:000b0b50       ?Count@?$CUtlVector@PAV?$ITilegenClassFactory@V?$ITilegenExpression@M@@@@V?$CUtlMemory@PAV?$ITilegenClassFactory@V?$ITilegenExpression@M@@@@H@@@@QBEHXZ 10205b50 f i tilegen_class_factories.obj
 0002:000b0b90       ?InsertBefore@?$CUtlVector@PAV?$ITilegenClassFactory@V?$ITilegenExpression@M@@@@V?$CUtlMemory@PAV?$ITilegenClassFactory@V?$ITilegenExpression@M@@@@H@@@@QAEHHABQAV?$ITilegenClassFactory@V?$ITilegenExpression@M@@@@@Z 10205b90 f i tilegen_class_factories.obj
 0002:000b0e10       ?Base@?$CUtlMemory@PAV?$ITilegenClassFactory@V?$ITilegenExpression@M@@@@H@@QAEPAPAV?$ITilegenClassFactory@V?$ITilegenExpression@M@@@@XZ 10205e10 f i tilegen_class_factories.obj
 0002:000b0f30       ?InsertBefore@?$CUtlVector@PAV?$ITilegenClassFactory@V?$ITilegenExpression@PBD@@@@V?$CUtlMemory@PAV?$ITilegenClassFactory@V?$ITilegenExpression@PBD@@@@H@@@@QAEHHABQAV?$ITilegenClassFactory@V?$ITilegenExpression@PBD@@@@@Z 10205f30 f i tilegen_class_factories.obj
 0002:000b11b0       ?Base@?$CUtlMemory@PAV?$ITilegenClassFactory@V?$ITilegenExpression@PBD@@@@H@@QAEPAPAV?$ITilegenClassFactory@V?$ITilegenExpression@PBD@@@@XZ 102061b0 f i tilegen_class_factories.obj
 0002:000b12d0       ?Count@?$CUtlVector@PAV?$ITilegenClassFactory@V?$ITilegenExpression@PBVCExit@@@@@@V?$CUtlMemory@PAV?$ITilegenClassFactory@V?$ITilegenExpression@PBVCExit@@@@@@H@@@@QBEHXZ 102062d0 f i tilegen_class_factories.obj
 0002:000b1310       ?InsertBefore@?$CUtlVector@PAV?$ITilegenClassFactory@V?$ITilegenExpression@PBVCExit@@@@@@V?$CUtlMemory@PAV?$ITilegenClassFactory@V?$ITilegenExpression@PBVCExit@@@@@@H@@@@QAEHHABQAV?$ITilegenClassFactory@V?$ITilegenExpression@PBVCExit@@@@@@@Z 10206310 f i tilegen_class_factories.obj
 0002:000b1590       ?Base@?$CUtlMemory@PAV?$ITilegenClassFactory@V?$ITilegenExpression@PBVCExit@@@@@@H@@QAEPAPAV?$ITilegenClassFactory@V?$ITilegenExpression@PBVCExit@@@@@@XZ 10206590 f i tilegen_class_factories.obj
 0002:000b16b0       ?Count@?$CUtlVector@PAV?$ITilegenClassFactory@V?$ITilegenExpression@PBVCRoomTemplate@@@@@@V?$CUtlMemory@PAV?$ITilegenClassFactory@V?$ITilegenExpression@PBVCRoomTemplate@@@@@@H@@@@QBEHXZ 102066b0 f i tilegen_class_factories.obj
 0002:000b16f0       ?InsertBefore@?$CUtlVector@PAV?$ITilegenClassFactory@V?$ITilegenExpression@PBVCRoomTemplate@@@@@@V?$CUtlMemory@PAV?$ITilegenClassFactory@V?$ITilegenExpression@PBVCRoomTemplate@@@@@@H@@@@QAEHHABQAV?$ITilegenClassFactory@V?$ITilegenExpression@PBVCRoomTemplate@@@@@@@Z 102066f0 f i tilegen_class_factories.obj
 0002:000b1970       ?Base@?$CUtlMemory@PAV?$ITilegenClassFactory@V?$ITilegenExpression@PBVCRoomTemplate@@@@@@H@@QAEPAPAV?$ITilegenClassFactory@V?$ITilegenExpression@PBVCRoomTemplate@@@@@@XZ 10206970 f i tilegen_class_factories.obj
 0002:000b1a90       ?InsertBefore@?$CUtlVector@PAV?$ITilegenClassFactory@V?$ITilegenExpression@PBVCRoom@@@@@@V?$CUtlMemory@PAV?$ITilegenClassFactory@V?$ITilegenExpression@PBVCRoom@@@@@@H@@@@QAEHHABQAV?$ITilegenClassFactory@V?$ITilegenExpression@PBVCRoom@@@@@@@Z 10206a90 f i tilegen_class_factories.obj
 0002:000b1d10       ?Base@?$CUtlMemory@PAV?$ITilegenClassFactory@V?$ITilegenExpression@PBVCRoom@@@@@@H@@QAEPAPAV?$ITilegenClassFactory@V?$ITilegenExpression@PBVCRoom@@@@@@XZ 10206d10 f i tilegen_class_factories.obj
 0002:000b1e30       ?Count@?$CUtlVector@PAV?$ITilegenClassFactory@V?$ITilegenExpression@PBVCRoomCandidate@@@@@@V?$CUtlMemory@PAV?$ITilegenClassFactory@V?$ITilegenExpression@PBVCRoomCandidate@@@@@@H@@@@QBEHXZ 10206e30 f i tilegen_class_factories.obj
 0002:000b1e70       ?InsertBefore@?$CUtlVector@PAV?$ITilegenClassFactory@V?$ITilegenExpression@PBVCRoomCandidate@@@@@@V?$CUtlMemory@PAV?$ITilegenClassFactory@V?$ITilegenExpression@PBVCRoomCandidate@@@@@@H@@@@QAEHHABQAV?$ITilegenClassFactory@V?$ITilegenExpression@PBVCRoomCandidate@@@@@@@Z 10206e70 f i tilegen_class_factories.obj
 0002:000b20f0       ?Base@?$CUtlMemory@PAV?$ITilegenClassFactory@V?$ITilegenExpression@PBVCRoomCandidate@@@@@@H@@QAEPAPAV?$ITilegenClassFactory@V?$ITilegenExpression@PBVCRoomCandidate@@@@@@XZ 102070f0 f i tilegen_class_factories.obj
 0002:000b2210       ?Count@?$CUtlVector@PAV?$ITilegenClassFactory@V?$ITilegenExpression@PBVCTilegenState@@@@@@V?$CUtlMemory@PAV?$ITilegenClassFactory@V?$ITilegenExpression@PBVCTilegenState@@@@@@H@@@@QBEHXZ 10207210 f i tilegen_class_factories.obj
 0002:000b2250       ?InsertBefore@?$CUtlVector@PAV?$ITilegenClassFactory@V?$ITilegenExpression@PBVCTilegenState@@@@@@V?$CUtlMemory@PAV?$ITilegenClassFactory@V?$ITilegenExpression@PBVCTilegenState@@@@@@H@@@@QAEHHABQAV?$ITilegenClassFactory@V?$ITilegenExpression@PBVCTilegenState@@@@@@@Z 10207250 f i tilegen_class_factories.obj
 0002:000b24d0       ?Base@?$CUtlMemory@PAV?$ITilegenClassFactory@V?$ITilegenExpression@PBVCTilegenState@@@@@@H@@QAEPAPAV?$ITilegenClassFactory@V?$ITilegenExpression@PBVCTilegenState@@@@@@XZ 102074d0 f i tilegen_class_factories.obj
 0002:000b25f0       ??A?$CUtlVector@PAV?$ITilegenClassFactory@VITilegenAction@@@@V?$CUtlMemory@PAV?$ITilegenClassFactory@VITilegenAction@@@@H@@@@QAEAAPAV?$ITilegenClassFactory@VITilegenAction@@@@H@Z 102075f0 f i tilegen_class_factories.obj
 0002:000b2720       ?Count@?$CUtlVector@PAV?$ITilegenClassFactory@VITilegenAction@@@@V?$CUtlMemory@PAV?$ITilegenClassFactory@VITilegenAction@@@@H@@@@QBEHXZ 10207720 f i tilegen_class_factories.obj
 0002:000b2760       ?InsertBefore@?$CUtlVector@PAV?$ITilegenClassFactory@VITilegenAction@@@@V?$CUtlMemory@PAV?$ITilegenClassFactory@VITilegenAction@@@@H@@@@QAEHHABQAV?$ITilegenClassFactory@VITilegenAction@@@@@Z 10207760 f i tilegen_class_factories.obj
 0002:000b29e0       ?Base@?$CUtlMemory@PAV?$ITilegenClassFactory@VITilegenAction@@@@H@@QAEPAPAV?$ITilegenClassFactory@VITilegenAction@@@@XZ 102079e0 f i tilegen_class_factories.obj
 0002:000b2b00       ?Count@?$CUtlVector@PAV?$ITilegenClassFactory@V?$ITilegenRange@PBVCExit@@@@@@V?$CUtlMemory@PAV?$ITilegenClassFactory@V?$ITilegenRange@PBVCExit@@@@@@H@@@@QBEHXZ 10207b00 f i tilegen_class_factories.obj
 0002:000b2b40       ?InsertBefore@?$CUtlVector@PAV?$ITilegenClassFactory@V?$ITilegenRange@PBVCExit@@@@@@V?$CUtlMemory@PAV?$ITilegenClassFactory@V?$ITilegenRange@PBVCExit@@@@@@H@@@@QAEHHABQAV?$ITilegenClassFactory@V?$ITilegenRange@PBVCExit@@@@@@@Z 10207b40 f i tilegen_class_factories.obj
 0002:000b2dc0       ?Base@?$CUtlMemory@PAV?$ITilegenClassFactory@V?$ITilegenRange@PBVCExit@@@@@@H@@QAEPAPAV?$ITilegenClassFactory@V?$ITilegenRange@PBVCExit@@@@@@XZ 10207dc0 f i tilegen_class_factories.obj
 0002:000b2ee0       ?Element@?$CUtlVector@PAV?$ITilegenClassFactory@V?$ITilegenExpression@_N@@@@V?$CUtlMemory@PAV?$ITilegenClassFactory@V?$ITilegenExpression@_N@@@@H@@@@QAEAAPAV?$ITilegenClassFactory@V?$ITilegenExpression@_N@@@@H@Z 10207ee0 f i tilegen_class_factories.obj
 0002:000b3010       ?IsValidIndex@?$CUtlVector@PAV?$ITilegenClassFactory@V?$ITilegenExpression@_N@@@@V?$CUtlMemory@PAV?$ITilegenClassFactory@V?$ITilegenExpression@_N@@@@H@@@@QBE_NH@Z 10208010 f i tilegen_class_factories.obj
 0002:000b3080       ?GrowVector@?$CUtlVector@PAV?$ITilegenClassFactory@V?$ITilegenExpression@_N@@@@V?$CUtlMemory@PAV?$ITilegenClassFactory@V?$ITilegenExpression@_N@@@@H@@@@IAEXH@Z 10208080 f i tilegen_class_factories.obj
 0002:000b31a0       ?ResetDbgInfo@?$CUtlVector@PAV?$ITilegenClassFactory@V?$ITilegenExpression@_N@@@@V?$CUtlMemory@PAV?$ITilegenClassFactory@V?$ITilegenExpression@_N@@@@H@@@@IAEXXZ 102081a0 f i tilegen_class_factories.obj
 0002:000b3200       ?ShiftElementsRight@?$CUtlVector@PAV?$ITilegenClassFactory@V?$ITilegenExpression@_N@@@@V?$CUtlMemory@PAV?$ITilegenClassFactory@V?$ITilegenExpression@_N@@@@H@@@@IAEXHH@Z 10208200 f i tilegen_class_factories.obj
 0002:000b33a0       ??$CopyConstruct@PAV?$ITilegenClassFactory@V?$ITilegenExpression@_N@@@@@@YAPAPAV?$ITilegenClassFactory@V?$ITilegenExpression@_N@@@@PAPAV0@ABQAV0@@Z 102083a0 f i tilegen_class_factories.obj
 0002:000b3440       ?Element@?$CUtlVector@PAV?$ITilegenClassFactory@V?$ITilegenExpression@H@@@@V?$CUtlMemory@PAV?$ITilegenClassFactory@V?$ITilegenExpression@H@@@@H@@@@QAEAAPAV?$ITilegenClassFactory@V?$ITilegenExpression@H@@@@H@Z 10208440 f i tilegen_class_factories.obj
 0002:000b3570       ?IsValidIndex@?$CUtlVector@PAV?$ITilegenClassFactory@V?$ITilegenExpression@H@@@@V?$CUtlMemory@PAV?$ITilegenClassFactory@V?$ITilegenExpression@H@@@@H@@@@QBE_NH@Z 10208570 f i tilegen_class_factories.obj
 0002:000b35e0       ?GrowVector@?$CUtlVector@PAV?$ITilegenClassFactory@V?$ITilegenExpression@H@@@@V?$CUtlMemory@PAV?$ITilegenClassFactory@V?$ITilegenExpression@H@@@@H@@@@IAEXH@Z 102085e0 f i tilegen_class_factories.obj
 0002:000b3700       ?ResetDbgInfo@?$CUtlVector@PAV?$ITilegenClassFactory@V?$ITilegenExpression@H@@@@V?$CUtlMemory@PAV?$ITilegenClassFactory@V?$ITilegenExpression@H@@@@H@@@@IAEXXZ 10208700 f i tilegen_class_factories.obj
 0002:000b3760       ?ShiftElementsRight@?$CUtlVector@PAV?$ITilegenClassFactory@V?$ITilegenExpression@H@@@@V?$CUtlMemory@PAV?$ITilegenClassFactory@V?$ITilegenExpression@H@@@@H@@@@IAEXHH@Z 10208760 f i tilegen_class_factories.obj
 0002:000b3900       ??$CopyConstruct@PAV?$ITilegenClassFactory@V?$ITilegenExpression@H@@@@@@YAPAPAV?$ITilegenClassFactory@V?$ITilegenExpression@H@@@@PAPAV0@ABQAV0@@Z 10208900 f i tilegen_class_factories.obj
 0002:000b39a0       ?Element@?$CUtlVector@PAV?$ITilegenClassFactory@V?$ITilegenExpression@M@@@@V?$CUtlMemory@PAV?$ITilegenClassFactory@V?$ITilegenExpression@M@@@@H@@@@QAEAAPAV?$ITilegenClassFactory@V?$ITilegenExpression@M@@@@H@Z 102089a0 f i tilegen_class_factories.obj
 0002:000b3ad0       ?IsValidIndex@?$CUtlVector@PAV?$ITilegenClassFactory@V?$ITilegenExpression@M@@@@V?$CUtlMemory@PAV?$ITilegenClassFactory@V?$ITilegenExpression@M@@@@H@@@@QBE_NH@Z 10208ad0 f i tilegen_class_factories.obj
 0002:000b3b40       ?GrowVector@?$CUtlVector@PAV?$ITilegenClassFactory@V?$ITilegenExpression@M@@@@V?$CUtlMemory@PAV?$ITilegenClassFactory@V?$ITilegenExpression@M@@@@H@@@@IAEXH@Z 10208b40 f i tilegen_class_factories.obj
 0002:000b3c60       ?ResetDbgInfo@?$CUtlVector@PAV?$ITilegenClassFactory@V?$ITilegenExpression@M@@@@V?$CUtlMemory@PAV?$ITilegenClassFactory@V?$ITilegenExpression@M@@@@H@@@@IAEXXZ 10208c60 f i tilegen_class_factories.obj
 0002:000b3cc0       ?ShiftElementsRight@?$CUtlVector@PAV?$ITilegenClassFactory@V?$ITilegenExpression@M@@@@V?$CUtlMemory@PAV?$ITilegenClassFactory@V?$ITilegenExpression@M@@@@H@@@@IAEXHH@Z 10208cc0 f i tilegen_class_factories.obj
 0002:000b3e60       ??A?$CUtlMemory@PAV?$ITilegenClassFactory@V?$ITilegenExpression@M@@@@H@@QAEAAPAV?$ITilegenClassFactory@V?$ITilegenExpression@M@@@@H@Z 10208e60 f i tilegen_class_factories.obj
 0002:000b4060       ?IsReadOnly@?$CUtlMemory@PAV?$ITilegenClassFactory@V?$ITilegenExpression@M@@@@H@@QBE_NXZ 10209060 f i tilegen_class_factories.obj
 0002:000b40b0       ??$CopyConstruct@PAV?$ITilegenClassFactory@V?$ITilegenExpression@M@@@@@@YAPAPAV?$ITilegenClassFactory@V?$ITilegenExpression@M@@@@PAPAV0@ABQAV0@@Z 102090b0 f i tilegen_class_factories.obj
 0002:000b4150       ?Element@?$CUtlVector@PAV?$ITilegenClassFactory@V?$ITilegenExpression@PBD@@@@V?$CUtlMemory@PAV?$ITilegenClassFactory@V?$ITilegenExpression@PBD@@@@H@@@@QAEAAPAV?$ITilegenClassFactory@V?$ITilegenExpression@PBD@@@@H@Z 10209150 f i tilegen_class_factories.obj
 0002:000b4280       ?IsValidIndex@?$CUtlVector@PAV?$ITilegenClassFactory@V?$ITilegenExpression@PBD@@@@V?$CUtlMemory@PAV?$ITilegenClassFactory@V?$ITilegenExpression@PBD@@@@H@@@@QBE_NH@Z 10209280 f i tilegen_class_factories.obj
 0002:000b42f0       ?GrowVector@?$CUtlVector@PAV?$ITilegenClassFactory@V?$ITilegenExpression@PBD@@@@V?$CUtlMemory@PAV?$ITilegenClassFactory@V?$ITilegenExpression@PBD@@@@H@@@@IAEXH@Z 102092f0 f i tilegen_class_factories.obj
 0002:000b4410       ?ResetDbgInfo@?$CUtlVector@PAV?$ITilegenClassFactory@V?$ITilegenExpression@PBD@@@@V?$CUtlMemory@PAV?$ITilegenClassFactory@V?$ITilegenExpression@PBD@@@@H@@@@IAEXXZ 10209410 f i tilegen_class_factories.obj
 0002:000b4470       ?ShiftElementsRight@?$CUtlVector@PAV?$ITilegenClassFactory@V?$ITilegenExpression@PBD@@@@V?$CUtlMemory@PAV?$ITilegenClassFactory@V?$ITilegenExpression@PBD@@@@H@@@@IAEXHH@Z 10209470 f i tilegen_class_factories.obj
 0002:000b4610       ??$CopyConstruct@PAV?$ITilegenClassFactory@V?$ITilegenExpression@PBD@@@@@@YAPAPAV?$ITilegenClassFactory@V?$ITilegenExpression@PBD@@@@PAPAV0@ABQAV0@@Z 10209610 f i tilegen_class_factories.obj
 0002:000b46b0       ?Element@?$CUtlVector@PAV?$ITilegenClassFactory@V?$ITilegenExpression@PBVCExit@@@@@@V?$CUtlMemory@PAV?$ITilegenClassFactory@V?$ITilegenExpression@PBVCExit@@@@@@H@@@@QAEAAPAV?$ITilegenClassFactory@V?$ITilegenExpression@PBVCExit@@@@@@H@Z 102096b0 f i tilegen_class_factories.obj
 0002:000b47e0       ?IsValidIndex@?$CUtlVector@PAV?$ITilegenClassFactory@V?$ITilegenExpression@PBVCExit@@@@@@V?$CUtlMemory@PAV?$ITilegenClassFactory@V?$ITilegenExpression@PBVCExit@@@@@@H@@@@QBE_NH@Z 102097e0 f i tilegen_class_factories.obj
 0002:000b4850       ?GrowVector@?$CUtlVector@PAV?$ITilegenClassFactory@V?$ITilegenExpression@PBVCExit@@@@@@V?$CUtlMemory@PAV?$ITilegenClassFactory@V?$ITilegenExpression@PBVCExit@@@@@@H@@@@IAEXH@Z 10209850 f i tilegen_class_factories.obj
 0002:000b4970       ?ResetDbgInfo@?$CUtlVector@PAV?$ITilegenClassFactory@V?$ITilegenExpression@PBVCExit@@@@@@V?$CUtlMemory@PAV?$ITilegenClassFactory@V?$ITilegenExpression@PBVCExit@@@@@@H@@@@IAEXXZ 10209970 f i tilegen_class_factories.obj
 0002:000b49d0       ?ShiftElementsRight@?$CUtlVector@PAV?$ITilegenClassFactory@V?$ITilegenExpression@PBVCExit@@@@@@V?$CUtlMemory@PAV?$ITilegenClassFactory@V?$ITilegenExpression@PBVCExit@@@@@@H@@@@IAEXHH@Z 102099d0 f i tilegen_class_factories.obj
 0002:000b4b70       ??$CopyConstruct@PAV?$ITilegenClassFactory@V?$ITilegenExpression@PBVCExit@@@@@@@@YAPAPAV?$ITilegenClassFactory@V?$ITilegenExpression@PBVCExit@@@@@@PAPAV0@ABQAV0@@Z 10209b70 f i tilegen_class_factories.obj
 0002:000b4c10       ?IsReadOnly@?$CUtlMemory@PAV?$ITilegenClassFactory@V?$ITilegenExpression@PBVCExit@@@@@@H@@QBE_NXZ 10209c10 f i tilegen_class_factories.obj
 0002:000b4c60       ?Element@?$CUtlVector@PAV?$ITilegenClassFactory@V?$ITilegenExpression@PBVCRoomTemplate@@@@@@V?$CUtlMemory@PAV?$ITilegenClassFactory@V?$ITilegenExpression@PBVCRoomTemplate@@@@@@H@@@@QAEAAPAV?$ITilegenClassFactory@V?$ITilegenExpression@PBVCRoomTemplate@@@@@@H@Z 10209c60 f i tilegen_class_factories.obj
 0002:000b4d90       ?IsValidIndex@?$CUtlVector@PAV?$ITilegenClassFactory@V?$ITilegenExpression@PBVCRoomTemplate@@@@@@V?$CUtlMemory@PAV?$ITilegenClassFactory@V?$ITilegenExpression@PBVCRoomTemplate@@@@@@H@@@@QBE_NH@Z 10209d90 f i tilegen_class_factories.obj
 0002:000b4e00       ?GrowVector@?$CUtlVector@PAV?$ITilegenClassFactory@V?$ITilegenExpression@PBVCRoomTemplate@@@@@@V?$CUtlMemory@PAV?$ITilegenClassFactory@V?$ITilegenExpression@PBVCRoomTemplate@@@@@@H@@@@IAEXH@Z 10209e00 f i tilegen_class_factories.obj
 0002:000b4f20       ?ResetDbgInfo@?$CUtlVector@PAV?$ITilegenClassFactory@V?$ITilegenExpression@PBVCRoomTemplate@@@@@@V?$CUtlMemory@PAV?$ITilegenClassFactory@V?$ITilegenExpression@PBVCRoomTemplate@@@@@@H@@@@IAEXXZ 10209f20 f i tilegen_class_factories.obj
 0002:000b4f80       ?ShiftElementsRight@?$CUtlVector@PAV?$ITilegenClassFactory@V?$ITilegenExpression@PBVCRoomTemplate@@@@@@V?$CUtlMemory@PAV?$ITilegenClassFactory@V?$ITilegenExpression@PBVCRoomTemplate@@@@@@H@@@@IAEXHH@Z 10209f80 f i tilegen_class_factories.obj
 0002:000b5120       ??$CopyConstruct@PAV?$ITilegenClassFactory@V?$ITilegenExpression@PBVCRoomTemplate@@@@@@@@YAPAPAV?$ITilegenClassFactory@V?$ITilegenExpression@PBVCRoomTemplate@@@@@@PAPAV0@ABQAV0@@Z 1020a120 f i tilegen_class_factories.obj
 0002:000b51c0       ?IsReadOnly@?$CUtlMemory@PAV?$ITilegenClassFactory@V?$ITilegenExpression@PBVCRoomTemplate@@@@@@H@@QBE_NXZ 1020a1c0 f i tilegen_class_factories.obj
 0002:000b5210       ?Element@?$CUtlVector@PAV?$ITilegenClassFactory@V?$ITilegenExpression@PBVCRoom@@@@@@V?$CUtlMemory@PAV?$ITilegenClassFactory@V?$ITilegenExpression@PBVCRoom@@@@@@H@@@@QAEAAPAV?$ITilegenClassFactory@V?$ITilegenExpression@PBVCRoom@@@@@@H@Z 1020a210 f i tilegen_class_factories.obj
 0002:000b5340       ?IsValidIndex@?$CUtlVector@PAV?$ITilegenClassFactory@V?$ITilegenExpression@PBVCRoom@@@@@@V?$CUtlMemory@PAV?$ITilegenClassFactory@V?$ITilegenExpression@PBVCRoom@@@@@@H@@@@QBE_NH@Z 1020a340 f i tilegen_class_factories.obj
 0002:000b53b0       ?GrowVector@?$CUtlVector@PAV?$ITilegenClassFactory@V?$ITilegenExpression@PBVCRoom@@@@@@V?$CUtlMemory@PAV?$ITilegenClassFactory@V?$ITilegenExpression@PBVCRoom@@@@@@H@@@@IAEXH@Z 1020a3b0 f i tilegen_class_factories.obj
 0002:000b54d0       ?ResetDbgInfo@?$CUtlVector@PAV?$ITilegenClassFactory@V?$ITilegenExpression@PBVCRoom@@@@@@V?$CUtlMemory@PAV?$ITilegenClassFactory@V?$ITilegenExpression@PBVCRoom@@@@@@H@@@@IAEXXZ 1020a4d0 f i tilegen_class_factories.obj
 0002:000b5530       ?ShiftElementsRight@?$CUtlVector@PAV?$ITilegenClassFactory@V?$ITilegenExpression@PBVCRoom@@@@@@V?$CUtlMemory@PAV?$ITilegenClassFactory@V?$ITilegenExpression@PBVCRoom@@@@@@H@@@@IAEXHH@Z 1020a530 f i tilegen_class_factories.obj
 0002:000b56d0       ??$CopyConstruct@PAV?$ITilegenClassFactory@V?$ITilegenExpression@PBVCRoom@@@@@@@@YAPAPAV?$ITilegenClassFactory@V?$ITilegenExpression@PBVCRoom@@@@@@PAPAV0@ABQAV0@@Z 1020a6d0 f i tilegen_class_factories.obj
 0002:000b5770       ?Element@?$CUtlVector@PAV?$ITilegenClassFactory@V?$ITilegenExpression@PBVCRoomCandidate@@@@@@V?$CUtlMemory@PAV?$ITilegenClassFactory@V?$ITilegenExpression@PBVCRoomCandidate@@@@@@H@@@@QAEAAPAV?$ITilegenClassFactory@V?$ITilegenExpression@PBVCRoomCandidate@@@@@@H@Z 1020a770 f i tilegen_class_factories.obj
 0002:000b58a0       ?IsValidIndex@?$CUtlVector@PAV?$ITilegenClassFactory@V?$ITilegenExpression@PBVCRoomCandidate@@@@@@V?$CUtlMemory@PAV?$ITilegenClassFactory@V?$ITilegenExpression@PBVCRoomCandidate@@@@@@H@@@@QBE_NH@Z 1020a8a0 f i tilegen_class_factories.obj
 0002:000b5910       ?GrowVector@?$CUtlVector@PAV?$ITilegenClassFactory@V?$ITilegenExpression@PBVCRoomCandidate@@@@@@V?$CUtlMemory@PAV?$ITilegenClassFactory@V?$ITilegenExpression@PBVCRoomCandidate@@@@@@H@@@@IAEXH@Z 1020a910 f i tilegen_class_factories.obj
 0002:000b5a30       ?ResetDbgInfo@?$CUtlVector@PAV?$ITilegenClassFactory@V?$ITilegenExpression@PBVCRoomCandidate@@@@@@V?$CUtlMemory@PAV?$ITilegenClassFactory@V?$ITilegenExpression@PBVCRoomCandidate@@@@@@H@@@@IAEXXZ 1020aa30 f i tilegen_class_factories.obj
 0002:000b5a90       ?ShiftElementsRight@?$CUtlVector@PAV?$ITilegenClassFactory@V?$ITilegenExpression@PBVCRoomCandidate@@@@@@V?$CUtlMemory@PAV?$ITilegenClassFactory@V?$ITilegenExpression@PBVCRoomCandidate@@@@@@H@@@@IAEXHH@Z 1020aa90 f i tilegen_class_factories.obj
 0002:000b5c30       ??$CopyConstruct@PAV?$ITilegenClassFactory@V?$ITilegenExpression@PBVCRoomCandidate@@@@@@@@YAPAPAV?$ITilegenClassFactory@V?$ITilegenExpression@PBVCRoomCandidate@@@@@@PAPAV0@ABQAV0@@Z 1020ac30 f i tilegen_class_factories.obj
 0002:000b5cd0       ?IsReadOnly@?$CUtlMemory@PAV?$ITilegenClassFactory@V?$ITilegenExpression@PBVCRoomCandidate@@@@@@H@@QBE_NXZ 1020acd0 f i tilegen_class_factories.obj
 0002:000b5d20       ?Element@?$CUtlVector@PAV?$ITilegenClassFactory@V?$ITilegenExpression@PBVCTilegenState@@@@@@V?$CUtlMemory@PAV?$ITilegenClassFactory@V?$ITilegenExpression@PBVCTilegenState@@@@@@H@@@@QAEAAPAV?$ITilegenClassFactory@V?$ITilegenExpression@PBVCTilegenState@@@@@@H@Z 1020ad20 f i tilegen_class_factories.obj
 0002:000b5e50       ?IsValidIndex@?$CUtlVector@PAV?$ITilegenClassFactory@V?$ITilegenExpression@PBVCTilegenState@@@@@@V?$CUtlMemory@PAV?$ITilegenClassFactory@V?$ITilegenExpression@PBVCTilegenState@@@@@@H@@@@QBE_NH@Z 1020ae50 f i tilegen_class_factories.obj
 0002:000b5ec0       ?GrowVector@?$CUtlVector@PAV?$ITilegenClassFactory@V?$ITilegenExpression@PBVCTilegenState@@@@@@V?$CUtlMemory@PAV?$ITilegenClassFactory@V?$ITilegenExpression@PBVCTilegenState@@@@@@H@@@@IAEXH@Z 1020aec0 f i tilegen_class_factories.obj
 0002:000b5fe0       ?ResetDbgInfo@?$CUtlVector@PAV?$ITilegenClassFactory@V?$ITilegenExpression@PBVCTilegenState@@@@@@V?$CUtlMemory@PAV?$ITilegenClassFactory@V?$ITilegenExpression@PBVCTilegenState@@@@@@H@@@@IAEXXZ 1020afe0 f i tilegen_class_factories.obj
 0002:000b6040       ?ShiftElementsRight@?$CUtlVector@PAV?$ITilegenClassFactory@V?$ITilegenExpression@PBVCTilegenState@@@@@@V?$CUtlMemory@PAV?$ITilegenClassFactory@V?$ITilegenExpression@PBVCTilegenState@@@@@@H@@@@IAEXHH@Z 1020b040 f i tilegen_class_factories.obj
 0002:000b61e0       ??$CopyConstruct@PAV?$ITilegenClassFactory@V?$ITilegenExpression@PBVCTilegenState@@@@@@@@YAPAPAV?$ITilegenClassFactory@V?$ITilegenExpression@PBVCTilegenState@@@@@@PAPAV0@ABQAV0@@Z 1020b1e0 f i tilegen_class_factories.obj
 0002:000b6280       ?IsReadOnly@?$CUtlMemory@PAV?$ITilegenClassFactory@V?$ITilegenExpression@PBVCTilegenState@@@@@@H@@QBE_NXZ 1020b280 f i tilegen_class_factories.obj
 0002:000b62d0       ?Element@?$CUtlVector@PAV?$ITilegenClassFactory@VITilegenAction@@@@V?$CUtlMemory@PAV?$ITilegenClassFactory@VITilegenAction@@@@H@@@@QAEAAPAV?$ITilegenClassFactory@VITilegenAction@@@@H@Z 1020b2d0 f i tilegen_class_factories.obj
 0002:000b6400       ?IsValidIndex@?$CUtlVector@PAV?$ITilegenClassFactory@VITilegenAction@@@@V?$CUtlMemory@PAV?$ITilegenClassFactory@VITilegenAction@@@@H@@@@QBE_NH@Z 1020b400 f i tilegen_class_factories.obj
 0002:000b6470       ?GrowVector@?$CUtlVector@PAV?$ITilegenClassFactory@VITilegenAction@@@@V?$CUtlMemory@PAV?$ITilegenClassFactory@VITilegenAction@@@@H@@@@IAEXH@Z 1020b470 f i tilegen_class_factories.obj
 0002:000b6590       ?ResetDbgInfo@?$CUtlVector@PAV?$ITilegenClassFactory@VITilegenAction@@@@V?$CUtlMemory@PAV?$ITilegenClassFactory@VITilegenAction@@@@H@@@@IAEXXZ 1020b590 f i tilegen_class_factories.obj
 0002:000b65f0       ?ShiftElementsRight@?$CUtlVector@PAV?$ITilegenClassFactory@VITilegenAction@@@@V?$CUtlMemory@PAV?$ITilegenClassFactory@VITilegenAction@@@@H@@@@IAEXHH@Z 1020b5f0 f i tilegen_class_factories.obj
 0002:000b6790       ??A?$CUtlMemory@PAV?$ITilegenClassFactory@VITilegenAction@@@@H@@QAEAAPAV?$ITilegenClassFactory@VITilegenAction@@@@H@Z 1020b790 f i tilegen_class_factories.obj
 0002:000b6990       ?IsReadOnly@?$CUtlMemory@PAV?$ITilegenClassFactory@VITilegenAction@@@@H@@QBE_NXZ 1020b990 f i tilegen_class_factories.obj
 0002:000b69e0       ??$CopyConstruct@PAV?$ITilegenClassFactory@VITilegenAction@@@@@@YAPAPAV?$ITilegenClassFactory@VITilegenAction@@@@PAPAV0@ABQAV0@@Z 1020b9e0 f i tilegen_class_factories.obj
 0002:000b6a80       ?Element@?$CUtlVector@PAV?$ITilegenClassFactory@V?$ITilegenRange@PBVCExit@@@@@@V?$CUtlMemory@PAV?$ITilegenClassFactory@V?$ITilegenRange@PBVCExit@@@@@@H@@@@QAEAAPAV?$ITilegenClassFactory@V?$ITilegenRange@PBVCExit@@@@@@H@Z 1020ba80 f i tilegen_class_factories.obj
 0002:000b6bb0       ?IsValidIndex@?$CUtlVector@PAV?$ITilegenClassFactory@V?$ITilegenRange@PBVCExit@@@@@@V?$CUtlMemory@PAV?$ITilegenClassFactory@V?$ITilegenRange@PBVCExit@@@@@@H@@@@QBE_NH@Z 1020bbb0 f i tilegen_class_factories.obj
 0002:000b6c20       ?GrowVector@?$CUtlVector@PAV?$ITilegenClassFactory@V?$ITilegenRange@PBVCExit@@@@@@V?$CUtlMemory@PAV?$ITilegenClassFactory@V?$ITilegenRange@PBVCExit@@@@@@H@@@@IAEXH@Z 1020bc20 f i tilegen_class_factories.obj
 0002:000b6d40       ?ResetDbgInfo@?$CUtlVector@PAV?$ITilegenClassFactory@V?$ITilegenRange@PBVCExit@@@@@@V?$CUtlMemory@PAV?$ITilegenClassFactory@V?$ITilegenRange@PBVCExit@@@@@@H@@@@IAEXXZ 1020bd40 f i tilegen_class_factories.obj
 0002:000b6da0       ?ShiftElementsRight@?$CUtlVector@PAV?$ITilegenClassFactory@V?$ITilegenRange@PBVCExit@@@@@@V?$CUtlMemory@PAV?$ITilegenClassFactory@V?$ITilegenRange@PBVCExit@@@@@@H@@@@IAEXHH@Z 1020bda0 f i tilegen_class_factories.obj
 0002:000b6f40       ??$CopyConstruct@PAV?$ITilegenClassFactory@V?$ITilegenRange@PBVCExit@@@@@@@@YAPAPAV?$ITilegenClassFactory@V?$ITilegenRange@PBVCExit@@@@@@PAPAV0@ABQAV0@@Z 1020bf40 f i tilegen_class_factories.obj
 0002:000b6fe0       ?IsReadOnly@?$CUtlMemory@PAV?$ITilegenClassFactory@V?$ITilegenRange@PBVCExit@@@@@@H@@QBE_NXZ 1020bfe0 f i tilegen_class_factories.obj
 0002:000b7030       ?NumAllocated@?$CUtlMemory@PAV?$ITilegenClassFactory@V?$ITilegenExpression@_N@@@@H@@QBEHXZ 1020c030 f i tilegen_class_factories.obj
 0002:000b7070       ?Grow@?$CUtlMemory@PAV?$ITilegenClassFactory@V?$ITilegenExpression@_N@@@@H@@QAEXH@Z 1020c070 f i tilegen_class_factories.obj
 0002:000b76e0       ??$MemAllocClassName@V?$CUtlMemory@PAV?$ITilegenClassFactory@V?$ITilegenExpression@_N@@@@H@@@@YAPBDPAV?$CUtlMemory@PAV?$ITilegenClassFactory@V?$ITilegenExpression@_N@@@@H@@@Z 1020c6e0 f i tilegen_class_factories.obj
 0002:000b7760       ?IsExternallyAllocated@?$CUtlMemory@PAV?$ITilegenClassFactory@V?$ITilegenExpression@_N@@@@H@@QBE_NXZ 1020c760 f i tilegen_class_factories.obj
 0002:000b77b0       ??$MemAllocClassName@V?$CUtlVector@PAV?$ITilegenClassFactory@V?$ITilegenExpression@_N@@@@V?$CUtlMemory@PAV?$ITilegenClassFactory@V?$ITilegenExpression@_N@@@@H@@@@@@YAPBDPAV?$CUtlVector@PAV?$ITilegenClassFactory@V?$ITilegenExpression@_N@@@@V?$CUtlMemory@PAV?$ITilegenClassFactory@V?$ITilegenExpression@_N@@@@H@@@@@Z 1020c7b0 f i tilegen_class_factories.obj
 0002:000b7830       ?NumAllocated@?$CUtlMemory@PAV?$ITilegenClassFactory@V?$ITilegenExpression@H@@@@H@@QBEHXZ 1020c830 f i tilegen_class_factories.obj
 0002:000b7870       ?Grow@?$CUtlMemory@PAV?$ITilegenClassFactory@V?$ITilegenExpression@H@@@@H@@QAEXH@Z 1020c870 f i tilegen_class_factories.obj
 0002:000b7ee0       ??$MemAllocClassName@V?$CUtlMemory@PAV?$ITilegenClassFactory@V?$ITilegenExpression@H@@@@H@@@@YAPBDPAV?$CUtlMemory@PAV?$ITilegenClassFactory@V?$ITilegenExpression@H@@@@H@@@Z 1020cee0 f i tilegen_class_factories.obj
 0002:000b7f60       ?IsExternallyAllocated@?$CUtlMemory@PAV?$ITilegenClassFactory@V?$ITilegenExpression@H@@@@H@@QBE_NXZ 1020cf60 f i tilegen_class_factories.obj
 0002:000b7fb0       ??$MemAllocClassName@V?$CUtlVector@PAV?$ITilegenClassFactory@V?$ITilegenExpression@H@@@@V?$CUtlMemory@PAV?$ITilegenClassFactory@V?$ITilegenExpression@H@@@@H@@@@@@YAPBDPAV?$CUtlVector@PAV?$ITilegenClassFactory@V?$ITilegenExpression@H@@@@V?$CUtlMemory@PAV?$ITilegenClassFactory@V?$ITilegenExpression@H@@@@H@@@@@Z 1020cfb0 f i tilegen_class_factories.obj
 0002:000b8030       ?IsIdxValid@?$CUtlMemory@PAV?$ITilegenClassFactory@V?$ITilegenExpression@M@@@@H@@QBE_NH@Z 1020d030 f i tilegen_class_factories.obj
 0002:000b80b0       ?NumAllocated@?$CUtlMemory@PAV?$ITilegenClassFactory@V?$ITilegenExpression@M@@@@H@@QBEHXZ 1020d0b0 f i tilegen_class_factories.obj
 0002:000b80f0       ?Grow@?$CUtlMemory@PAV?$ITilegenClassFactory@V?$ITilegenExpression@M@@@@H@@QAEXH@Z 1020d0f0 f i tilegen_class_factories.obj
 0002:000b8760       ??$MemAllocClassName@V?$CUtlMemory@PAV?$ITilegenClassFactory@V?$ITilegenExpression@M@@@@H@@@@YAPBDPAV?$CUtlMemory@PAV?$ITilegenClassFactory@V?$ITilegenExpression@M@@@@H@@@Z 1020d760 f i tilegen_class_factories.obj
 0002:000b87e0       ?IsExternallyAllocated@?$CUtlMemory@PAV?$ITilegenClassFactory@V?$ITilegenExpression@M@@@@H@@QBE_NXZ 1020d7e0 f i tilegen_class_factories.obj
 0002:000b8830       ??$MemAllocClassName@V?$CUtlVector@PAV?$ITilegenClassFactory@V?$ITilegenExpression@M@@@@V?$CUtlMemory@PAV?$ITilegenClassFactory@V?$ITilegenExpression@M@@@@H@@@@@@YAPBDPAV?$CUtlVector@PAV?$ITilegenClassFactory@V?$ITilegenExpression@M@@@@V?$CUtlMemory@PAV?$ITilegenClassFactory@V?$ITilegenExpression@M@@@@H@@@@@Z 1020d830 f i tilegen_class_factories.obj
 0002:000b88b0       ?NumAllocated@?$CUtlMemory@PAV?$ITilegenClassFactory@V?$ITilegenExpression@PBD@@@@H@@QBEHXZ 1020d8b0 f i tilegen_class_factories.obj
 0002:000b88f0       ?Grow@?$CUtlMemory@PAV?$ITilegenClassFactory@V?$ITilegenExpression@PBD@@@@H@@QAEXH@Z 1020d8f0 f i tilegen_class_factories.obj
 0002:000b8f60       ??$MemAllocClassName@V?$CUtlMemory@PAV?$ITilegenClassFactory@V?$ITilegenExpression@PBD@@@@H@@@@YAPBDPAV?$CUtlMemory@PAV?$ITilegenClassFactory@V?$ITilegenExpression@PBD@@@@H@@@Z 1020df60 f i tilegen_class_factories.obj
 0002:000b8fe0       ?IsExternallyAllocated@?$CUtlMemory@PAV?$ITilegenClassFactory@V?$ITilegenExpression@PBD@@@@H@@QBE_NXZ 1020dfe0 f i tilegen_class_factories.obj
 0002:000b9030       ??$MemAllocClassName@V?$CUtlVector@PAV?$ITilegenClassFactory@V?$ITilegenExpression@PBD@@@@V?$CUtlMemory@PAV?$ITilegenClassFactory@V?$ITilegenExpression@PBD@@@@H@@@@@@YAPBDPAV?$CUtlVector@PAV?$ITilegenClassFactory@V?$ITilegenExpression@PBD@@@@V?$CUtlMemory@PAV?$ITilegenClassFactory@V?$ITilegenExpression@PBD@@@@H@@@@@Z 1020e030 f i tilegen_class_factories.obj
 0002:000b90b0       ??A?$CUtlMemory@PAV?$ITilegenClassFactory@V?$ITilegenExpression@PBVCExit@@@@@@H@@QAEAAPAV?$ITilegenClassFactory@V?$ITilegenExpression@PBVCExit@@@@@@H@Z 1020e0b0 f i tilegen_class_factories.obj
 0002:000b92b0       ?NumAllocated@?$CUtlMemory@PAV?$ITilegenClassFactory@V?$ITilegenExpression@PBVCExit@@@@@@H@@QBEHXZ 1020e2b0 f i tilegen_class_factories.obj
 0002:000b92f0       ?Grow@?$CUtlMemory@PAV?$ITilegenClassFactory@V?$ITilegenExpression@PBVCExit@@@@@@H@@QAEXH@Z 1020e2f0 f i tilegen_class_factories.obj
 0002:000b9960       ??$MemAllocClassName@V?$CUtlMemory@PAV?$ITilegenClassFactory@V?$ITilegenExpression@PBVCExit@@@@@@H@@@@YAPBDPAV?$CUtlMemory@PAV?$ITilegenClassFactory@V?$ITilegenExpression@PBVCExit@@@@@@H@@@Z 1020e960 f i tilegen_class_factories.obj
 0002:000b99e0       ?IsExternallyAllocated@?$CUtlMemory@PAV?$ITilegenClassFactory@V?$ITilegenExpression@PBVCExit@@@@@@H@@QBE_NXZ 1020e9e0 f i tilegen_class_factories.obj
 0002:000b9a30       ??$MemAllocClassName@V?$CUtlVector@PAV?$ITilegenClassFactory@V?$ITilegenExpression@PBVCExit@@@@@@V?$CUtlMemory@PAV?$ITilegenClassFactory@V?$ITilegenExpression@PBVCExit@@@@@@H@@@@@@YAPBDPAV?$CUtlVector@PAV?$ITilegenClassFactory@V?$ITilegenExpression@PBVCExit@@@@@@V?$CUtlMemory@PAV?$ITilegenClassFactory@V?$ITilegenExpression@PBVCExit@@@@@@H@@@@@Z 1020ea30 f i tilegen_class_factories.obj
 0002:000b9ab0       ??A?$CUtlMemory@PAV?$ITilegenClassFactory@V?$ITilegenExpression@PBVCRoomTemplate@@@@@@H@@QAEAAPAV?$ITilegenClassFactory@V?$ITilegenExpression@PBVCRoomTemplate@@@@@@H@Z 1020eab0 f i tilegen_class_factories.obj
 0002:000b9cb0       ?NumAllocated@?$CUtlMemory@PAV?$ITilegenClassFactory@V?$ITilegenExpression@PBVCRoomTemplate@@@@@@H@@QBEHXZ 1020ecb0 f i tilegen_class_factories.obj
 0002:000b9cf0       ?Grow@?$CUtlMemory@PAV?$ITilegenClassFactory@V?$ITilegenExpression@PBVCRoomTemplate@@@@@@H@@QAEXH@Z 1020ecf0 f i tilegen_class_factories.obj
 0002:000ba360       ??$MemAllocClassName@V?$CUtlMemory@PAV?$ITilegenClassFactory@V?$ITilegenExpression@PBVCRoomTemplate@@@@@@H@@@@YAPBDPAV?$CUtlMemory@PAV?$ITilegenClassFactory@V?$ITilegenExpression@PBVCRoomTemplate@@@@@@H@@@Z 1020f360 f i tilegen_class_factories.obj
 0002:000ba3e0       ?IsExternallyAllocated@?$CUtlMemory@PAV?$ITilegenClassFactory@V?$ITilegenExpression@PBVCRoomTemplate@@@@@@H@@QBE_NXZ 1020f3e0 f i tilegen_class_factories.obj
 0002:000ba430       ??$MemAllocClassName@V?$CUtlVector@PAV?$ITilegenClassFactory@V?$ITilegenExpression@PBVCRoomTemplate@@@@@@V?$CUtlMemory@PAV?$ITilegenClassFactory@V?$ITilegenExpression@PBVCRoomTemplate@@@@@@H@@@@@@YAPBDPAV?$CUtlVector@PAV?$ITilegenClassFactory@V?$ITilegenExpression@PBVCRoomTemplate@@@@@@V?$CUtlMemory@PAV?$ITilegenClassFactory@V?$ITilegenExpression@PBVCRoomTemplate@@@@@@H@@@@@Z 1020f430 f i tilegen_class_factories.obj
 0002:000ba4b0       ?NumAllocated@?$CUtlMemory@PAV?$ITilegenClassFactory@V?$ITilegenExpression@PBVCRoom@@@@@@H@@QBEHXZ 1020f4b0 f i tilegen_class_factories.obj
 0002:000ba4f0       ?Grow@?$CUtlMemory@PAV?$ITilegenClassFactory@V?$ITilegenExpression@PBVCRoom@@@@@@H@@QAEXH@Z 1020f4f0 f i tilegen_class_factories.obj
 0002:000bab60       ??$MemAllocClassName@V?$CUtlMemory@PAV?$ITilegenClassFactory@V?$ITilegenExpression@PBVCRoom@@@@@@H@@@@YAPBDPAV?$CUtlMemory@PAV?$ITilegenClassFactory@V?$ITilegenExpression@PBVCRoom@@@@@@H@@@Z 1020fb60 f i tilegen_class_factories.obj
 0002:000babe0       ?IsExternallyAllocated@?$CUtlMemory@PAV?$ITilegenClassFactory@V?$ITilegenExpression@PBVCRoom@@@@@@H@@QBE_NXZ 1020fbe0 f i tilegen_class_factories.obj
 0002:000bac30       ??$MemAllocClassName@V?$CUtlVector@PAV?$ITilegenClassFactory@V?$ITilegenExpression@PBVCRoom@@@@@@V?$CUtlMemory@PAV?$ITilegenClassFactory@V?$ITilegenExpression@PBVCRoom@@@@@@H@@@@@@YAPBDPAV?$CUtlVector@PAV?$ITilegenClassFactory@V?$ITilegenExpression@PBVCRoom@@@@@@V?$CUtlMemory@PAV?$ITilegenClassFactory@V?$ITilegenExpression@PBVCRoom@@@@@@H@@@@@Z 1020fc30 f i tilegen_class_factories.obj
 0002:000bacb0       ??A?$CUtlMemory@PAV?$ITilegenClassFactory@V?$ITilegenExpression@PBVCRoomCandidate@@@@@@H@@QAEAAPAV?$ITilegenClassFactory@V?$ITilegenExpression@PBVCRoomCandidate@@@@@@H@Z 1020fcb0 f i tilegen_class_factories.obj
 0002:000baeb0       ?NumAllocated@?$CUtlMemory@PAV?$ITilegenClassFactory@V?$ITilegenExpression@PBVCRoomCandidate@@@@@@H@@QBEHXZ 1020feb0 f i tilegen_class_factories.obj
 0002:000baef0       ?Grow@?$CUtlMemory@PAV?$ITilegenClassFactory@V?$ITilegenExpression@PBVCRoomCandidate@@@@@@H@@QAEXH@Z 1020fef0 f i tilegen_class_factories.obj
 0002:000bb560       ??$MemAllocClassName@V?$CUtlMemory@PAV?$ITilegenClassFactory@V?$ITilegenExpression@PBVCRoomCandidate@@@@@@H@@@@YAPBDPAV?$CUtlMemory@PAV?$ITilegenClassFactory@V?$ITilegenExpression@PBVCRoomCandidate@@@@@@H@@@Z 10210560 f i tilegen_class_factories.obj
 0002:000bb5e0       ?IsExternallyAllocated@?$CUtlMemory@PAV?$ITilegenClassFactory@V?$ITilegenExpression@PBVCRoomCandidate@@@@@@H@@QBE_NXZ 102105e0 f i tilegen_class_factories.obj
 0002:000bb630       ??$MemAllocClassName@V?$CUtlVector@PAV?$ITilegenClassFactory@V?$ITilegenExpression@PBVCRoomCandidate@@@@@@V?$CUtlMemory@PAV?$ITilegenClassFactory@V?$ITilegenExpression@PBVCRoomCandidate@@@@@@H@@@@@@YAPBDPAV?$CUtlVector@PAV?$ITilegenClassFactory@V?$ITilegenExpression@PBVCRoomCandidate@@@@@@V?$CUtlMemory@PAV?$ITilegenClassFactory@V?$ITilegenExpression@PBVCRoomCandidate@@@@@@H@@@@@Z 10210630 f i tilegen_class_factories.obj
 0002:000bb6b0       ??A?$CUtlMemory@PAV?$ITilegenClassFactory@V?$ITilegenExpression@PBVCTilegenState@@@@@@H@@QAEAAPAV?$ITilegenClassFactory@V?$ITilegenExpression@PBVCTilegenState@@@@@@H@Z 102106b0 f i tilegen_class_factories.obj
 0002:000bb8b0       ?NumAllocated@?$CUtlMemory@PAV?$ITilegenClassFactory@V?$ITilegenExpression@PBVCTilegenState@@@@@@H@@QBEHXZ 102108b0 f i tilegen_class_factories.obj
 0002:000bb8f0       ?Grow@?$CUtlMemory@PAV?$ITilegenClassFactory@V?$ITilegenExpression@PBVCTilegenState@@@@@@H@@QAEXH@Z 102108f0 f i tilegen_class_factories.obj
 0002:000bbf60       ??$MemAllocClassName@V?$CUtlMemory@PAV?$ITilegenClassFactory@V?$ITilegenExpression@PBVCTilegenState@@@@@@H@@@@YAPBDPAV?$CUtlMemory@PAV?$ITilegenClassFactory@V?$ITilegenExpression@PBVCTilegenState@@@@@@H@@@Z 10210f60 f i tilegen_class_factories.obj
 0002:000bbfe0       ?IsExternallyAllocated@?$CUtlMemory@PAV?$ITilegenClassFactory@V?$ITilegenExpression@PBVCTilegenState@@@@@@H@@QBE_NXZ 10210fe0 f i tilegen_class_factories.obj
 0002:000bc030       ??$MemAllocClassName@V?$CUtlVector@PAV?$ITilegenClassFactory@V?$ITilegenExpression@PBVCTilegenState@@@@@@V?$CUtlMemory@PAV?$ITilegenClassFactory@V?$ITilegenExpression@PBVCTilegenState@@@@@@H@@@@@@YAPBDPAV?$CUtlVector@PAV?$ITilegenClassFactory@V?$ITilegenExpression@PBVCTilegenState@@@@@@V?$CUtlMemory@PAV?$ITilegenClassFactory@V?$ITilegenExpression@PBVCTilegenState@@@@@@H@@@@@Z 10211030 f i tilegen_class_factories.obj
 0002:000bc0b0       ?IsIdxValid@?$CUtlMemory@PAV?$ITilegenClassFactory@VITilegenAction@@@@H@@QBE_NH@Z 102110b0 f i tilegen_class_factories.obj
 0002:000bc130       ?NumAllocated@?$CUtlMemory@PAV?$ITilegenClassFactory@VITilegenAction@@@@H@@QBEHXZ 10211130 f i tilegen_class_factories.obj
 0002:000bc170       ?Grow@?$CUtlMemory@PAV?$ITilegenClassFactory@VITilegenAction@@@@H@@QAEXH@Z 10211170 f i tilegen_class_factories.obj
 0002:000bc7e0       ??$MemAllocClassName@V?$CUtlMemory@PAV?$ITilegenClassFactory@VITilegenAction@@@@H@@@@YAPBDPAV?$CUtlMemory@PAV?$ITilegenClassFactory@VITilegenAction@@@@H@@@Z 102117e0 f i tilegen_class_factories.obj
 0002:000bc860       ?IsExternallyAllocated@?$CUtlMemory@PAV?$ITilegenClassFactory@VITilegenAction@@@@H@@QBE_NXZ 10211860 f i tilegen_class_factories.obj
 0002:000bc8b0       ??$MemAllocClassName@V?$CUtlVector@PAV?$ITilegenClassFactory@VITilegenAction@@@@V?$CUtlMemory@PAV?$ITilegenClassFactory@VITilegenAction@@@@H@@@@@@YAPBDPAV?$CUtlVector@PAV?$ITilegenClassFactory@VITilegenAction@@@@V?$CUtlMemory@PAV?$ITilegenClassFactory@VITilegenAction@@@@H@@@@@Z 102118b0 f i tilegen_class_factories.obj
 0002:000bc930       ??A?$CUtlMemory@PAV?$ITilegenClassFactory@V?$ITilegenRange@PBVCExit@@@@@@H@@QAEAAPAV?$ITilegenClassFactory@V?$ITilegenRange@PBVCExit@@@@@@H@Z 10211930 f i tilegen_class_factories.obj
 0002:000bcb30       ?NumAllocated@?$CUtlMemory@PAV?$ITilegenClassFactory@V?$ITilegenRange@PBVCExit@@@@@@H@@QBEHXZ 10211b30 f i tilegen_class_factories.obj
 0002:000bcb70       ?Grow@?$CUtlMemory@PAV?$ITilegenClassFactory@V?$ITilegenRange@PBVCExit@@@@@@H@@QAEXH@Z 10211b70 f i tilegen_class_factories.obj
 0002:000bd1e0       ??$MemAllocClassName@V?$CUtlMemory@PAV?$ITilegenClassFactory@V?$ITilegenRange@PBVCExit@@@@@@H@@@@YAPBDPAV?$CUtlMemory@PAV?$ITilegenClassFactory@V?$ITilegenRange@PBVCExit@@@@@@H@@@Z 102121e0 f i tilegen_class_factories.obj
 0002:000bd260       ?IsExternallyAllocated@?$CUtlMemory@PAV?$ITilegenClassFactory@V?$ITilegenRange@PBVCExit@@@@@@H@@QBE_NXZ 10212260 f i tilegen_class_factories.obj
 0002:000bd2b0       ??$MemAllocClassName@V?$CUtlVector@PAV?$ITilegenClassFactory@V?$ITilegenRange@PBVCExit@@@@@@V?$CUtlMemory@PAV?$ITilegenClassFactory@V?$ITilegenRange@PBVCExit@@@@@@H@@@@@@YAPBDPAV?$CUtlVector@PAV?$ITilegenClassFactory@V?$ITilegenRange@PBVCExit@@@@@@V?$CUtlMemory@PAV?$ITilegenClassFactory@V?$ITilegenRange@PBVCExit@@@@@@H@@@@@Z 102122b0 f i tilegen_class_factories.obj
 0002:000bd330       ?IsIdxValid@?$CUtlMemory@PAV?$ITilegenClassFactory@V?$ITilegenExpression@PBVCExit@@@@@@H@@QBE_NH@Z 10212330 f i tilegen_class_factories.obj
 0002:000bd3b0       ?IsIdxValid@?$CUtlMemory@PAV?$ITilegenClassFactory@V?$ITilegenExpression@PBVCRoomTemplate@@@@@@H@@QBE_NH@Z 102123b0 f i tilegen_class_factories.obj
 0002:000bd430       ?IsIdxValid@?$CUtlMemory@PAV?$ITilegenClassFactory@V?$ITilegenExpression@PBVCRoomCandidate@@@@@@H@@QBE_NH@Z 10212430 f i tilegen_class_factories.obj
 0002:000bd4b0       ?IsIdxValid@?$CUtlMemory@PAV?$ITilegenClassFactory@V?$ITilegenExpression@PBVCTilegenState@@@@@@H@@QBE_NH@Z 102124b0 f i tilegen_class_factories.obj
 0002:000bd530       ?IsIdxValid@?$CUtlMemory@PAV?$ITilegenClassFactory@V?$ITilegenRange@PBVCExit@@@@@@H@@QBE_NH@Z 10212530 f i tilegen_class_factories.obj
 0002:000bd5b0       ??0?$CUtlVector@PAV?$ITilegenClassFactory@V?$ITilegenExpression@_N@@@@V?$CUtlMemory@PAV?$ITilegenClassFactory@V?$ITilegenExpression@_N@@@@H@@@@QAE@HH@Z 102125b0 f i tilegen_class_factories.obj
 0002:000bd630       ??0?$CUtlMemory@PAV?$ITilegenClassFactory@V?$ITilegenExpression@_N@@@@H@@QAE@HH@Z 10212630 f i tilegen_class_factories.obj
 0002:000bd820       ?ValidateGrowSize@?$CUtlMemory@PAV?$ITilegenClassFactory@V?$ITilegenExpression@_N@@@@H@@IAEXXZ 10212820 f i tilegen_class_factories.obj
 0002:000bd860       ??0?$CUtlVector@PAV?$ITilegenClassFactory@V?$ITilegenExpression@H@@@@V?$CUtlMemory@PAV?$ITilegenClassFactory@V?$ITilegenExpression@H@@@@H@@@@QAE@HH@Z 10212860 f i tilegen_class_factories.obj
 0002:000bd8e0       ??0?$CUtlMemory@PAV?$ITilegenClassFactory@V?$ITilegenExpression@H@@@@H@@QAE@HH@Z 102128e0 f i tilegen_class_factories.obj
 0002:000bdad0       ?ValidateGrowSize@?$CUtlMemory@PAV?$ITilegenClassFactory@V?$ITilegenExpression@H@@@@H@@IAEXXZ 10212ad0 f i tilegen_class_factories.obj
 0002:000bdb10       ??0?$CUtlVector@PAV?$ITilegenClassFactory@V?$ITilegenExpression@M@@@@V?$CUtlMemory@PAV?$ITilegenClassFactory@V?$ITilegenExpression@M@@@@H@@@@QAE@HH@Z 10212b10 f i tilegen_class_factories.obj
 0002:000bdb90       ??0?$CUtlMemory@PAV?$ITilegenClassFactory@V?$ITilegenExpression@M@@@@H@@QAE@HH@Z 10212b90 f i tilegen_class_factories.obj
 0002:000bdd80       ?ValidateGrowSize@?$CUtlMemory@PAV?$ITilegenClassFactory@V?$ITilegenExpression@M@@@@H@@IAEXXZ 10212d80 f i tilegen_class_factories.obj
 0002:000bddc0       ??0?$CUtlVector@PAV?$ITilegenClassFactory@V?$ITilegenExpression@PBD@@@@V?$CUtlMemory@PAV?$ITilegenClassFactory@V?$ITilegenExpression@PBD@@@@H@@@@QAE@HH@Z 10212dc0 f i tilegen_class_factories.obj
 0002:000bde40       ??0?$CUtlMemory@PAV?$ITilegenClassFactory@V?$ITilegenExpression@PBD@@@@H@@QAE@HH@Z 10212e40 f i tilegen_class_factories.obj
 0002:000be030       ?ValidateGrowSize@?$CUtlMemory@PAV?$ITilegenClassFactory@V?$ITilegenExpression@PBD@@@@H@@IAEXXZ 10213030 f i tilegen_class_factories.obj
 0002:000be070       ??0?$CUtlVector@PAV?$ITilegenClassFactory@V?$ITilegenExpression@PBVCExit@@@@@@V?$CUtlMemory@PAV?$ITilegenClassFactory@V?$ITilegenExpression@PBVCExit@@@@@@H@@@@QAE@HH@Z 10213070 f i tilegen_class_factories.obj
 0002:000be0f0       ??0?$CUtlMemory@PAV?$ITilegenClassFactory@V?$ITilegenExpression@PBVCExit@@@@@@H@@QAE@HH@Z 102130f0 f i tilegen_class_factories.obj
 0002:000be2e0       ?ValidateGrowSize@?$CUtlMemory@PAV?$ITilegenClassFactory@V?$ITilegenExpression@PBVCExit@@@@@@H@@IAEXXZ 102132e0 f i tilegen_class_factories.obj
 0002:000be320       ??0?$CUtlVector@PAV?$ITilegenClassFactory@V?$ITilegenExpression@PBVCRoomTemplate@@@@@@V?$CUtlMemory@PAV?$ITilegenClassFactory@V?$ITilegenExpression@PBVCRoomTemplate@@@@@@H@@@@QAE@HH@Z 10213320 f i tilegen_class_factories.obj
 0002:000be3a0       ??0?$CUtlMemory@PAV?$ITilegenClassFactory@V?$ITilegenExpression@PBVCRoomTemplate@@@@@@H@@QAE@HH@Z 102133a0 f i tilegen_class_factories.obj
 0002:000be590       ?ValidateGrowSize@?$CUtlMemory@PAV?$ITilegenClassFactory@V?$ITilegenExpression@PBVCRoomTemplate@@@@@@H@@IAEXXZ 10213590 f i tilegen_class_factories.obj
 0002:000be5d0       ??0?$CUtlVector@PAV?$ITilegenClassFactory@V?$ITilegenExpression@PBVCRoom@@@@@@V?$CUtlMemory@PAV?$ITilegenClassFactory@V?$ITilegenExpression@PBVCRoom@@@@@@H@@@@QAE@HH@Z 102135d0 f i tilegen_class_factories.obj
 0002:000be650       ??0?$CUtlMemory@PAV?$ITilegenClassFactory@V?$ITilegenExpression@PBVCRoom@@@@@@H@@QAE@HH@Z 10213650 f i tilegen_class_factories.obj
 0002:000be840       ?ValidateGrowSize@?$CUtlMemory@PAV?$ITilegenClassFactory@V?$ITilegenExpression@PBVCRoom@@@@@@H@@IAEXXZ 10213840 f i tilegen_class_factories.obj
 0002:000be880       ??0?$CUtlVector@PAV?$ITilegenClassFactory@V?$ITilegenExpression@PBVCRoomCandidate@@@@@@V?$CUtlMemory@PAV?$ITilegenClassFactory@V?$ITilegenExpression@PBVCRoomCandidate@@@@@@H@@@@QAE@HH@Z 10213880 f i tilegen_class_factories.obj
 0002:000be900       ??0?$CUtlMemory@PAV?$ITilegenClassFactory@V?$ITilegenExpression@PBVCRoomCandidate@@@@@@H@@QAE@HH@Z 10213900 f i tilegen_class_factories.obj
 0002:000beaf0       ?ValidateGrowSize@?$CUtlMemory@PAV?$ITilegenClassFactory@V?$ITilegenExpression@PBVCRoomCandidate@@@@@@H@@IAEXXZ 10213af0 f i tilegen_class_factories.obj
 0002:000beb30       ??0?$CUtlVector@PAV?$ITilegenClassFactory@V?$ITilegenExpression@PAV?$ITilegenRange@PBVCExit@@@@@@@@V?$CUtlMemory@PAV?$ITilegenClassFactory@V?$ITilegenExpression@PAV?$ITilegenRange@PBVCExit@@@@@@@@H@@@@QAE@HH@Z 10213b30 f i tilegen_class_factories.obj
 0002:000bebb0       ?ResetDbgInfo@?$CUtlVector@PAV?$ITilegenClassFactory@V?$ITilegenExpression@PAV?$ITilegenRange@PBVCExit@@@@@@@@V?$CUtlMemory@PAV?$ITilegenClassFactory@V?$ITilegenExpression@PAV?$ITilegenRange@PBVCExit@@@@@@@@H@@@@IAEXXZ 10213bb0 f i tilegen_class_factories.obj
 0002:000bec10       ?Base@?$CUtlVector@PAV?$ITilegenClassFactory@V?$ITilegenExpression@PAV?$ITilegenRange@PBVCExit@@@@@@@@V?$CUtlMemory@PAV?$ITilegenClassFactory@V?$ITilegenExpression@PAV?$ITilegenRange@PBVCExit@@@@@@@@H@@@@QAEPAPAV?$ITilegenClassFactory@V?$ITilegenExpression@PAV?$ITilegenRange@PBVCExit@@@@@@@@XZ 10213c10 f i tilegen_class_factories.obj
 0002:000bec60       ??0?$CUtlMemory@PAV?$ITilegenClassFactory@V?$ITilegenExpression@PAV?$ITilegenRange@PBVCExit@@@@@@@@H@@QAE@HH@Z 10213c60 f i tilegen_class_factories.obj
 0002:000bee50       ?Base@?$CUtlMemory@PAV?$ITilegenClassFactory@V?$ITilegenExpression@PAV?$ITilegenRange@PBVCExit@@@@@@@@H@@QAEPAPAV?$ITilegenClassFactory@V?$ITilegenExpression@PAV?$ITilegenRange@PBVCExit@@@@@@@@XZ 10213e50 f i tilegen_class_factories.obj
 0002:000bef70       ?ValidateGrowSize@?$CUtlMemory@PAV?$ITilegenClassFactory@V?$ITilegenExpression@PAV?$ITilegenRange@PBVCExit@@@@@@@@H@@IAEXXZ 10213f70 f i tilegen_class_factories.obj
 0002:000befb0       ?IsReadOnly@?$CUtlMemory@PAV?$ITilegenClassFactory@V?$ITilegenExpression@PAV?$ITilegenRange@PBVCExit@@@@@@@@H@@QBE_NXZ 10213fb0 f i tilegen_class_factories.obj
 0002:000bf000       ??$MemAllocClassName@V?$CUtlMemory@PAV?$ITilegenClassFactory@V?$ITilegenExpression@PAV?$ITilegenRange@PBVCExit@@@@@@@@H@@@@YAPBDPAV?$CUtlMemory@PAV?$ITilegenClassFactory@V?$ITilegenExpression@PAV?$ITilegenRange@PBVCExit@@@@@@@@H@@@Z 10214000 f i tilegen_class_factories.obj
 0002:000bf080       ??0?$CUtlVector@PAV?$ITilegenClassFactory@V?$ITilegenExpression@PBVCTilegenState@@@@@@V?$CUtlMemory@PAV?$ITilegenClassFactory@V?$ITilegenExpression@PBVCTilegenState@@@@@@H@@@@QAE@HH@Z 10214080 f i tilegen_class_factories.obj
 0002:000bf100       ??0?$CUtlMemory@PAV?$ITilegenClassFactory@V?$ITilegenExpression@PBVCTilegenState@@@@@@H@@QAE@HH@Z 10214100 f i tilegen_class_factories.obj
 0002:000bf2f0       ?ValidateGrowSize@?$CUtlMemory@PAV?$ITilegenClassFactory@V?$ITilegenExpression@PBVCTilegenState@@@@@@H@@IAEXXZ 102142f0 f i tilegen_class_factories.obj
 0002:000bf330       ??0?$CUtlVector@PAV?$ITilegenClassFactory@VITilegenAction@@@@V?$CUtlMemory@PAV?$ITilegenClassFactory@VITilegenAction@@@@H@@@@QAE@HH@Z 10214330 f i tilegen_class_factories.obj
 0002:000bf3b0       ??0?$CUtlMemory@PAV?$ITilegenClassFactory@VITilegenAction@@@@H@@QAE@HH@Z 102143b0 f i tilegen_class_factories.obj
 0002:000bf5a0       ?ValidateGrowSize@?$CUtlMemory@PAV?$ITilegenClassFactory@VITilegenAction@@@@H@@IAEXXZ 102145a0 f i tilegen_class_factories.obj
 0002:000bf5e0       ??0?$CUtlVector@PAV?$ITilegenClassFactory@V?$ITilegenRange@PBVCExit@@@@@@V?$CUtlMemory@PAV?$ITilegenClassFactory@V?$ITilegenRange@PBVCExit@@@@@@H@@@@QAE@HH@Z 102145e0 f i tilegen_class_factories.obj
 0002:000bf660       ??0?$CUtlMemory@PAV?$ITilegenClassFactory@V?$ITilegenRange@PBVCExit@@@@@@H@@QAE@HH@Z 10214660 f i tilegen_class_factories.obj
 0002:000bf850       ?ValidateGrowSize@?$CUtlMemory@PAV?$ITilegenClassFactory@V?$ITilegenRange@PBVCExit@@@@@@H@@IAEXXZ 10214850 f i tilegen_class_factories.obj
 0002:000bf890       ??0?$CTilegenClassFactory@V?$ITilegenExpression@H@@VCTilegenExpression_Add@@@@QAE@XZ 10214890 f i tilegen_class_factories.obj
 0002:000bf8f0       ??0?$ITilegenClassFactory@V?$ITilegenExpression@H@@@@QAE@XZ 102148f0 f i tilegen_class_factories.obj
 0002:000bf940       ?CreateInstance@?$CTilegenClassFactory@V?$ITilegenExpression@H@@VCTilegenExpression_Add@@@@UAEPAV?$ITilegenExpression@H@@XZ 10214940 f i tilegen_class_factories.obj
 0002:000bf9d0       ??0CTilegenExpression_Add@@QAE@XZ 102149d0 f i tilegen_class_factories.obj
 0002:000bfa30       ?DirectEvaluate@CTilegenExpression_Add@@UAEHPAVCFreeVariableMap@@ABH1@Z 10214a30 f i tilegen_class_factories.obj
 0002:000bfa80       ?GetIdentityValue@CTilegenExpression_Add@@UAEHXZ 10214a80 f i tilegen_class_factories.obj
 0002:000bfac0       ??_GCTilegenExpression_Add@@UAEPAXI@Z 10214ac0 f i tilegen_class_factories.obj
 0002:000bfac0       ??_ECTilegenExpression_Add@@UAEPAXI@Z 10214ac0 f i tilegen_class_factories.obj
 0002:000bfb30       ??1CTilegenExpression_Add@@UAE@XZ 10214b30 f i tilegen_class_factories.obj
 0002:000bfb80       ??0?$CTilegenExpression_Multi@H@@QAE@XZ 10214b80 f i tilegen_class_factories.obj
 0002:000bfbf0       ??1?$CTilegenExpression_Multi@H@@UAE@XZ 10214bf0 f i tilegen_class_factories.obj
 0002:000bfc70       ??1?$ITilegenExpression@H@@UAE@XZ 10214c70 f i tilegen_class_factories.obj
 0002:000bfcb0       ?LoadFromKeyValues@?$CTilegenExpression_Multi@H@@UAE_NPAVKeyValues@@@Z 10214cb0 f i tilegen_class_factories.obj
 0002:000bfdc0       ?Evaluate@?$CTilegenExpression_Multi@H@@UAEHPAVCFreeVariableMap@@@Z 10214dc0 f i tilegen_class_factories.obj
 0002:000c0060       ??_G?$ITilegenExpression@H@@UAEPAXI@Z 10215060 f i tilegen_class_factories.obj
 0002:000c0060       ??_E?$ITilegenExpression@H@@UAEPAXI@Z 10215060 f i tilegen_class_factories.obj
 0002:000c00d0       ??0?$ITilegenExpression@H@@QAE@XZ 102150d0 f i tilegen_class_factories.obj
 0002:000c0120       ??_G?$CTilegenExpression_Multi@H@@UAEPAXI@Z 10215120 f i tilegen_class_factories.obj
 0002:000c0120       ??_E?$CTilegenExpression_Multi@H@@UAEPAXI@Z 10215120 f i tilegen_class_factories.obj
 0002:000c0190       ??0?$CUtlVector@PAV?$ITilegenExpression@H@@V?$CUtlMemory@PAV?$ITilegenExpression@H@@H@@@@QAE@HH@Z 10215190 f i tilegen_class_factories.obj
 0002:000c0210       ??1?$CUtlVector@PAV?$ITilegenExpression@H@@V?$CUtlMemory@PAV?$ITilegenExpression@H@@H@@@@QAE@XZ 10215210 f i tilegen_class_factories.obj
 0002:000c0270       ??A?$CUtlVector@PAV?$ITilegenExpression@H@@V?$CUtlMemory@PAV?$ITilegenExpression@H@@H@@@@QAEAAPAV?$ITilegenExpression@H@@H@Z 10215270 f i tilegen_class_factories.obj
 0002:000c03a0       ?Count@?$CUtlVector@PAV?$ITilegenExpression@H@@V?$CUtlMemory@PAV?$ITilegenExpression@H@@H@@@@QBEHXZ 102153a0 f i tilegen_class_factories.obj
 0002:000c03e0       ?AddToTail@?$CUtlVector@PAV?$ITilegenExpression@H@@V?$CUtlMemory@PAV?$ITilegenExpression@H@@H@@@@QAEHABQAV?$ITilegenExpression@H@@@Z 102153e0 f i tilegen_class_factories.obj
 0002:000c0550       ?PurgeAndDeleteElements@?$CUtlVector@PAV?$ITilegenExpression@H@@V?$CUtlMemory@PAV?$ITilegenExpression@H@@H@@@@QAEXXZ 10215550 f i tilegen_class_factories.obj
 0002:000c07e0       ?Base@?$CUtlVector@PAV?$ITilegenExpression@H@@V?$CUtlMemory@PAV?$ITilegenExpression@H@@H@@@@QAEPAPAV?$ITilegenExpression@H@@XZ 102157e0 f i tilegen_class_factories.obj
 0002:000c0830       ?ResetDbgInfo@?$CUtlVector@PAV?$ITilegenExpression@H@@V?$CUtlMemory@PAV?$ITilegenExpression@H@@H@@@@IAEXXZ 10215830 f i tilegen_class_factories.obj
 0002:000c0890       ?Element@?$CUtlVector@PAV?$ITilegenExpression@H@@V?$CUtlMemory@PAV?$ITilegenExpression@H@@H@@@@QAEAAPAV?$ITilegenExpression@H@@H@Z 10215890 f i tilegen_class_factories.obj
 0002:000c09c0       ?InsertBefore@?$CUtlVector@PAV?$ITilegenExpression@H@@V?$CUtlMemory@PAV?$ITilegenExpression@H@@H@@@@QAEHHABQAV?$ITilegenExpression@H@@@Z 102159c0 f i tilegen_class_factories.obj
 0002:000c0c40       ?Purge@?$CUtlVector@PAV?$ITilegenExpression@H@@V?$CUtlMemory@PAV?$ITilegenExpression@H@@H@@@@QAEXXZ 10215c40 f i tilegen_class_factories.obj
 0002:000c0cb0       ??0?$CUtlMemory@PAV?$ITilegenExpression@H@@H@@QAE@HH@Z 10215cb0 f i tilegen_class_factories.obj
 0002:000c0ea0       ??1?$CUtlMemory@PAV?$ITilegenExpression@H@@H@@QAE@XZ 10215ea0 f i tilegen_class_factories.obj
 0002:000c0ef0       ??A?$CUtlMemory@PAV?$ITilegenExpression@H@@H@@QAEAAPAV?$ITilegenExpression@H@@H@Z 10215ef0 f i tilegen_class_factories.obj
 0002:000c10f0       ?Base@?$CUtlMemory@PAV?$ITilegenExpression@H@@H@@QAEPAPAV?$ITilegenExpression@H@@XZ 102160f0 f i tilegen_class_factories.obj
 0002:000c1210       ?ValidateGrowSize@?$CUtlMemory@PAV?$ITilegenExpression@H@@H@@IAEXXZ 10216210 f i tilegen_class_factories.obj
 0002:000c1250       ?IsValidIndex@?$CUtlVector@PAV?$ITilegenExpression@H@@V?$CUtlMemory@PAV?$ITilegenExpression@H@@H@@@@QBE_NH@Z 10216250 f i tilegen_class_factories.obj
 0002:000c12c0       ?RemoveAll@?$CUtlVector@PAV?$ITilegenExpression@H@@V?$CUtlMemory@PAV?$ITilegenExpression@H@@H@@@@QAEXXZ 102162c0 f i tilegen_class_factories.obj
 0002:000c1350       ?GrowVector@?$CUtlVector@PAV?$ITilegenExpression@H@@V?$CUtlMemory@PAV?$ITilegenExpression@H@@H@@@@IAEXH@Z 10216350 f i tilegen_class_factories.obj
 0002:000c1470       ?ShiftElementsRight@?$CUtlVector@PAV?$ITilegenExpression@H@@V?$CUtlMemory@PAV?$ITilegenExpression@H@@H@@@@IAEXHH@Z 10216470 f i tilegen_class_factories.obj
 0002:000c1610       ?IsIdxValid@?$CUtlMemory@PAV?$ITilegenExpression@H@@H@@QBE_NH@Z 10216610 f i tilegen_class_factories.obj
 0002:000c1690       ?Purge@?$CUtlMemory@PAV?$ITilegenExpression@H@@H@@QAEXXZ 10216690 f i tilegen_class_factories.obj
 0002:000c1740       ?IsReadOnly@?$CUtlMemory@PAV?$ITilegenExpression@H@@H@@QBE_NXZ 10216740 f i tilegen_class_factories.obj
 0002:000c1790       ??$CopyConstruct@PAV?$ITilegenExpression@H@@@@YAPAPAV?$ITilegenExpression@H@@PAPAV0@ABQAV0@@Z 10216790 f i tilegen_class_factories.obj
 0002:000c1830       ??$MemAllocClassName@V?$CUtlMemory@PAV?$ITilegenExpression@H@@H@@@@YAPBDPAV?$CUtlMemory@PAV?$ITilegenExpression@H@@H@@@Z 10216830 f i tilegen_class_factories.obj
 0002:000c18b0       ??$Destruct@PAV?$ITilegenExpression@H@@@@YAXPAPAV?$ITilegenExpression@H@@@Z 102168b0 f i tilegen_class_factories.obj
 0002:000c1910       ?NumAllocated@?$CUtlMemory@PAV?$ITilegenExpression@H@@H@@QBEHXZ 10216910 f i tilegen_class_factories.obj
 0002:000c1950       ?Grow@?$CUtlMemory@PAV?$ITilegenExpression@H@@H@@QAEXH@Z 10216950 f i tilegen_class_factories.obj
 0002:000c1fc0       ?IsExternallyAllocated@?$CUtlMemory@PAV?$ITilegenExpression@H@@H@@QBE_NXZ 10216fc0 f i tilegen_class_factories.obj
 0002:000c2010       ??$MemAllocClassName@V?$CUtlVector@PAV?$ITilegenExpression@H@@V?$CUtlMemory@PAV?$ITilegenExpression@H@@H@@@@@@YAPBDPAV?$CUtlVector@PAV?$ITilegenExpression@H@@V?$CUtlMemory@PAV?$ITilegenExpression@H@@H@@@@@Z 10217010 f i tilegen_class_factories.obj
 0002:000c2090       ??0?$CTilegenClassFactory@V?$ITilegenExpression@H@@VCTilegenExpression_Subtract@@@@QAE@XZ 10217090 f i tilegen_class_factories.obj
 0002:000c20f0       ?CreateInstance@?$CTilegenClassFactory@V?$ITilegenExpression@H@@VCTilegenExpression_Subtract@@@@UAEPAV?$ITilegenExpression@H@@XZ 102170f0 f i tilegen_class_factories.obj
 0002:000c2190       ??0CTilegenExpression_Subtract@@QAE@PAV?$ITilegenExpression@H@@0@Z 10217190 f i tilegen_class_factories.obj
 0002:000c2200       ?Evaluate@CTilegenExpression_Subtract@@UAEHPAVCFreeVariableMap@@@Z 10217200 f i tilegen_class_factories.obj
 0002:000c22a0       ?DirectEvaluate@CTilegenExpression_Subtract@@UAEHPAVCFreeVariableMap@@ABH1@Z 102172a0 f i tilegen_class_factories.obj
 0002:000c22f0       ??_GCTilegenExpression_Subtract@@UAEPAXI@Z 102172f0 f i tilegen_class_factories.obj
 0002:000c22f0       ??_ECTilegenExpression_Subtract@@UAEPAXI@Z 102172f0 f i tilegen_class_factories.obj
 0002:000c2360       ??1CTilegenExpression_Subtract@@UAE@XZ 10217360 f i tilegen_class_factories.obj
 0002:000c23b0       ??0?$CTilegenExpression_Binary@HH@@QAE@PAV?$ITilegenExpression@H@@0@Z 102173b0 f i tilegen_class_factories.obj
 0002:000c2430       ??1?$CTilegenExpression_Binary@HH@@UAE@XZ 10217430 f i tilegen_class_factories.obj
 0002:000c2560       ?LoadFromKeyValues@?$CTilegenExpression_Binary@HH@@UAE_NPAVKeyValues@@@Z 10217560 f i tilegen_class_factories.obj
 0002:000c2650       ?Evaluate@?$CTilegenExpression_Binary@HH@@UAEHPAVCFreeVariableMap@@@Z 10217650 f i tilegen_class_factories.obj
 0002:000c2730       ??_G?$CTilegenExpression_Binary@HH@@UAEPAXI@Z 10217730 f i tilegen_class_factories.obj
 0002:000c2730       ??_E?$CTilegenExpression_Binary@HH@@UAEPAXI@Z 10217730 f i tilegen_class_factories.obj
 0002:000c27a0       ??0?$CTilegenClassFactory@V?$ITilegenExpression@M@@VCTilegenExpression_FloatMultiply@@@@QAE@XZ 102177a0 f i tilegen_class_factories.obj
 0002:000c2800       ??0?$ITilegenClassFactory@V?$ITilegenExpression@M@@@@QAE@XZ 10217800 f i tilegen_class_factories.obj
 0002:000c2850       ?CreateInstance@?$CTilegenClassFactory@V?$ITilegenExpression@M@@VCTilegenExpression_FloatMultiply@@@@UAEPAV?$ITilegenExpression@M@@XZ 10217850 f i tilegen_class_factories.obj
 0002:000c28e0       ??0CTilegenExpression_FloatMultiply@@QAE@XZ 102178e0 f i tilegen_class_factories.obj
 0002:000c2940       ?DirectEvaluate@CTilegenExpression_FloatMultiply@@UAEMPAVCFreeVariableMap@@ABM1@Z 10217940 f i tilegen_class_factories.obj
 0002:000c2990       ?GetIdentityValue@CTilegenExpression_FloatMultiply@@UAEMXZ 10217990 f i tilegen_class_factories.obj
 0002:000c29d0       ??_GCTilegenExpression_FloatMultiply@@UAEPAXI@Z 102179d0 f i tilegen_class_factories.obj
 0002:000c29d0       ??_ECTilegenExpression_FloatMultiply@@UAEPAXI@Z 102179d0 f i tilegen_class_factories.obj
 0002:000c2a40       ??1CTilegenExpression_FloatMultiply@@UAE@XZ 10217a40 f i tilegen_class_factories.obj
 0002:000c2a90       ??0?$CTilegenExpression_Multi@M@@QAE@XZ 10217a90 f i tilegen_class_factories.obj
 0002:000c2b00       ??1?$CTilegenExpression_Multi@M@@UAE@XZ 10217b00 f i tilegen_class_factories.obj
 0002:000c2b80       ?LoadFromKeyValues@?$CTilegenExpression_Multi@M@@UAE_NPAVKeyValues@@@Z 10217b80 f i tilegen_class_factories.obj
 0002:000c2c90       ?Evaluate@?$CTilegenExpression_Multi@M@@UAEMPAVCFreeVariableMap@@@Z 10217c90 f i tilegen_class_factories.obj
 0002:000c2f30       ??1?$ITilegenExpression@M@@UAE@XZ 10217f30 f i tilegen_class_factories.obj
 0002:000c2f70       ??_G?$CTilegenExpression_Multi@M@@UAEPAXI@Z 10217f70 f i tilegen_class_factories.obj
 0002:000c2f70       ??_E?$CTilegenExpression_Multi@M@@UAEPAXI@Z 10217f70 f i tilegen_class_factories.obj
 0002:000c2fe0       ??0?$ITilegenExpression@M@@QAE@XZ 10217fe0 f i tilegen_class_factories.obj
 0002:000c3030       ??_G?$ITilegenExpression@M@@UAEPAXI@Z 10218030 f i tilegen_class_factories.obj
 0002:000c3030       ??_E?$ITilegenExpression@M@@UAEPAXI@Z 10218030 f i tilegen_class_factories.obj
 0002:000c30a0       ??0?$CUtlVector@PAV?$ITilegenExpression@M@@V?$CUtlMemory@PAV?$ITilegenExpression@M@@H@@@@QAE@HH@Z 102180a0 f i tilegen_class_factories.obj
 0002:000c3120       ??1?$CUtlVector@PAV?$ITilegenExpression@M@@V?$CUtlMemory@PAV?$ITilegenExpression@M@@H@@@@QAE@XZ 10218120 f i tilegen_class_factories.obj
 0002:000c3180       ??A?$CUtlVector@PAV?$ITilegenExpression@M@@V?$CUtlMemory@PAV?$ITilegenExpression@M@@H@@@@QAEAAPAV?$ITilegenExpression@M@@H@Z 10218180 f i tilegen_class_factories.obj
 0002:000c32b0       ?Count@?$CUtlVector@PAV?$ITilegenExpression@M@@V?$CUtlMemory@PAV?$ITilegenExpression@M@@H@@@@QBEHXZ 102182b0 f i tilegen_class_factories.obj
 0002:000c32f0       ?AddToTail@?$CUtlVector@PAV?$ITilegenExpression@M@@V?$CUtlMemory@PAV?$ITilegenExpression@M@@H@@@@QAEHABQAV?$ITilegenExpression@M@@@Z 102182f0 f i tilegen_class_factories.obj
 0002:000c3460       ?PurgeAndDeleteElements@?$CUtlVector@PAV?$ITilegenExpression@M@@V?$CUtlMemory@PAV?$ITilegenExpression@M@@H@@@@QAEXXZ 10218460 f i tilegen_class_factories.obj
 0002:000c36f0       ?ReadLiteralValue@?$ITilegenClassFactory@V?$ITilegenExpression@M@@@@SAPAV?$ITilegenExpression@M@@PAVKeyValues@@@Z 102186f0 f i tilegen_class_factories.obj
 0002:000c3740       ?Base@?$CUtlVector@PAV?$ITilegenExpression@M@@V?$CUtlMemory@PAV?$ITilegenExpression@M@@H@@@@QAEPAPAV?$ITilegenExpression@M@@XZ 10218740 f i tilegen_class_factories.obj
 0002:000c3790       ?ResetDbgInfo@?$CUtlVector@PAV?$ITilegenExpression@M@@V?$CUtlMemory@PAV?$ITilegenExpression@M@@H@@@@IAEXXZ 10218790 f i tilegen_class_factories.obj
 0002:000c37f0       ?CreateInstance@?$CTilegenClassRegistry@V?$ITilegenExpression@M@@@@SAPAV?$ITilegenExpression@M@@PBD@Z 102187f0 f i tilegen_class_factories.obj
 0002:000c3960       ?Element@?$CUtlVector@PAV?$ITilegenExpression@M@@V?$CUtlMemory@PAV?$ITilegenExpression@M@@H@@@@QAEAAPAV?$ITilegenExpression@M@@H@Z 10218960 f i tilegen_class_factories.obj
 0002:000c3a90       ?InsertBefore@?$CUtlVector@PAV?$ITilegenExpression@M@@V?$CUtlMemory@PAV?$ITilegenExpression@M@@H@@@@QAEHHABQAV?$ITilegenExpression@M@@@Z 10218a90 f i tilegen_class_factories.obj
 0002:000c3d10       ?Purge@?$CUtlVector@PAV?$ITilegenExpression@M@@V?$CUtlMemory@PAV?$ITilegenExpression@M@@H@@@@QAEXXZ 10218d10 f i tilegen_class_factories.obj
 0002:000c3d80       ??0?$CUtlMemory@PAV?$ITilegenExpression@M@@H@@QAE@HH@Z 10218d80 f i tilegen_class_factories.obj
 0002:000c3f70       ??1?$CUtlMemory@PAV?$ITilegenExpression@M@@H@@QAE@XZ 10218f70 f i tilegen_class_factories.obj
 0002:000c3fc0       ??A?$CUtlMemory@PAV?$ITilegenExpression@M@@H@@QAEAAPAV?$ITilegenExpression@M@@H@Z 10218fc0 f i tilegen_class_factories.obj
 0002:000c41c0       ?Base@?$CUtlMemory@PAV?$ITilegenExpression@M@@H@@QAEPAPAV?$ITilegenExpression@M@@XZ 102191c0 f i tilegen_class_factories.obj
 0002:000c42e0       ??A?$CUtlVector@PAV?$ITilegenClassFactory@V?$ITilegenExpression@M@@@@V?$CUtlMemory@PAV?$ITilegenClassFactory@V?$ITilegenExpression@M@@@@H@@@@QAEAAPAV?$ITilegenClassFactory@V?$ITilegenExpression@M@@@@H@Z 102192e0 f i tilegen_class_factories.obj
 0002:000c4410       ?ValidateGrowSize@?$CUtlMemory@PAV?$ITilegenExpression@M@@H@@IAEXXZ 10219410 f i tilegen_class_factories.obj
 0002:000c4450       ?IsValidIndex@?$CUtlVector@PAV?$ITilegenExpression@M@@V?$CUtlMemory@PAV?$ITilegenExpression@M@@H@@@@QBE_NH@Z 10219450 f i tilegen_class_factories.obj
 0002:000c44c0       ?RemoveAll@?$CUtlVector@PAV?$ITilegenExpression@M@@V?$CUtlMemory@PAV?$ITilegenExpression@M@@H@@@@QAEXXZ 102194c0 f i tilegen_class_factories.obj
 0002:000c4550       ?GrowVector@?$CUtlVector@PAV?$ITilegenExpression@M@@V?$CUtlMemory@PAV?$ITilegenExpression@M@@H@@@@IAEXH@Z 10219550 f i tilegen_class_factories.obj
 0002:000c4670       ?ShiftElementsRight@?$CUtlVector@PAV?$ITilegenExpression@M@@V?$CUtlMemory@PAV?$ITilegenExpression@M@@H@@@@IAEXHH@Z 10219670 f i tilegen_class_factories.obj
 0002:000c4810       ?IsIdxValid@?$CUtlMemory@PAV?$ITilegenExpression@M@@H@@QBE_NH@Z 10219810 f i tilegen_class_factories.obj
 0002:000c4890       ?Purge@?$CUtlMemory@PAV?$ITilegenExpression@M@@H@@QAEXXZ 10219890 f i tilegen_class_factories.obj
 0002:000c4940       ?IsReadOnly@?$CUtlMemory@PAV?$ITilegenExpression@M@@H@@QBE_NXZ 10219940 f i tilegen_class_factories.obj
 0002:000c4990       ??$CopyConstruct@PAV?$ITilegenExpression@M@@@@YAPAPAV?$ITilegenExpression@M@@PAPAV0@ABQAV0@@Z 10219990 f i tilegen_class_factories.obj
 0002:000c4a30       ??$MemAllocClassName@V?$CUtlMemory@PAV?$ITilegenExpression@M@@H@@@@YAPBDPAV?$CUtlMemory@PAV?$ITilegenExpression@M@@H@@@Z 10219a30 f i tilegen_class_factories.obj
 0002:000c4ab0       ??$Destruct@PAV?$ITilegenExpression@M@@@@YAXPAPAV?$ITilegenExpression@M@@@Z 10219ab0 f i tilegen_class_factories.obj
 0002:000c4b10       ?NumAllocated@?$CUtlMemory@PAV?$ITilegenExpression@M@@H@@QBEHXZ 10219b10 f i tilegen_class_factories.obj
 0002:000c4b50       ?Grow@?$CUtlMemory@PAV?$ITilegenExpression@M@@H@@QAEXH@Z 10219b50 f i tilegen_class_factories.obj
 0002:000c51c0       ?IsExternallyAllocated@?$CUtlMemory@PAV?$ITilegenExpression@M@@H@@QBE_NXZ 1021a1c0 f i tilegen_class_factories.obj
 0002:000c5210       ??$MemAllocClassName@V?$CUtlVector@PAV?$ITilegenExpression@M@@V?$CUtlMemory@PAV?$ITilegenExpression@M@@H@@@@@@YAPBDPAV?$CUtlVector@PAV?$ITilegenExpression@M@@V?$CUtlMemory@PAV?$ITilegenExpression@M@@H@@@@@Z 1021a210 f i tilegen_class_factories.obj
 0002:000c5290       ??0?$CTilegenClassFactory@V?$ITilegenExpression@_N@@VCTilegenExpression_And@@@@QAE@XZ 1021a290 f i tilegen_class_factories.obj
 0002:000c52f0       ??0?$ITilegenClassFactory@V?$ITilegenExpression@_N@@@@QAE@XZ 1021a2f0 f i tilegen_class_factories.obj
 0002:000c5340       ?CreateInstance@?$CTilegenClassFactory@V?$ITilegenExpression@_N@@VCTilegenExpression_And@@@@UAEPAV?$ITilegenExpression@_N@@XZ 1021a340 f i tilegen_class_factories.obj
 0002:000c53d0       ??0CTilegenExpression_And@@QAE@XZ 1021a3d0 f i tilegen_class_factories.obj
 0002:000c5430       ?DirectEvaluate@CTilegenExpression_And@@UAE_NPAVCFreeVariableMap@@AB_N1@Z 1021a430 f i tilegen_class_factories.obj
 0002:000c54b0       ?GetIdentityValue@CTilegenExpression_And@@UAE_NXZ 1021a4b0 f i tilegen_class_factories.obj
 0002:000c54f0       ??_GCTilegenExpression_And@@UAEPAXI@Z 1021a4f0 f i tilegen_class_factories.obj
 0002:000c54f0       ??_ECTilegenExpression_And@@UAEPAXI@Z 1021a4f0 f i tilegen_class_factories.obj
 0002:000c5560       ??1CTilegenExpression_And@@UAE@XZ 1021a560 f i tilegen_class_factories.obj
 0002:000c55b0       ??0?$CTilegenExpression_Multi@_N@@QAE@XZ 1021a5b0 f i tilegen_class_factories.obj
 0002:000c5620       ??1?$CTilegenExpression_Multi@_N@@UAE@XZ 1021a620 f i tilegen_class_factories.obj
 0002:000c56a0       ??1?$ITilegenExpression@_N@@UAE@XZ 1021a6a0 f i tilegen_class_factories.obj
 0002:000c56e0       ?LoadFromKeyValues@?$CTilegenExpression_Multi@_N@@UAE_NPAVKeyValues@@@Z 1021a6e0 f i tilegen_class_factories.obj
 0002:000c57f0       ?Evaluate@?$CTilegenExpression_Multi@_N@@UAE_NPAVCFreeVariableMap@@@Z 1021a7f0 f i tilegen_class_factories.obj
 0002:000c5a90       ??0?$ITilegenExpression@_N@@QAE@XZ 1021aa90 f i tilegen_class_factories.obj
 0002:000c5ae0       ??_G?$ITilegenExpression@_N@@UAEPAXI@Z 1021aae0 f i tilegen_class_factories.obj
 0002:000c5ae0       ??_E?$ITilegenExpression@_N@@UAEPAXI@Z 1021aae0 f i tilegen_class_factories.obj
 0002:000c5b50       ??_G?$CTilegenExpression_Multi@_N@@UAEPAXI@Z 1021ab50 f i tilegen_class_factories.obj
 0002:000c5b50       ??_E?$CTilegenExpression_Multi@_N@@UAEPAXI@Z 1021ab50 f i tilegen_class_factories.obj
 0002:000c5bc0       ??0?$CUtlVector@PAV?$ITilegenExpression@_N@@V?$CUtlMemory@PAV?$ITilegenExpression@_N@@H@@@@QAE@HH@Z 1021abc0 f i tilegen_class_factories.obj
 0002:000c5c40       ??1?$CUtlVector@PAV?$ITilegenExpression@_N@@V?$CUtlMemory@PAV?$ITilegenExpression@_N@@H@@@@QAE@XZ 1021ac40 f i tilegen_class_factories.obj
 0002:000c5ca0       ??A?$CUtlVector@PAV?$ITilegenExpression@_N@@V?$CUtlMemory@PAV?$ITilegenExpression@_N@@H@@@@QAEAAPAV?$ITilegenExpression@_N@@H@Z 1021aca0 f i tilegen_class_factories.obj
 0002:000c5dd0       ?Count@?$CUtlVector@PAV?$ITilegenExpression@_N@@V?$CUtlMemory@PAV?$ITilegenExpression@_N@@H@@@@QBEHXZ 1021add0 f i tilegen_class_factories.obj
 0002:000c5e10       ?AddToTail@?$CUtlVector@PAV?$ITilegenExpression@_N@@V?$CUtlMemory@PAV?$ITilegenExpression@_N@@H@@@@QAEHABQAV?$ITilegenExpression@_N@@@Z 1021ae10 f i tilegen_class_factories.obj
 0002:000c5f80       ?PurgeAndDeleteElements@?$CUtlVector@PAV?$ITilegenExpression@_N@@V?$CUtlMemory@PAV?$ITilegenExpression@_N@@H@@@@QAEXXZ 1021af80 f i tilegen_class_factories.obj
 0002:000c6070       ?Base@?$CUtlVector@PAV?$ITilegenExpression@_N@@V?$CUtlMemory@PAV?$ITilegenExpression@_N@@H@@@@QAEPAPAV?$ITilegenExpression@_N@@XZ 1021b070 f i tilegen_class_factories.obj
 0002:000c60c0       ?ResetDbgInfo@?$CUtlVector@PAV?$ITilegenExpression@_N@@V?$CUtlMemory@PAV?$ITilegenExpression@_N@@H@@@@IAEXXZ 1021b0c0 f i tilegen_class_factories.obj
 0002:000c6120       ?Element@?$CUtlVector@PAV?$ITilegenExpression@_N@@V?$CUtlMemory@PAV?$ITilegenExpression@_N@@H@@@@QAEAAPAV?$ITilegenExpression@_N@@H@Z 1021b120 f i tilegen_class_factories.obj
 0002:000c6250       ?InsertBefore@?$CUtlVector@PAV?$ITilegenExpression@_N@@V?$CUtlMemory@PAV?$ITilegenExpression@_N@@H@@@@QAEHHABQAV?$ITilegenExpression@_N@@@Z 1021b250 f i tilegen_class_factories.obj
 0002:000c64d0       ?Purge@?$CUtlVector@PAV?$ITilegenExpression@_N@@V?$CUtlMemory@PAV?$ITilegenExpression@_N@@H@@@@QAEXXZ 1021b4d0 f i tilegen_class_factories.obj
 0002:000c6540       ??0?$CUtlMemory@PAV?$ITilegenExpression@_N@@H@@QAE@HH@Z 1021b540 f i tilegen_class_factories.obj
 0002:000c6730       ??1?$CUtlMemory@PAV?$ITilegenExpression@_N@@H@@QAE@XZ 1021b730 f i tilegen_class_factories.obj
 0002:000c6780       ??A?$CUtlMemory@PAV?$ITilegenExpression@_N@@H@@QAEAAPAV?$ITilegenExpression@_N@@H@Z 1021b780 f i tilegen_class_factories.obj
 0002:000c6980       ?Base@?$CUtlMemory@PAV?$ITilegenExpression@_N@@H@@QAEPAPAV?$ITilegenExpression@_N@@XZ 1021b980 f i tilegen_class_factories.obj
 0002:000c6aa0       ?ValidateGrowSize@?$CUtlMemory@PAV?$ITilegenExpression@_N@@H@@IAEXXZ 1021baa0 f i tilegen_class_factories.obj
 0002:000c6ae0       ?IsValidIndex@?$CUtlVector@PAV?$ITilegenExpression@_N@@V?$CUtlMemory@PAV?$ITilegenExpression@_N@@H@@@@QBE_NH@Z 1021bae0 f i tilegen_class_factories.obj
 0002:000c6b50       ?RemoveAll@?$CUtlVector@PAV?$ITilegenExpression@_N@@V?$CUtlMemory@PAV?$ITilegenExpression@_N@@H@@@@QAEXXZ 1021bb50 f i tilegen_class_factories.obj
 0002:000c6be0       ?GrowVector@?$CUtlVector@PAV?$ITilegenExpression@_N@@V?$CUtlMemory@PAV?$ITilegenExpression@_N@@H@@@@IAEXH@Z 1021bbe0 f i tilegen_class_factories.obj
 0002:000c6d00       ?ShiftElementsRight@?$CUtlVector@PAV?$ITilegenExpression@_N@@V?$CUtlMemory@PAV?$ITilegenExpression@_N@@H@@@@IAEXHH@Z 1021bd00 f i tilegen_class_factories.obj
 0002:000c6ea0       ?IsIdxValid@?$CUtlMemory@PAV?$ITilegenExpression@_N@@H@@QBE_NH@Z 1021bea0 f i tilegen_class_factories.obj
 0002:000c6f20       ?Purge@?$CUtlMemory@PAV?$ITilegenExpression@_N@@H@@QAEXXZ 1021bf20 f i tilegen_class_factories.obj
 0002:000c6fd0       ?IsReadOnly@?$CUtlMemory@PAV?$ITilegenExpression@_N@@H@@QBE_NXZ 1021bfd0 f i tilegen_class_factories.obj
 0002:000c7020       ??$CopyConstruct@PAV?$ITilegenExpression@_N@@@@YAPAPAV?$ITilegenExpression@_N@@PAPAV0@ABQAV0@@Z 1021c020 f i tilegen_class_factories.obj
 0002:000c70c0       ??$MemAllocClassName@V?$CUtlMemory@PAV?$ITilegenExpression@_N@@H@@@@YAPBDPAV?$CUtlMemory@PAV?$ITilegenExpression@_N@@H@@@Z 1021c0c0 f i tilegen_class_factories.obj
 0002:000c7140       ??$Destruct@PAV?$ITilegenExpression@_N@@@@YAXPAPAV?$ITilegenExpression@_N@@@Z 1021c140 f i tilegen_class_factories.obj
 0002:000c71a0       ?NumAllocated@?$CUtlMemory@PAV?$ITilegenExpression@_N@@H@@QBEHXZ 1021c1a0 f i tilegen_class_factories.obj
 0002:000c71e0       ?Grow@?$CUtlMemory@PAV?$ITilegenExpression@_N@@H@@QAEXH@Z 1021c1e0 f i tilegen_class_factories.obj
 0002:000c7850       ?IsExternallyAllocated@?$CUtlMemory@PAV?$ITilegenExpression@_N@@H@@QBE_NXZ 1021c850 f i tilegen_class_factories.obj
 0002:000c78a0       ??$MemAllocClassName@V?$CUtlVector@PAV?$ITilegenExpression@_N@@V?$CUtlMemory@PAV?$ITilegenExpression@_N@@H@@@@@@YAPBDPAV?$CUtlVector@PAV?$ITilegenExpression@_N@@V?$CUtlMemory@PAV?$ITilegenExpression@_N@@H@@@@@Z 1021c8a0 f i tilegen_class_factories.obj
 0002:000c7920       ??0?$CTilegenClassFactory@V?$ITilegenExpression@_N@@VCTilegenExpression_Or@@@@QAE@XZ 1021c920 f i tilegen_class_factories.obj
 0002:000c7980       ?CreateInstance@?$CTilegenClassFactory@V?$ITilegenExpression@_N@@VCTilegenExpression_Or@@@@UAEPAV?$ITilegenExpression@_N@@XZ 1021c980 f i tilegen_class_factories.obj
 0002:000c7a10       ??0CTilegenExpression_Or@@QAE@XZ 1021ca10 f i tilegen_class_factories.obj
 0002:000c7a70       ?DirectEvaluate@CTilegenExpression_Or@@UAE_NPAVCFreeVariableMap@@AB_N1@Z 1021ca70 f i tilegen_class_factories.obj
 0002:000c7af0       ?GetIdentityValue@CTilegenExpression_Or@@UAE_NXZ 1021caf0 f i tilegen_class_factories.obj
 0002:000c7b30       ??_ECTilegenExpression_Or@@UAEPAXI@Z 1021cb30 f i tilegen_class_factories.obj
 0002:000c7b30       ??_GCTilegenExpression_Or@@UAEPAXI@Z 1021cb30 f i tilegen_class_factories.obj
 0002:000c7ba0       ??1CTilegenExpression_Or@@UAE@XZ 1021cba0 f i tilegen_class_factories.obj
 0002:000c7bf0       ??0?$CTilegenClassFactory@V?$ITilegenExpression@_N@@VCTilegenExpression_Not@@@@QAE@XZ 1021cbf0 f i tilegen_class_factories.obj
 0002:000c7c50       ?CreateInstance@?$CTilegenClassFactory@V?$ITilegenExpression@_N@@VCTilegenExpression_Not@@@@UAEPAV?$ITilegenExpression@_N@@XZ 1021cc50 f i tilegen_class_factories.obj
 0002:000c7cf0       ??0CTilegenExpression_Not@@QAE@PAV?$ITilegenExpression@_N@@@Z 1021ccf0 f i tilegen_class_factories.obj
 0002:000c7d60       ?DirectEvaluate@CTilegenExpression_Not@@UAE_NPAVCFreeVariableMap@@AB_N@Z 1021cd60 f i tilegen_class_factories.obj
 0002:000c7db0       ??_GCTilegenExpression_Not@@UAEPAXI@Z 1021cdb0 f i tilegen_class_factories.obj
 0002:000c7db0       ??_ECTilegenExpression_Not@@UAEPAXI@Z 1021cdb0 f i tilegen_class_factories.obj
 0002:000c7e20       ??1CTilegenExpression_Not@@UAE@XZ 1021ce20 f i tilegen_class_factories.obj
 0002:000c7e70       ??0?$CTilegenExpression_Unary@_N_N@@QAE@PAV?$ITilegenExpression@_N@@@Z 1021ce70 f i tilegen_class_factories.obj
 0002:000c7ee0       ?LoadFromKeyValues@?$CTilegenExpression_Unary@_N_N@@UAE_NPAVKeyValues@@@Z 1021cee0 f i tilegen_class_factories.obj
 0002:000c7f70       ?Evaluate@?$CTilegenExpression_Unary@_N_N@@UAE_NPAVCFreeVariableMap@@@Z 1021cf70 f i tilegen_class_factories.obj
 0002:000c8010       ??1?$CTilegenExpression_Unary@_N_N@@UAE@XZ 1021d010 f i tilegen_class_factories.obj
 0002:000c80d0       ??_G?$CTilegenExpression_Unary@_N_N@@UAEPAXI@Z 1021d0d0 f i tilegen_class_factories.obj
 0002:000c80d0       ??_E?$CTilegenExpression_Unary@_N_N@@UAEPAXI@Z 1021d0d0 f i tilegen_class_factories.obj
 0002:000c8140       ??0?$CTilegenClassFactory@V?$ITilegenExpression@H@@VCTilegenExpression_BoolToInt@@@@QAE@XZ 1021d140 f i tilegen_class_factories.obj
 0002:000c81a0       ?CreateInstance@?$CTilegenClassFactory@V?$ITilegenExpression@H@@VCTilegenExpression_BoolToInt@@@@UAEPAV?$ITilegenExpression@H@@XZ 1021d1a0 f i tilegen_class_factories.obj
 0002:000c8240       ??0CTilegenExpression_BoolToInt@@QAE@PAV?$ITilegenExpression@_N@@@Z 1021d240 f i tilegen_class_factories.obj
 0002:000c82b0       ?DirectEvaluate@CTilegenExpression_BoolToInt@@UAEHPAVCFreeVariableMap@@AB_N@Z 1021d2b0 f i tilegen_class_factories.obj
 0002:000c82f0       ??_ECTilegenExpression_BoolToInt@@UAEPAXI@Z 1021d2f0 f i tilegen_class_factories.obj
 0002:000c82f0       ??_GCTilegenExpression_BoolToInt@@UAEPAXI@Z 1021d2f0 f i tilegen_class_factories.obj
 0002:000c8360       ??1CTilegenExpression_BoolToInt@@UAE@XZ 1021d360 f i tilegen_class_factories.obj
 0002:000c83b0       ??0?$CTilegenExpression_Unary@H_N@@QAE@PAV?$ITilegenExpression@_N@@@Z 1021d3b0 f i tilegen_class_factories.obj
 0002:000c8420       ?LoadFromKeyValues@?$CTilegenExpression_Unary@H_N@@UAE_NPAVKeyValues@@@Z 1021d420 f i tilegen_class_factories.obj
 0002:000c84b0       ?Evaluate@?$CTilegenExpression_Unary@H_N@@UAEHPAVCFreeVariableMap@@@Z 1021d4b0 f i tilegen_class_factories.obj
 0002:000c8550       ??1?$CTilegenExpression_Unary@H_N@@UAE@XZ 1021d550 f i tilegen_class_factories.obj
 0002:000c8610       ??_E?$CTilegenExpression_Unary@H_N@@UAEPAXI@Z 1021d610 f i tilegen_class_factories.obj
 0002:000c8610       ??_G?$CTilegenExpression_Unary@H_N@@UAEPAXI@Z 1021d610 f i tilegen_class_factories.obj
 0002:000c8680       ??0?$CTilegenClassFactory@V?$ITilegenExpression@_N@@VCTilegenExpression_IntToBool@@@@QAE@XZ 1021d680 f i tilegen_class_factories.obj
 0002:000c86e0       ?CreateInstance@?$CTilegenClassFactory@V?$ITilegenExpression@_N@@VCTilegenExpression_IntToBool@@@@UAEPAV?$ITilegenExpression@_N@@XZ 1021d6e0 f i tilegen_class_factories.obj
 0002:000c8780       ??0CTilegenExpression_IntToBool@@QAE@PAV?$ITilegenExpression@H@@@Z 1021d780 f i tilegen_class_factories.obj
 0002:000c87f0       ?DirectEvaluate@CTilegenExpression_IntToBool@@UAE_NPAVCFreeVariableMap@@ABH@Z 1021d7f0 f i tilegen_class_factories.obj
 0002:000c8840       ??_ECTilegenExpression_IntToBool@@UAEPAXI@Z 1021d840 f i tilegen_class_factories.obj
 0002:000c8840       ??_GCTilegenExpression_IntToBool@@UAEPAXI@Z 1021d840 f i tilegen_class_factories.obj
 0002:000c88b0       ??1CTilegenExpression_IntToBool@@UAE@XZ 1021d8b0 f i tilegen_class_factories.obj
 0002:000c8900       ??0?$CTilegenExpression_Unary@_NH@@QAE@PAV?$ITilegenExpression@H@@@Z 1021d900 f i tilegen_class_factories.obj
 0002:000c8970       ?LoadFromKeyValues@?$CTilegenExpression_Unary@_NH@@UAE_NPAVKeyValues@@@Z 1021d970 f i tilegen_class_factories.obj
 0002:000c8a00       ?Evaluate@?$CTilegenExpression_Unary@_NH@@UAE_NPAVCFreeVariableMap@@@Z 1021da00 f i tilegen_class_factories.obj
 0002:000c8aa0       ??1?$CTilegenExpression_Unary@_NH@@UAE@XZ 1021daa0 f i tilegen_class_factories.obj
 0002:000c8b60       ??_E?$CTilegenExpression_Unary@_NH@@UAEPAXI@Z 1021db60 f i tilegen_class_factories.obj
 0002:000c8b60       ??_G?$CTilegenExpression_Unary@_NH@@UAEPAXI@Z 1021db60 f i tilegen_class_factories.obj
 0002:000c8bd0       ??0?$CTilegenClassFactory@V?$ITilegenExpression@H@@VCTilegenExpression_FloatToInt@@@@QAE@XZ 1021dbd0 f i tilegen_class_factories.obj
 0002:000c8c30       ?CreateInstance@?$CTilegenClassFactory@V?$ITilegenExpression@H@@VCTilegenExpression_FloatToInt@@@@UAEPAV?$ITilegenExpression@H@@XZ 1021dc30 f i tilegen_class_factories.obj
 0002:000c8cd0       ??0CTilegenExpression_FloatToInt@@QAE@PAV?$ITilegenExpression@M@@@Z 1021dcd0 f i tilegen_class_factories.obj
 0002:000c8d40       ?DirectEvaluate@CTilegenExpression_FloatToInt@@UAEHPAVCFreeVariableMap@@ABM@Z 1021dd40 f i tilegen_class_factories.obj
 0002:000c8d80       ??_GCTilegenExpression_FloatToInt@@UAEPAXI@Z 1021dd80 f i tilegen_class_factories.obj
 0002:000c8d80       ??_ECTilegenExpression_FloatToInt@@UAEPAXI@Z 1021dd80 f i tilegen_class_factories.obj
 0002:000c8df0       ??1CTilegenExpression_FloatToInt@@UAE@XZ 1021ddf0 f i tilegen_class_factories.obj
 0002:000c8e40       ??0?$CTilegenExpression_Unary@HM@@QAE@PAV?$ITilegenExpression@M@@@Z 1021de40 f i tilegen_class_factories.obj
 0002:000c8eb0       ?LoadFromKeyValues@?$CTilegenExpression_Unary@HM@@UAE_NPAVKeyValues@@@Z 1021deb0 f i tilegen_class_factories.obj
 0002:000c8f40       ?Evaluate@?$CTilegenExpression_Unary@HM@@UAEHPAVCFreeVariableMap@@@Z 1021df40 f i tilegen_class_factories.obj
 0002:000c8fe0       ??1?$CTilegenExpression_Unary@HM@@UAE@XZ 1021dfe0 f i tilegen_class_factories.obj
 0002:000c90a0       ??_E?$CTilegenExpression_Unary@HM@@UAEPAXI@Z 1021e0a0 f i tilegen_class_factories.obj
 0002:000c90a0       ??_G?$CTilegenExpression_Unary@HM@@UAEPAXI@Z 1021e0a0 f i tilegen_class_factories.obj
 0002:000c9110       ??$CreateExpressionFromKeyValuesBlock@M@@YA_NPAVKeyValues@@PBD1PAPAV?$ITilegenExpression@M@@_N3@Z 1021e110 f i tilegen_class_factories.obj
 0002:000c9180       ??$CreateFromKeyValuesBlock@V?$ITilegenExpression@M@@@@YA_NPAVKeyValues@@PBD1PAPAV?$ITilegenExpression@M@@_N3@Z 1021e180 f i tilegen_class_factories.obj
 0002:000c92f0       ??0?$CTilegenClassFactory@V?$ITilegenExpression@M@@VCTilegenExpression_IntToFloat@@@@QAE@XZ 1021e2f0 f i tilegen_class_factories.obj
 0002:000c9350       ?CreateInstance@?$CTilegenClassFactory@V?$ITilegenExpression@M@@VCTilegenExpression_IntToFloat@@@@UAEPAV?$ITilegenExpression@M@@XZ 1021e350 f i tilegen_class_factories.obj
 0002:000c93f0       ??0CTilegenExpression_IntToFloat@@QAE@PAV?$ITilegenExpression@H@@@Z 1021e3f0 f i tilegen_class_factories.obj
 0002:000c9460       ?DirectEvaluate@CTilegenExpression_IntToFloat@@UAEMPAVCFreeVariableMap@@ABH@Z 1021e460 f i tilegen_class_factories.obj
 0002:000c94a0       ??_GCTilegenExpression_IntToFloat@@UAEPAXI@Z 1021e4a0 f i tilegen_class_factories.obj
 0002:000c94a0       ??_ECTilegenExpression_IntToFloat@@UAEPAXI@Z 1021e4a0 f i tilegen_class_factories.obj
 0002:000c9510       ??1CTilegenExpression_IntToFloat@@UAE@XZ 1021e510 f i tilegen_class_factories.obj
 0002:000c9560       ??0?$CTilegenExpression_Unary@MH@@QAE@PAV?$ITilegenExpression@H@@@Z 1021e560 f i tilegen_class_factories.obj
 0002:000c95d0       ?LoadFromKeyValues@?$CTilegenExpression_Unary@MH@@UAE_NPAVKeyValues@@@Z 1021e5d0 f i tilegen_class_factories.obj
 0002:000c9660       ?Evaluate@?$CTilegenExpression_Unary@MH@@UAEMPAVCFreeVariableMap@@@Z 1021e660 f i tilegen_class_factories.obj
 0002:000c9700       ??1?$CTilegenExpression_Unary@MH@@UAE@XZ 1021e700 f i tilegen_class_factories.obj
 0002:000c97c0       ??_E?$CTilegenExpression_Unary@MH@@UAEPAXI@Z 1021e7c0 f i tilegen_class_factories.obj
 0002:000c97c0       ??_G?$CTilegenExpression_Unary@MH@@UAEPAXI@Z 1021e7c0 f i tilegen_class_factories.obj
 0002:000c9830       ??0?$CTilegenClassFactory@V?$ITilegenExpression@_N@@VCTilegenExpression_Greater@@@@QAE@XZ 1021e830 f i tilegen_class_factories.obj
 0002:000c9890       ?CreateInstance@?$CTilegenClassFactory@V?$ITilegenExpression@_N@@VCTilegenExpression_Greater@@@@UAEPAV?$ITilegenExpression@_N@@XZ 1021e890 f i tilegen_class_factories.obj
 0002:000c9930       ??0CTilegenExpression_Greater@@QAE@PAV?$ITilegenExpression@H@@0@Z 1021e930 f i tilegen_class_factories.obj
 0002:000c99a0       ?Evaluate@CTilegenExpression_Greater@@UAE_NPAVCFreeVariableMap@@@Z 1021e9a0 f i tilegen_class_factories.obj
 0002:000c9a50       ?DirectEvaluate@CTilegenExpression_Greater@@UAE_NPAVCFreeVariableMap@@ABH1@Z 1021ea50 f i tilegen_class_factories.obj
 0002:000c9aa0       ??_ECTilegenExpression_Greater@@UAEPAXI@Z 1021eaa0 f i tilegen_class_factories.obj
 0002:000c9aa0       ??_GCTilegenExpression_Greater@@UAEPAXI@Z 1021eaa0 f i tilegen_class_factories.obj
 0002:000c9b10       ??1CTilegenExpression_Greater@@UAE@XZ 1021eb10 f i tilegen_class_factories.obj
 0002:000c9b60       ??0?$CTilegenExpression_Binary@_NH@@QAE@PAV?$ITilegenExpression@H@@0@Z 1021eb60 f i tilegen_class_factories.obj
 0002:000c9be0       ??1?$CTilegenExpression_Binary@_NH@@UAE@XZ 1021ebe0 f i tilegen_class_factories.obj
 0002:000c9d10       ?LoadFromKeyValues@?$CTilegenExpression_Binary@_NH@@UAE_NPAVKeyValues@@@Z 1021ed10 f i tilegen_class_factories.obj
 0002:000c9e00       ?Evaluate@?$CTilegenExpression_Binary@_NH@@UAE_NPAVCFreeVariableMap@@@Z 1021ee00 f i tilegen_class_factories.obj
 0002:000c9ee0       ??_G?$CTilegenExpression_Binary@_NH@@UAEPAXI@Z 1021eee0 f i tilegen_class_factories.obj
 0002:000c9ee0       ??_E?$CTilegenExpression_Binary@_NH@@UAEPAXI@Z 1021eee0 f i tilegen_class_factories.obj
 0002:000c9f50       ??0?$CTilegenClassFactory@V?$ITilegenExpression@_N@@VCTilegenExpression_GreaterOrEqual@@@@QAE@XZ 1021ef50 f i tilegen_class_factories.obj
 0002:000c9fb0       ?CreateInstance@?$CTilegenClassFactory@V?$ITilegenExpression@_N@@VCTilegenExpression_GreaterOrEqual@@@@UAEPAV?$ITilegenExpression@_N@@XZ 1021efb0 f i tilegen_class_factories.obj
 0002:000ca050       ??0CTilegenExpression_GreaterOrEqual@@QAE@PAV?$ITilegenExpression@H@@0@Z 1021f050 f i tilegen_class_factories.obj
 0002:000ca0c0       ?Evaluate@CTilegenExpression_GreaterOrEqual@@UAE_NPAVCFreeVariableMap@@@Z 1021f0c0 f i tilegen_class_factories.obj
 0002:000ca170       ?DirectEvaluate@CTilegenExpression_GreaterOrEqual@@UAE_NPAVCFreeVariableMap@@ABH1@Z 1021f170 f i tilegen_class_factories.obj
 0002:000ca1c0       ??_ECTilegenExpression_GreaterOrEqual@@UAEPAXI@Z 1021f1c0 f i tilegen_class_factories.obj
 0002:000ca1c0       ??_GCTilegenExpression_GreaterOrEqual@@UAEPAXI@Z 1021f1c0 f i tilegen_class_factories.obj
 0002:000ca230       ??1CTilegenExpression_GreaterOrEqual@@UAE@XZ 1021f230 f i tilegen_class_factories.obj
 0002:000ca280       ??0?$CTilegenClassFactory@V?$ITilegenExpression@_N@@VCTilegenExpression_Equal@@@@QAE@XZ 1021f280 f i tilegen_class_factories.obj
 0002:000ca2e0       ?CreateInstance@?$CTilegenClassFactory@V?$ITilegenExpression@_N@@VCTilegenExpression_Equal@@@@UAEPAV?$ITilegenExpression@_N@@XZ 1021f2e0 f i tilegen_class_factories.obj
 0002:000ca380       ??0CTilegenExpression_Equal@@QAE@PAV?$ITilegenExpression@H@@0@Z 1021f380 f i tilegen_class_factories.obj
 0002:000ca3f0       ?Evaluate@CTilegenExpression_Equal@@UAE_NPAVCFreeVariableMap@@@Z 1021f3f0 f i tilegen_class_factories.obj
 0002:000ca4a0       ?DirectEvaluate@CTilegenExpression_Equal@@UAE_NPAVCFreeVariableMap@@ABH1@Z 1021f4a0 f i tilegen_class_factories.obj
 0002:000ca4f0       ??_ECTilegenExpression_Equal@@UAEPAXI@Z 1021f4f0 f i tilegen_class_factories.obj
 0002:000ca4f0       ??_GCTilegenExpression_Equal@@UAEPAXI@Z 1021f4f0 f i tilegen_class_factories.obj
 0002:000ca560       ??1CTilegenExpression_Equal@@UAE@XZ 1021f560 f i tilegen_class_factories.obj
 0002:000ca5b0       ??0?$CTilegenClassFactory@V?$ITilegenExpression@_N@@VCTilegenExpression_NotEqual@@@@QAE@XZ 1021f5b0 f i tilegen_class_factories.obj
 0002:000ca610       ?CreateInstance@?$CTilegenClassFactory@V?$ITilegenExpression@_N@@VCTilegenExpression_NotEqual@@@@UAEPAV?$ITilegenExpression@_N@@XZ 1021f610 f i tilegen_class_factories.obj
 0002:000ca6b0       ??0CTilegenExpression_NotEqual@@QAE@PAV?$ITilegenExpression@H@@0@Z 1021f6b0 f i tilegen_class_factories.obj
 0002:000ca720       ?Evaluate@CTilegenExpression_NotEqual@@UAE_NPAVCFreeVariableMap@@@Z 1021f720 f i tilegen_class_factories.obj
 0002:000ca7d0       ?DirectEvaluate@CTilegenExpression_NotEqual@@UAE_NPAVCFreeVariableMap@@ABH1@Z 1021f7d0 f i tilegen_class_factories.obj
 0002:000ca820       ??_GCTilegenExpression_NotEqual@@UAEPAXI@Z 1021f820 f i tilegen_class_factories.obj
 0002:000ca820       ??_ECTilegenExpression_NotEqual@@UAEPAXI@Z 1021f820 f i tilegen_class_factories.obj
 0002:000ca890       ??1CTilegenExpression_NotEqual@@UAE@XZ 1021f890 f i tilegen_class_factories.obj
 0002:000ca8e0       ??0?$CTilegenClassFactory@V?$ITilegenExpression@_N@@VCTilegenExpression_Less@@@@QAE@XZ 1021f8e0 f i tilegen_class_factories.obj
 0002:000ca940       ?CreateInstance@?$CTilegenClassFactory@V?$ITilegenExpression@_N@@VCTilegenExpression_Less@@@@UAEPAV?$ITilegenExpression@_N@@XZ 1021f940 f i tilegen_class_factories.obj
 0002:000ca9e0       ??0CTilegenExpression_Less@@QAE@PAV?$ITilegenExpression@H@@0@Z 1021f9e0 f i tilegen_class_factories.obj
 0002:000caa50       ?Evaluate@CTilegenExpression_Less@@UAE_NPAVCFreeVariableMap@@@Z 1021fa50 f i tilegen_class_factories.obj
 0002:000cab00       ?DirectEvaluate@CTilegenExpression_Less@@UAE_NPAVCFreeVariableMap@@ABH1@Z 1021fb00 f i tilegen_class_factories.obj
 0002:000cab50       ??_ECTilegenExpression_Less@@UAEPAXI@Z 1021fb50 f i tilegen_class_factories.obj
 0002:000cab50       ??_GCTilegenExpression_Less@@UAEPAXI@Z 1021fb50 f i tilegen_class_factories.obj
 0002:000cabc0       ??1CTilegenExpression_Less@@UAE@XZ 1021fbc0 f i tilegen_class_factories.obj
 0002:000cac10       ??0?$CTilegenClassFactory@V?$ITilegenExpression@_N@@VCTilegenExpression_LessOrEqual@@@@QAE@XZ 1021fc10 f i tilegen_class_factories.obj
 0002:000cac70       ?CreateInstance@?$CTilegenClassFactory@V?$ITilegenExpression@_N@@VCTilegenExpression_LessOrEqual@@@@UAEPAV?$ITilegenExpression@_N@@XZ 1021fc70 f i tilegen_class_factories.obj
 0002:000cad10       ??0CTilegenExpression_LessOrEqual@@QAE@PAV?$ITilegenExpression@H@@0@Z 1021fd10 f i tilegen_class_factories.obj
 0002:000cad80       ?Evaluate@CTilegenExpression_LessOrEqual@@UAE_NPAVCFreeVariableMap@@@Z 1021fd80 f i tilegen_class_factories.obj
 0002:000cae30       ?DirectEvaluate@CTilegenExpression_LessOrEqual@@UAE_NPAVCFreeVariableMap@@ABH1@Z 1021fe30 f i tilegen_class_factories.obj
 0002:000cae80       ??_ECTilegenExpression_LessOrEqual@@UAEPAXI@Z 1021fe80 f i tilegen_class_factories.obj
 0002:000cae80       ??_GCTilegenExpression_LessOrEqual@@UAEPAXI@Z 1021fe80 f i tilegen_class_factories.obj
 0002:000caef0       ??1CTilegenExpression_LessOrEqual@@UAE@XZ 1021fef0 f i tilegen_class_factories.obj
 0002:000caf40       ??0?$CTilegenClassFactory@V?$ITilegenExpression@H@@VCTilegenExpression_LiteralInt@@@@QAE@XZ 1021ff40 f i tilegen_class_factories.obj
 0002:000cafa0       ?CreateInstance@?$CTilegenClassFactory@V?$ITilegenExpression@H@@VCTilegenExpression_LiteralInt@@@@UAEPAV?$ITilegenExpression@H@@XZ 1021ffa0 f i tilegen_class_factories.obj
 0002:000cb040       ??0CTilegenExpression_LiteralInt@@QAE@H@Z 10220040 f i tilegen_class_factories.obj
 0002:000cb0b0       ?LoadFromKeyValues@CTilegenExpression_LiteralInt@@UAE_NPAVKeyValues@@@Z 102200b0 f i tilegen_class_factories.obj
 0002:000cb120       ??_GCTilegenExpression_LiteralInt@@UAEPAXI@Z 10220120 f i tilegen_class_factories.obj
 0002:000cb120       ??_ECTilegenExpression_LiteralInt@@UAEPAXI@Z 10220120 f i tilegen_class_factories.obj
 0002:000cb190       ??1CTilegenExpression_LiteralInt@@UAE@XZ 10220190 f i tilegen_class_factories.obj
 0002:000cb1e0       ??1?$CTilegenExpression_Literal@H@@UAE@XZ 102201e0 f i tilegen_class_factories.obj
 0002:000cb230       ??0?$CTilegenExpression_Literal@H@@QAE@H@Z 10220230 f i tilegen_class_factories.obj
 0002:000cb2a0       ?GetTypeName@?$CTilegenExpression_Literal@H@@UAEPBDXZ 102202a0 f i tilegen_class_factories.obj
 0002:000cb3c0       ?Evaluate@?$CTilegenExpression_Literal@H@@UAEHPAVCFreeVariableMap@@@Z 102203c0 f i tilegen_class_factories.obj
 0002:000cb400       ??_G?$CTilegenExpression_Literal@H@@UAEPAXI@Z 10220400 f i tilegen_class_factories.obj
 0002:000cb400       ??_E?$CTilegenExpression_Literal@H@@UAEPAXI@Z 10220400 f i tilegen_class_factories.obj
 0002:000cb470       ??0?$CTilegenClassFactory@V?$ITilegenExpression@_N@@VCTilegenExpression_LiteralBool@@@@QAE@XZ 10220470 f i tilegen_class_factories.obj
 0002:000cb4d0       ?CreateInstance@?$CTilegenClassFactory@V?$ITilegenExpression@_N@@VCTilegenExpression_LiteralBool@@@@UAEPAV?$ITilegenExpression@_N@@XZ 102204d0 f i tilegen_class_factories.obj
 0002:000cb570       ??0CTilegenExpression_LiteralBool@@QAE@_N@Z 10220570 f i tilegen_class_factories.obj
 0002:000cb5e0       ?LoadFromKeyValues@CTilegenExpression_LiteralBool@@UAE_NPAVKeyValues@@@Z 102205e0 f i tilegen_class_factories.obj
 0002:000cb650       ??_ECTilegenExpression_LiteralBool@@UAEPAXI@Z 10220650 f i tilegen_class_factories.obj
 0002:000cb650       ??_GCTilegenExpression_LiteralBool@@UAEPAXI@Z 10220650 f i tilegen_class_factories.obj
 0002:000cb6c0       ??1CTilegenExpression_LiteralBool@@UAE@XZ 102206c0 f i tilegen_class_factories.obj
 0002:000cb710       ??1?$CTilegenExpression_Literal@_N@@UAE@XZ 10220710 f i tilegen_class_factories.obj
 0002:000cb760       ??0?$CTilegenExpression_Literal@_N@@QAE@_N@Z 10220760 f i tilegen_class_factories.obj
 0002:000cb7d0       ?GetTypeName@?$CTilegenExpression_Literal@_N@@UAEPBDXZ 102207d0 f i tilegen_class_factories.obj
 0002:000cb8f0       ?Evaluate@?$CTilegenExpression_Literal@_N@@UAE_NPAVCFreeVariableMap@@@Z 102208f0 f i tilegen_class_factories.obj
 0002:000cb930       ??_E?$CTilegenExpression_Literal@_N@@UAEPAXI@Z 10220930 f i tilegen_class_factories.obj
 0002:000cb930       ??_G?$CTilegenExpression_Literal@_N@@UAEPAXI@Z 10220930 f i tilegen_class_factories.obj
 0002:000cb9a0       ??0?$CTilegenClassFactory@V?$ITilegenExpression@M@@VCTilegenExpression_LiteralFloat@@@@QAE@XZ 102209a0 f i tilegen_class_factories.obj
 0002:000cba00       ?CreateInstance@?$CTilegenClassFactory@V?$ITilegenExpression@M@@VCTilegenExpression_LiteralFloat@@@@UAEPAV?$ITilegenExpression@M@@XZ 10220a00 f i tilegen_class_factories.obj
 0002:000cbab0       ??0CTilegenExpression_LiteralFloat@@QAE@M@Z 10220ab0 f i tilegen_class_factories.obj
 0002:000cbb20       ?LoadFromKeyValues@CTilegenExpression_LiteralFloat@@UAE_NPAVKeyValues@@@Z 10220b20 f i tilegen_class_factories.obj
 0002:000cbba0       ??_ECTilegenExpression_LiteralFloat@@UAEPAXI@Z 10220ba0 f i tilegen_class_factories.obj
 0002:000cbba0       ??_GCTilegenExpression_LiteralFloat@@UAEPAXI@Z 10220ba0 f i tilegen_class_factories.obj
 0002:000cbc10       ??1CTilegenExpression_LiteralFloat@@UAE@XZ 10220c10 f i tilegen_class_factories.obj
 0002:000cbc60       ??1?$CTilegenExpression_Literal@M@@UAE@XZ 10220c60 f i tilegen_class_factories.obj
 0002:000cbcb0       ??0?$CTilegenExpression_Literal@M@@QAE@M@Z 10220cb0 f i tilegen_class_factories.obj
 0002:000cbd20       ?GetTypeName@?$CTilegenExpression_Literal@M@@UAEPBDXZ 10220d20 f i tilegen_class_factories.obj
 0002:000cbe40       ?Evaluate@?$CTilegenExpression_Literal@M@@UAEMPAVCFreeVariableMap@@@Z 10220e40 f i tilegen_class_factories.obj
 0002:000cbe80       ??_G?$CTilegenExpression_Literal@M@@UAEPAXI@Z 10220e80 f i tilegen_class_factories.obj
 0002:000cbe80       ??_E?$CTilegenExpression_Literal@M@@UAEPAXI@Z 10220e80 f i tilegen_class_factories.obj
 0002:000cbef0       ??0?$CTilegenClassFactory@V?$ITilegenExpression@PBD@@VCTilegenExpression_LiteralString@@@@QAE@XZ 10220ef0 f i tilegen_class_factories.obj
 0002:000cbf50       ??0?$ITilegenClassFactory@V?$ITilegenExpression@PBD@@@@QAE@XZ 10220f50 f i tilegen_class_factories.obj
 0002:000cbfa0       ?CreateInstance@?$CTilegenClassFactory@V?$ITilegenExpression@PBD@@VCTilegenExpression_LiteralString@@@@UAEPAV?$ITilegenExpression@PBD@@XZ 10220fa0 f i tilegen_class_factories.obj
 0002:000cc040       ??0CTilegenExpression_LiteralString@@QAE@PBD@Z 10221040 f i tilegen_class_factories.obj
 0002:000cc0e0       ?LoadFromKeyValues@CTilegenExpression_LiteralString@@UAE_NPAVKeyValues@@@Z 102210e0 f i tilegen_class_factories.obj
 0002:000cc1d0       ??_ECTilegenExpression_LiteralString@@UAEPAXI@Z 102211d0 f i tilegen_class_factories.obj
 0002:000cc1d0       ??_GCTilegenExpression_LiteralString@@UAEPAXI@Z 102211d0 f i tilegen_class_factories.obj
 0002:000cc240       ??1CTilegenExpression_LiteralString@@UAE@XZ 10221240 f i tilegen_class_factories.obj
 0002:000cc290       ??1?$CTilegenExpression_Literal@PBD@@UAE@XZ 10221290 f i tilegen_class_factories.obj
 0002:000cc2e0       ??1?$ITilegenExpression@PBD@@UAE@XZ 102212e0 f i tilegen_class_factories.obj
 0002:000cc320       ??0?$CTilegenExpression_Literal@PBD@@QAE@PBD@Z 10221320 f i tilegen_class_factories.obj
 0002:000cc390       ?GetTypeName@?$CTilegenExpression_Literal@PBD@@UAEPBDXZ 10221390 f i tilegen_class_factories.obj
 0002:000cc4b0       ?Evaluate@?$CTilegenExpression_Literal@PBD@@UAEPBDPAVCFreeVariableMap@@@Z 102214b0 f i tilegen_class_factories.obj
 0002:000cc4f0       ??0?$ITilegenExpression@PBD@@QAE@XZ 102214f0 f i tilegen_class_factories.obj
 0002:000cc540       ??_E?$ITilegenExpression@PBD@@UAEPAXI@Z 10221540 f i tilegen_class_factories.obj
 0002:000cc540       ??_G?$ITilegenExpression@PBD@@UAEPAXI@Z 10221540 f i tilegen_class_factories.obj
 0002:000cc5b0       ??_G?$CTilegenExpression_Literal@PBD@@UAEPAXI@Z 102215b0 f i tilegen_class_factories.obj
 0002:000cc5b0       ??_E?$CTilegenExpression_Literal@PBD@@UAEPAXI@Z 102215b0 f i tilegen_class_factories.obj
 0002:000cc620       ??0?$CTilegenClassFactory@V?$ITilegenExpression@_N@@VCTilegenExpression_StringEqual@@@@QAE@XZ 10221620 f i tilegen_class_factories.obj
 0002:000cc680       ?CreateInstance@?$CTilegenClassFactory@V?$ITilegenExpression@_N@@VCTilegenExpression_StringEqual@@@@UAEPAV?$ITilegenExpression@_N@@XZ 10221680 f i tilegen_class_factories.obj
 0002:000cc720       ??0CTilegenExpression_StringEqual@@QAE@PAV?$ITilegenExpression@PBD@@0@Z 10221720 f i tilegen_class_factories.obj
 0002:000cc790       ?DirectEvaluate@CTilegenExpression_StringEqual@@UAE_NPAVCFreeVariableMap@@ABQBD1@Z 10221790 f i tilegen_class_factories.obj
 0002:000cc800       ??_ECTilegenExpression_StringEqual@@UAEPAXI@Z 10221800 f i tilegen_class_factories.obj
 0002:000cc800       ??_GCTilegenExpression_StringEqual@@UAEPAXI@Z 10221800 f i tilegen_class_factories.obj
 0002:000cc870       ??1CTilegenExpression_StringEqual@@UAE@XZ 10221870 f i tilegen_class_factories.obj
 0002:000cc8c0       ??0?$CTilegenExpression_Binary@_NPBD@@QAE@PAV?$ITilegenExpression@PBD@@0@Z 102218c0 f i tilegen_class_factories.obj
 0002:000cc940       ??1?$CTilegenExpression_Binary@_NPBD@@UAE@XZ 10221940 f i tilegen_class_factories.obj
 0002:000cca70       ?LoadFromKeyValues@?$CTilegenExpression_Binary@_NPBD@@UAE_NPAVKeyValues@@@Z 10221a70 f i tilegen_class_factories.obj
 0002:000ccb60       ?Evaluate@?$CTilegenExpression_Binary@_NPBD@@UAE_NPAVCFreeVariableMap@@@Z 10221b60 f i tilegen_class_factories.obj
 0002:000ccc40       ??_E?$CTilegenExpression_Binary@_NPBD@@UAEPAXI@Z 10221c40 f i tilegen_class_factories.obj
 0002:000ccc40       ??_G?$CTilegenExpression_Binary@_NPBD@@UAEPAXI@Z 10221c40 f i tilegen_class_factories.obj
 0002:000cce50       ??0?$CTilegenClassFactory@V?$ITilegenExpression@_N@@VCTilegenExpression_StringNotEqual@@@@QAE@XZ 10221e50 f i tilegen_class_factories.obj
 0002:000cceb0       ?CreateInstance@?$CTilegenClassFactory@V?$ITilegenExpression@_N@@VCTilegenExpression_StringNotEqual@@@@UAEPAV?$ITilegenExpression@_N@@XZ 10221eb0 f i tilegen_class_factories.obj
 0002:000ccf50       ??0CTilegenExpression_StringNotEqual@@QAE@PAV?$ITilegenExpression@PBD@@0@Z 10221f50 f i tilegen_class_factories.obj
 0002:000ccfc0       ?DirectEvaluate@CTilegenExpression_StringNotEqual@@UAE_NPAVCFreeVariableMap@@ABQBD1@Z 10221fc0 f i tilegen_class_factories.obj
 0002:000cd030       ??_GCTilegenExpression_StringNotEqual@@UAEPAXI@Z 10222030 f i tilegen_class_factories.obj
 0002:000cd030       ??_ECTilegenExpression_StringNotEqual@@UAEPAXI@Z 10222030 f i tilegen_class_factories.obj
 0002:000cd0a0       ??1CTilegenExpression_StringNotEqual@@UAE@XZ 102220a0 f i tilegen_class_factories.obj
 0002:000cd0f0       ??0?$CTilegenClassFactory@V?$ITilegenExpression@PBD@@VCTilegenExpression_StringConcatenate@@@@QAE@XZ 102220f0 f i tilegen_class_factories.obj
 0002:000cd150       ?CreateInstance@?$CTilegenClassFactory@V?$ITilegenExpression@PBD@@VCTilegenExpression_StringConcatenate@@@@UAEPAV?$ITilegenExpression@PBD@@XZ 10222150 f i tilegen_class_factories.obj
 0002:000cd1f0       ??0CTilegenExpression_StringConcatenate@@QAE@PAV?$ITilegenExpression@PBD@@0@Z 102221f0 f i tilegen_class_factories.obj
 0002:000cd260       ??_GCTilegenExpression_StringConcatenate@@UAEPAXI@Z 10222260 f i tilegen_class_factories.obj
 0002:000cd260       ??_ECTilegenExpression_StringConcatenate@@UAEPAXI@Z 10222260 f i tilegen_class_factories.obj
 0002:000cd2d0       ??1CTilegenExpression_StringConcatenate@@UAE@XZ 102222d0 f i tilegen_class_factories.obj
 0002:000cd320       ??0?$CTilegenExpression_Binary@PBDPBD@@QAE@PAV?$ITilegenExpression@PBD@@0@Z 10222320 f i tilegen_class_factories.obj
 0002:000cd3a0       ??1?$CTilegenExpression_Binary@PBDPBD@@UAE@XZ 102223a0 f i tilegen_class_factories.obj
 0002:000cd4d0       ?LoadFromKeyValues@?$CTilegenExpression_Binary@PBDPBD@@UAE_NPAVKeyValues@@@Z 102224d0 f i tilegen_class_factories.obj
 0002:000cd5c0       ?Evaluate@?$CTilegenExpression_Binary@PBDPBD@@UAEPBDPAVCFreeVariableMap@@@Z 102225c0 f i tilegen_class_factories.obj
 0002:000cd6a0       ??_G?$CTilegenExpression_Binary@PBDPBD@@UAEPAXI@Z 102226a0 f i tilegen_class_factories.obj
 0002:000cd6a0       ??_E?$CTilegenExpression_Binary@PBDPBD@@UAEPAXI@Z 102226a0 f i tilegen_class_factories.obj
 0002:000cd710       ??0?$CTilegenClassFactory@V?$ITilegenExpression@PBD@@VCTilegenExpression_RoomName@@@@QAE@XZ 10222710 f i tilegen_class_factories.obj
 0002:000cd770       ?CreateInstance@?$CTilegenClassFactory@V?$ITilegenExpression@PBD@@VCTilegenExpression_RoomName@@@@UAEPAV?$ITilegenExpression@PBD@@XZ 10222770 f i tilegen_class_factories.obj
 0002:000cd810       ??0CTilegenExpression_RoomName@@QAE@PAV?$ITilegenExpression@PBVCRoomTemplate@@@@@Z 10222810 f i tilegen_class_factories.obj
 0002:000cd880       ??_GCTilegenExpression_RoomName@@UAEPAXI@Z 10222880 f i tilegen_class_factories.obj
 0002:000cd880       ??_ECTilegenExpression_RoomName@@UAEPAXI@Z 10222880 f i tilegen_class_factories.obj
 0002:000cd8f0       ??1CTilegenExpression_RoomName@@UAE@XZ 102228f0 f i tilegen_class_factories.obj
 0002:000cd940       ??0?$CTilegenExpression_Unary@PBDPBVCRoomTemplate@@@@QAE@PAV?$ITilegenExpression@PBVCRoomTemplate@@@@@Z 10222940 f i tilegen_class_factories.obj
 0002:000cd9b0       ?LoadFromKeyValues@?$CTilegenExpression_Unary@PBDPBVCRoomTemplate@@@@UAE_NPAVKeyValues@@@Z 102229b0 f i tilegen_class_factories.obj
 0002:000cda40       ?Evaluate@?$CTilegenExpression_Unary@PBDPBVCRoomTemplate@@@@UAEPBDPAVCFreeVariableMap@@@Z 10222a40 f i tilegen_class_factories.obj
 0002:000cdae0       ??1?$CTilegenExpression_Unary@PBDPBVCRoomTemplate@@@@UAE@XZ 10222ae0 f i tilegen_class_factories.obj
 0002:000cdba0       ??_E?$CTilegenExpression_Unary@PBDPBVCRoomTemplate@@@@UAEPAXI@Z 10222ba0 f i tilegen_class_factories.obj
 0002:000cdba0       ??_G?$CTilegenExpression_Unary@PBDPBVCRoomTemplate@@@@UAEPAXI@Z 10222ba0 f i tilegen_class_factories.obj
 0002:000cdc10       ??$CreateExpressionFromKeyValuesBlock@PBVCRoomTemplate@@@@YA_NPAVKeyValues@@PBD1PAPAV?$ITilegenExpression@PBVCRoomTemplate@@@@_N3@Z 10222c10 f i tilegen_class_factories.obj
 0002:000cdc80       ??$CreateFromKeyValuesBlock@V?$ITilegenExpression@PBVCRoomTemplate@@@@@@YA_NPAVKeyValues@@PBD1PAPAV?$ITilegenExpression@PBVCRoomTemplate@@@@_N3@Z 10222c80 f i tilegen_class_factories.obj
 0002:000cdf90       ?CreateInstance@?$CTilegenClassRegistry@V?$ITilegenExpression@PBVCRoomTemplate@@@@@@SAPAV?$ITilegenExpression@PBVCRoomTemplate@@@@PBD@Z 10222f90 f i tilegen_class_factories.obj
 0002:000ce100       ?ReadLiteralValue@?$ITilegenClassFactory@V?$ITilegenExpression@PBVCRoomTemplate@@@@@@SAPAV?$ITilegenExpression@PBVCRoomTemplate@@@@PAVKeyValues@@@Z 10223100 f i tilegen_class_factories.obj
 0002:000ce1a0       ??A?$CUtlVector@PAV?$ITilegenClassFactory@V?$ITilegenExpression@PBVCRoomTemplate@@@@@@V?$CUtlMemory@PAV?$ITilegenClassFactory@V?$ITilegenExpression@PBVCRoomTemplate@@@@@@H@@@@QAEAAPAV?$ITilegenClassFactory@V?$ITilegenExpression@PBVCRoomTemplate@@@@@@H@Z 102231a0 f i tilegen_class_factories.obj
 0002:000ce2d0       ??0?$CTilegenClassFactory@V?$ITilegenExpression@H@@VCTilegenExpression_RoomArea@@@@QAE@XZ 102232d0 f i tilegen_class_factories.obj
 0002:000ce330       ?CreateInstance@?$CTilegenClassFactory@V?$ITilegenExpression@H@@VCTilegenExpression_RoomArea@@@@UAEPAV?$ITilegenExpression@H@@XZ 10223330 f i tilegen_class_factories.obj
 0002:000ce3d0       ??0CTilegenExpression_RoomArea@@QAE@PAV?$ITilegenExpression@PBVCRoomTemplate@@@@@Z 102233d0 f i tilegen_class_factories.obj
 0002:000ce440       ??_ECTilegenExpression_RoomArea@@UAEPAXI@Z 10223440 f i tilegen_class_factories.obj
 0002:000ce440       ??_GCTilegenExpression_RoomArea@@UAEPAXI@Z 10223440 f i tilegen_class_factories.obj
 0002:000ce4b0       ??1CTilegenExpression_RoomArea@@UAE@XZ 102234b0 f i tilegen_class_factories.obj
 0002:000ce500       ??0?$CTilegenExpression_Unary@HPBVCRoomTemplate@@@@QAE@PAV?$ITilegenExpression@PBVCRoomTemplate@@@@@Z 10223500 f i tilegen_class_factories.obj
 0002:000ce570       ?LoadFromKeyValues@?$CTilegenExpression_Unary@HPBVCRoomTemplate@@@@UAE_NPAVKeyValues@@@Z 10223570 f i tilegen_class_factories.obj
 0002:000ce600       ?Evaluate@?$CTilegenExpression_Unary@HPBVCRoomTemplate@@@@UAEHPAVCFreeVariableMap@@@Z 10223600 f i tilegen_class_factories.obj
 0002:000ce6a0       ??1?$CTilegenExpression_Unary@HPBVCRoomTemplate@@@@UAE@XZ 102236a0 f i tilegen_class_factories.obj
 0002:000ce760       ??_G?$CTilegenExpression_Unary@HPBVCRoomTemplate@@@@UAEPAXI@Z 10223760 f i tilegen_class_factories.obj
 0002:000ce760       ??_E?$CTilegenExpression_Unary@HPBVCRoomTemplate@@@@UAEPAXI@Z 10223760 f i tilegen_class_factories.obj
 0002:000ce7d0       ??0?$CTilegenClassFactory@V?$ITilegenExpression@PBD@@VCTilegenExpression_ExtractRoomName@@@@QAE@XZ 102237d0 f i tilegen_class_factories.obj
 0002:000ce830       ?CreateInstance@?$CTilegenClassFactory@V?$ITilegenExpression@PBD@@VCTilegenExpression_ExtractRoomName@@@@UAEPAV?$ITilegenExpression@PBD@@XZ 10223830 f i tilegen_class_factories.obj
 0002:000ce8d0       ??0CTilegenExpression_ExtractRoomName@@QAE@PAV?$ITilegenExpression@PBD@@@Z 102238d0 f i tilegen_class_factories.obj
 0002:000ce940       ??_GCTilegenExpression_ExtractRoomName@@UAEPAXI@Z 10223940 f i tilegen_class_factories.obj
 0002:000ce940       ??_ECTilegenExpression_ExtractRoomName@@UAEPAXI@Z 10223940 f i tilegen_class_factories.obj
 0002:000ce9b0       ??1CTilegenExpression_ExtractRoomName@@UAE@XZ 102239b0 f i tilegen_class_factories.obj
 0002:000cea00       ??0?$CTilegenExpression_Unary@PBDPBD@@QAE@PAV?$ITilegenExpression@PBD@@@Z 10223a00 f i tilegen_class_factories.obj
 0002:000cea70       ?LoadFromKeyValues@?$CTilegenExpression_Unary@PBDPBD@@UAE_NPAVKeyValues@@@Z 10223a70 f i tilegen_class_factories.obj
 0002:000ceb00       ?Evaluate@?$CTilegenExpression_Unary@PBDPBD@@UAEPBDPAVCFreeVariableMap@@@Z 10223b00 f i tilegen_class_factories.obj
 0002:000ceba0       ??1?$CTilegenExpression_Unary@PBDPBD@@UAE@XZ 10223ba0 f i tilegen_class_factories.obj
 0002:000cec60       ??_G?$CTilegenExpression_Unary@PBDPBD@@UAEPAXI@Z 10223c60 f i tilegen_class_factories.obj
 0002:000cec60       ??_E?$CTilegenExpression_Unary@PBDPBD@@UAEPAXI@Z 10223c60 f i tilegen_class_factories.obj
 0002:000cecd0       ??0?$CTilegenClassFactory@V?$ITilegenExpression@PBD@@VCTilegenExpression_ExtractThemeName@@@@QAE@XZ 10223cd0 f i tilegen_class_factories.obj
 0002:000ced30       ?CreateInstance@?$CTilegenClassFactory@V?$ITilegenExpression@PBD@@VCTilegenExpression_ExtractThemeName@@@@UAEPAV?$ITilegenExpression@PBD@@XZ 10223d30 f i tilegen_class_factories.obj
 0002:000cedd0       ??0CTilegenExpression_ExtractThemeName@@QAE@PAV?$ITilegenExpression@PBD@@@Z 10223dd0 f i tilegen_class_factories.obj
 0002:000cee40       ??_ECTilegenExpression_ExtractThemeName@@UAEPAXI@Z 10223e40 f i tilegen_class_factories.obj
 0002:000cee40       ??_GCTilegenExpression_ExtractThemeName@@UAEPAXI@Z 10223e40 f i tilegen_class_factories.obj
 0002:000ceeb0       ??1CTilegenExpression_ExtractThemeName@@UAE@XZ 10223eb0 f i tilegen_class_factories.obj
 0002:000cef00       ??0?$CTilegenClassFactory@V?$ITilegenExpression@PBVCRoom@@@@VCTilegenExpression_LastPlacedRoom@@@@QAE@XZ 10223f00 f i tilegen_class_factories.obj
 0002:000cef60       ??0?$ITilegenClassFactory@V?$ITilegenExpression@PBVCRoom@@@@@@QAE@XZ 10223f60 f i tilegen_class_factories.obj
 0002:000cefb0       ?CreateInstance@?$CTilegenClassFactory@V?$ITilegenExpression@PBVCRoom@@@@VCTilegenExpression_LastPlacedRoom@@@@UAEPAV?$ITilegenExpression@PBVCRoom@@@@XZ 10223fb0 f i tilegen_class_factories.obj
 0002:000cf040       ??0CTilegenExpression_LastPlacedRoom@@QAE@XZ 10224040 f i tilegen_class_factories.obj
 0002:000cf0a0       ?LoadFromKeyValues@CTilegenExpression_LastPlacedRoom@@UAE_NPAVKeyValues@@@Z 102240a0 f i tilegen_class_factories.obj
 0002:000cf0e0       ??_GCTilegenExpression_LastPlacedRoom@@UAEPAXI@Z 102240e0 f i tilegen_class_factories.obj
 0002:000cf0e0       ??_ECTilegenExpression_LastPlacedRoom@@UAEPAXI@Z 102240e0 f i tilegen_class_factories.obj
 0002:000cf150       ??0?$ITilegenExpression@PBVCRoom@@@@QAE@XZ 10224150 f i tilegen_class_factories.obj
 0002:000cf1a0       ??1CTilegenExpression_LastPlacedRoom@@UAE@XZ 102241a0 f i tilegen_class_factories.obj
 0002:000cf1f0       ??_E?$ITilegenExpression@PBVCRoom@@@@UAEPAXI@Z 102241f0 f i tilegen_class_factories.obj
 0002:000cf1f0       ??_G?$ITilegenExpression@PBVCRoom@@@@UAEPAXI@Z 102241f0 f i tilegen_class_factories.obj
 0002:000cf260       ??1?$ITilegenExpression@PBVCRoom@@@@UAE@XZ 10224260 f i tilegen_class_factories.obj
 0002:000cf2a0       ??0?$CTilegenClassFactory@V?$ITilegenExpression@PBVCRoom@@@@VCTilegenExpression_SourceRoomFromExit@@@@QAE@XZ 102242a0 f i tilegen_class_factories.obj
 0002:000cf300       ?CreateInstance@?$CTilegenClassFactory@V?$ITilegenExpression@PBVCRoom@@@@VCTilegenExpression_SourceRoomFromExit@@@@UAEPAV?$ITilegenExpression@PBVCRoom@@@@XZ 10224300 f i tilegen_class_factories.obj
 0002:000cf3a0       ??0CTilegenExpression_SourceRoomFromExit@@QAE@PAV?$ITilegenExpression@PBVCExit@@@@@Z 102243a0 f i tilegen_class_factories.obj
 0002:000cf410       ??_ECTilegenExpression_SourceRoomFromExit@@UAEPAXI@Z 10224410 f i tilegen_class_factories.obj
 0002:000cf410       ??_GCTilegenExpression_SourceRoomFromExit@@UAEPAXI@Z 10224410 f i tilegen_class_factories.obj
 0002:000cf480       ??1CTilegenExpression_SourceRoomFromExit@@UAE@XZ 10224480 f i tilegen_class_factories.obj
 0002:000cf4d0       ??0?$CTilegenExpression_Unary@PBVCRoom@@PBVCExit@@@@QAE@PAV?$ITilegenExpression@PBVCExit@@@@@Z 102244d0 f i tilegen_class_factories.obj
 0002:000cf540       ?LoadFromKeyValues@?$CTilegenExpression_Unary@PBVCRoom@@PBVCExit@@@@UAE_NPAVKeyValues@@@Z 10224540 f i tilegen_class_factories.obj
 0002:000cf5d0       ?Evaluate@?$CTilegenExpression_Unary@PBVCRoom@@PBVCExit@@@@UAEPBVCRoom@@PAVCFreeVariableMap@@@Z 102245d0 f i tilegen_class_factories.obj
 0002:000cf670       ??1?$CTilegenExpression_Unary@PBVCRoom@@PBVCExit@@@@UAE@XZ 10224670 f i tilegen_class_factories.obj
 0002:000cf730       ??_E?$CTilegenExpression_Unary@PBVCRoom@@PBVCExit@@@@UAEPAXI@Z 10224730 f i tilegen_class_factories.obj
 0002:000cf730       ??_G?$CTilegenExpression_Unary@PBVCRoom@@PBVCExit@@@@UAEPAXI@Z 10224730 f i tilegen_class_factories.obj
 0002:000cf7a0       ??$CreateExpressionFromKeyValuesBlock@PBVCExit@@@@YA_NPAVKeyValues@@PBD1PAPAV?$ITilegenExpression@PBVCExit@@@@_N3@Z 102247a0 f i tilegen_class_factories.obj
 0002:000cf810       ??$CreateFromKeyValuesBlock@V?$ITilegenExpression@PBVCExit@@@@@@YA_NPAVKeyValues@@PBD1PAPAV?$ITilegenExpression@PBVCExit@@@@_N3@Z 10224810 f i tilegen_class_factories.obj
 0002:000cfb20       ?CreateInstance@?$CTilegenClassRegistry@V?$ITilegenExpression@PBVCExit@@@@@@SAPAV?$ITilegenExpression@PBVCExit@@@@PBD@Z 10224b20 f i tilegen_class_factories.obj
 0002:000cfc90       ?ReadLiteralValue@?$ITilegenClassFactory@V?$ITilegenExpression@PBVCExit@@@@@@SAPAV?$ITilegenExpression@PBVCExit@@@@PAVKeyValues@@@Z 10224c90 f i tilegen_class_factories.obj
 0002:000cfd30       ??A?$CUtlVector@PAV?$ITilegenClassFactory@V?$ITilegenExpression@PBVCExit@@@@@@V?$CUtlMemory@PAV?$ITilegenClassFactory@V?$ITilegenExpression@PBVCExit@@@@@@H@@@@QAEAAPAV?$ITilegenClassFactory@V?$ITilegenExpression@PBVCExit@@@@@@H@Z 10224d30 f i tilegen_class_factories.obj
 0002:000cfe60       ??0?$CTilegenClassFactory@V?$ITilegenExpression@PBVCRoomTemplate@@@@VCTilegenExpression_SourceRoomTemplateFromExit@@@@QAE@XZ 10224e60 f i tilegen_class_factories.obj
 0002:000cfec0       ??0?$ITilegenClassFactory@V?$ITilegenExpression@PBVCRoomTemplate@@@@@@QAE@XZ 10224ec0 f i tilegen_class_factories.obj
 0002:000cff10       ?CreateInstance@?$CTilegenClassFactory@V?$ITilegenExpression@PBVCRoomTemplate@@@@VCTilegenExpression_SourceRoomTemplateFromExit@@@@UAEPAV?$ITilegenExpression@PBVCRoomTemplate@@@@XZ 10224f10 f i tilegen_class_factories.obj
 0002:000cffb0       ??0CTilegenExpression_SourceRoomTemplateFromExit@@QAE@PAV?$ITilegenExpression@PBVCExit@@@@@Z 10224fb0 f i tilegen_class_factories.obj
 0002:000d0020       ??_ECTilegenExpression_SourceRoomTemplateFromExit@@UAEPAXI@Z 10225020 f i tilegen_class_factories.obj
 0002:000d0020       ??_GCTilegenExpression_SourceRoomTemplateFromExit@@UAEPAXI@Z 10225020 f i tilegen_class_factories.obj
 0002:000d0090       ??1CTilegenExpression_SourceRoomTemplateFromExit@@UAE@XZ 10225090 f i tilegen_class_factories.obj
 0002:000d00e0       ??0?$CTilegenExpression_Unary@PBVCRoomTemplate@@PBVCExit@@@@QAE@PAV?$ITilegenExpression@PBVCExit@@@@@Z 102250e0 f i tilegen_class_factories.obj
 0002:000d0150       ?LoadFromKeyValues@?$CTilegenExpression_Unary@PBVCRoomTemplate@@PBVCExit@@@@UAE_NPAVKeyValues@@@Z 10225150 f i tilegen_class_factories.obj
 0002:000d01e0       ?Evaluate@?$CTilegenExpression_Unary@PBVCRoomTemplate@@PBVCExit@@@@UAEPBVCRoomTemplate@@PAVCFreeVariableMap@@@Z 102251e0 f i tilegen_class_factories.obj
 0002:000d0280       ??1?$CTilegenExpression_Unary@PBVCRoomTemplate@@PBVCExit@@@@UAE@XZ 10225280 f i tilegen_class_factories.obj
 0002:000d0340       ??1?$ITilegenExpression@PBVCRoomTemplate@@@@UAE@XZ 10225340 f i tilegen_class_factories.obj
 0002:000d0380       ??_G?$CTilegenExpression_Unary@PBVCRoomTemplate@@PBVCExit@@@@UAEPAXI@Z 10225380 f i tilegen_class_factories.obj
 0002:000d0380       ??_E?$CTilegenExpression_Unary@PBVCRoomTemplate@@PBVCExit@@@@UAEPAXI@Z 10225380 f i tilegen_class_factories.obj
 0002:000d03f0       ??0?$ITilegenExpression@PBVCRoomTemplate@@@@QAE@XZ 102253f0 f i tilegen_class_factories.obj
 0002:000d0440       ??_E?$ITilegenExpression@PBVCRoomTemplate@@@@UAEPAXI@Z 10225440 f i tilegen_class_factories.obj
 0002:000d0440       ??_G?$ITilegenExpression@PBVCRoomTemplate@@@@UAEPAXI@Z 10225440 f i tilegen_class_factories.obj
 0002:000d04b0       ??0?$CTilegenClassFactory@V?$ITilegenExpression@_N@@VCTilegenExpression_ChokepointGrowSource@@@@QAE@XZ 102254b0 f i tilegen_class_factories.obj
 0002:000d0510       ?CreateInstance@?$CTilegenClassFactory@V?$ITilegenExpression@_N@@VCTilegenExpression_ChokepointGrowSource@@@@UAEPAV?$ITilegenExpression@_N@@XZ 10225510 f i tilegen_class_factories.obj
 0002:000d05b0       ??0CTilegenExpression_ChokepointGrowSource@@QAE@PAV?$ITilegenExpression@PBVCExit@@@@@Z 102255b0 f i tilegen_class_factories.obj
 0002:000d0620       ??_ECTilegenExpression_ChokepointGrowSource@@UAEPAXI@Z 10225620 f i tilegen_class_factories.obj
 0002:000d0620       ??_GCTilegenExpression_ChokepointGrowSource@@UAEPAXI@Z 10225620 f i tilegen_class_factories.obj
 0002:000d0690       ??1CTilegenExpression_ChokepointGrowSource@@UAE@XZ 10225690 f i tilegen_class_factories.obj
 0002:000d06e0       ??0?$CTilegenExpression_Unary@_NPBVCExit@@@@QAE@PAV?$ITilegenExpression@PBVCExit@@@@@Z 102256e0 f i tilegen_class_factories.obj
 0002:000d0750       ?LoadFromKeyValues@?$CTilegenExpression_Unary@_NPBVCExit@@@@UAE_NPAVKeyValues@@@Z 10225750 f i tilegen_class_factories.obj
 0002:000d07e0       ?Evaluate@?$CTilegenExpression_Unary@_NPBVCExit@@@@UAE_NPAVCFreeVariableMap@@@Z 102257e0 f i tilegen_class_factories.obj
 0002:000d0880       ??1?$CTilegenExpression_Unary@_NPBVCExit@@@@UAE@XZ 10225880 f i tilegen_class_factories.obj
 0002:000d0940       ??_E?$CTilegenExpression_Unary@_NPBVCExit@@@@UAEPAXI@Z 10225940 f i tilegen_class_factories.obj
 0002:000d0940       ??_G?$CTilegenExpression_Unary@_NPBVCExit@@@@UAEPAXI@Z 10225940 f i tilegen_class_factories.obj
 0002:000d09b0       ??0?$CTilegenClassFactory@V?$ITilegenExpression@H@@VCTilegenExpression_RoomChildCount@@@@QAE@XZ 102259b0 f i tilegen_class_factories.obj
 0002:000d0a10       ?CreateInstance@?$CTilegenClassFactory@V?$ITilegenExpression@H@@VCTilegenExpression_RoomChildCount@@@@UAEPAV?$ITilegenExpression@H@@XZ 10225a10 f i tilegen_class_factories.obj
 0002:000d0ab0       ??0CTilegenExpression_RoomChildCount@@QAE@PAV?$ITilegenExpression@PBVCRoom@@@@@Z 10225ab0 f i tilegen_class_factories.obj
 0002:000d0b20       ??_ECTilegenExpression_RoomChildCount@@UAEPAXI@Z 10225b20 f i tilegen_class_factories.obj
 0002:000d0b20       ??_GCTilegenExpression_RoomChildCount@@UAEPAXI@Z 10225b20 f i tilegen_class_factories.obj
 0002:000d0b90       ??1CTilegenExpression_RoomChildCount@@UAE@XZ 10225b90 f i tilegen_class_factories.obj
 0002:000d0be0       ??0?$CTilegenExpression_Unary@HPBVCRoom@@@@QAE@PAV?$ITilegenExpression@PBVCRoom@@@@@Z 10225be0 f i tilegen_class_factories.obj
 0002:000d0c50       ?LoadFromKeyValues@?$CTilegenExpression_Unary@HPBVCRoom@@@@UAE_NPAVKeyValues@@@Z 10225c50 f i tilegen_class_factories.obj
 0002:000d0ce0       ?Evaluate@?$CTilegenExpression_Unary@HPBVCRoom@@@@UAEHPAVCFreeVariableMap@@@Z 10225ce0 f i tilegen_class_factories.obj
 0002:000d0d80       ??1?$CTilegenExpression_Unary@HPBVCRoom@@@@UAE@XZ 10225d80 f i tilegen_class_factories.obj
 0002:000d0e40       ??_G?$CTilegenExpression_Unary@HPBVCRoom@@@@UAEPAXI@Z 10225e40 f i tilegen_class_factories.obj
 0002:000d0e40       ??_E?$CTilegenExpression_Unary@HPBVCRoom@@@@UAEPAXI@Z 10225e40 f i tilegen_class_factories.obj
 0002:000d1050       ??0?$CTilegenClassFactory@V?$ITilegenExpression@PBVCRoomTemplate@@@@VCTilegenExpression_RoomTemplateFromName@@@@QAE@XZ 10226050 f i tilegen_class_factories.obj
 0002:000d10b0       ?CreateInstance@?$CTilegenClassFactory@V?$ITilegenExpression@PBVCRoomTemplate@@@@VCTilegenExpression_RoomTemplateFromName@@@@UAEPAV?$ITilegenExpression@PBVCRoomTemplate@@@@XZ 102260b0 f i tilegen_class_factories.obj
 0002:000d1150       ??0CTilegenExpression_RoomTemplateFromName@@QAE@PAV?$ITilegenExpression@PBD@@@Z 10226150 f i tilegen_class_factories.obj
 0002:000d11c0       ??_ECTilegenExpression_RoomTemplateFromName@@UAEPAXI@Z 102261c0 f i tilegen_class_factories.obj
 0002:000d11c0       ??_GCTilegenExpression_RoomTemplateFromName@@UAEPAXI@Z 102261c0 f i tilegen_class_factories.obj
 0002:000d1230       ??1CTilegenExpression_RoomTemplateFromName@@UAE@XZ 10226230 f i tilegen_class_factories.obj
 0002:000d1280       ??0?$CTilegenExpression_Unary@PBVCRoomTemplate@@PBD@@QAE@PAV?$ITilegenExpression@PBD@@@Z 10226280 f i tilegen_class_factories.obj
 0002:000d12f0       ?LoadFromKeyValues@?$CTilegenExpression_Unary@PBVCRoomTemplate@@PBD@@UAE_NPAVKeyValues@@@Z 102262f0 f i tilegen_class_factories.obj
 0002:000d1380       ?Evaluate@?$CTilegenExpression_Unary@PBVCRoomTemplate@@PBD@@UAEPBVCRoomTemplate@@PAVCFreeVariableMap@@@Z 10226380 f i tilegen_class_factories.obj
 0002:000d1420       ??1?$CTilegenExpression_Unary@PBVCRoomTemplate@@PBD@@UAE@XZ 10226420 f i tilegen_class_factories.obj
 0002:000d14e0       ??_G?$CTilegenExpression_Unary@PBVCRoomTemplate@@PBD@@UAEPAXI@Z 102264e0 f i tilegen_class_factories.obj
 0002:000d14e0       ??_E?$CTilegenExpression_Unary@PBVCRoomTemplate@@PBD@@UAEPAXI@Z 102264e0 f i tilegen_class_factories.obj
 0002:000d1550       ??0?$CTilegenClassFactory@V?$ITilegenExpression@H@@VCTilegenExpression_XPosition@@@@QAE@XZ 10226550 f i tilegen_class_factories.obj
 0002:000d15b0       ?CreateInstance@?$CTilegenClassFactory@V?$ITilegenExpression@H@@VCTilegenExpression_XPosition@@@@UAEPAV?$ITilegenExpression@H@@XZ 102265b0 f i tilegen_class_factories.obj
 0002:000d1650       ??0CTilegenExpression_XPosition@@QAE@PAV?$ITilegenExpression@PBVCRoomCandidate@@@@@Z 10226650 f i tilegen_class_factories.obj
 0002:000d16c0       ??_ECTilegenExpression_XPosition@@UAEPAXI@Z 102266c0 f i tilegen_class_factories.obj
 0002:000d16c0       ??_GCTilegenExpression_XPosition@@UAEPAXI@Z 102266c0 f i tilegen_class_factories.obj
 0002:000d1730       ??1CTilegenExpression_XPosition@@UAE@XZ 10226730 f i tilegen_class_factories.obj
 0002:000d1780       ??0?$CTilegenExpression_Unary@HPBVCRoomCandidate@@@@QAE@PAV?$ITilegenExpression@PBVCRoomCandidate@@@@@Z 10226780 f i tilegen_class_factories.obj
 0002:000d17f0       ?LoadFromKeyValues@?$CTilegenExpression_Unary@HPBVCRoomCandidate@@@@UAE_NPAVKeyValues@@@Z 102267f0 f i tilegen_class_factories.obj
 0002:000d1880       ?Evaluate@?$CTilegenExpression_Unary@HPBVCRoomCandidate@@@@UAEHPAVCFreeVariableMap@@@Z 10226880 f i tilegen_class_factories.obj
 0002:000d1920       ??1?$CTilegenExpression_Unary@HPBVCRoomCandidate@@@@UAE@XZ 10226920 f i tilegen_class_factories.obj
 0002:000d19e0       ??_G?$CTilegenExpression_Unary@HPBVCRoomCandidate@@@@UAEPAXI@Z 102269e0 f i tilegen_class_factories.obj
 0002:000d19e0       ??_E?$CTilegenExpression_Unary@HPBVCRoomCandidate@@@@UAEPAXI@Z 102269e0 f i tilegen_class_factories.obj
 0002:000d1a50       ??$CreateExpressionFromKeyValuesBlock@PBVCRoomCandidate@@@@YA_NPAVKeyValues@@PBD1PAPAV?$ITilegenExpression@PBVCRoomCandidate@@@@_N3@Z 10226a50 f i tilegen_class_factories.obj
 0002:000d1ac0       ??$CreateFromKeyValuesBlock@V?$ITilegenExpression@PBVCRoomCandidate@@@@@@YA_NPAVKeyValues@@PBD1PAPAV?$ITilegenExpression@PBVCRoomCandidate@@@@_N3@Z 10226ac0 f i tilegen_class_factories.obj
 0002:000d1dd0       ?CreateInstance@?$CTilegenClassRegistry@V?$ITilegenExpression@PBVCRoomCandidate@@@@@@SAPAV?$ITilegenExpression@PBVCRoomCandidate@@@@PBD@Z 10226dd0 f i tilegen_class_factories.obj
 0002:000d1f40       ?ReadLiteralValue@?$ITilegenClassFactory@V?$ITilegenExpression@PBVCRoomCandidate@@@@@@SAPAV?$ITilegenExpression@PBVCRoomCandidate@@@@PAVKeyValues@@@Z 10226f40 f i tilegen_class_factories.obj
 0002:000d1fe0       ??A?$CUtlVector@PAV?$ITilegenClassFactory@V?$ITilegenExpression@PBVCRoomCandidate@@@@@@V?$CUtlMemory@PAV?$ITilegenClassFactory@V?$ITilegenExpression@PBVCRoomCandidate@@@@@@H@@@@QAEAAPAV?$ITilegenClassFactory@V?$ITilegenExpression@PBVCRoomCandidate@@@@@@H@Z 10226fe0 f i tilegen_class_factories.obj
 0002:000d2110       ??0?$CTilegenClassFactory@V?$ITilegenExpression@H@@VCTilegenExpression_YPosition@@@@QAE@XZ 10227110 f i tilegen_class_factories.obj
 0002:000d2170       ?CreateInstance@?$CTilegenClassFactory@V?$ITilegenExpression@H@@VCTilegenExpression_YPosition@@@@UAEPAV?$ITilegenExpression@H@@XZ 10227170 f i tilegen_class_factories.obj
 0002:000d2210       ??0CTilegenExpression_YPosition@@QAE@PAV?$ITilegenExpression@PBVCRoomCandidate@@@@@Z 10227210 f i tilegen_class_factories.obj
 0002:000d2280       ??_GCTilegenExpression_YPosition@@UAEPAXI@Z 10227280 f i tilegen_class_factories.obj
 0002:000d2280       ??_ECTilegenExpression_YPosition@@UAEPAXI@Z 10227280 f i tilegen_class_factories.obj
 0002:000d22f0       ??1CTilegenExpression_YPosition@@UAE@XZ 102272f0 f i tilegen_class_factories.obj
 0002:000d2340       ??0?$CTilegenClassFactory@V?$ITilegenExpression@_N@@VCTilegenExpression_HasTag@@@@QAE@XZ 10227340 f i tilegen_class_factories.obj
 0002:000d23a0       ?CreateInstance@?$CTilegenClassFactory@V?$ITilegenExpression@_N@@VCTilegenExpression_HasTag@@@@UAEPAV?$ITilegenExpression@_N@@XZ 102273a0 f i tilegen_class_factories.obj
 0002:000d2440       ??0?$CTilegenClassFactory@V?$ITilegenExpression@_N@@VCTilegenExpression_CanPlaceRandomly@@@@QAE@XZ 10227440 f i tilegen_class_factories.obj
 0002:000d24a0       ?CreateInstance@?$CTilegenClassFactory@V?$ITilegenExpression@_N@@VCTilegenExpression_CanPlaceRandomly@@@@UAEPAV?$ITilegenExpression@_N@@XZ 102274a0 f i tilegen_class_factories.obj
 0002:000d2540       ??0?$CTilegenClassFactory@V?$ITilegenExpression@H@@VCTilegenExpression_NumTimesPlaced@@@@QAE@XZ 10227540 f i tilegen_class_factories.obj
 0002:000d25a0       ?CreateInstance@?$CTilegenClassFactory@V?$ITilegenExpression@H@@VCTilegenExpression_NumTimesPlaced@@@@UAEPAV?$ITilegenExpression@H@@XZ 102275a0 f i tilegen_class_factories.obj
 0002:000d2640       ??0CTilegenExpression_NumTimesPlaced@@QAE@PAV?$ITilegenExpression@PBVCRoomTemplate@@@@@Z 10227640 f i tilegen_class_factories.obj
 0002:000d26b0       ??_GCTilegenExpression_NumTimesPlaced@@UAEPAXI@Z 102276b0 f i tilegen_class_factories.obj
 0002:000d26b0       ??_ECTilegenExpression_NumTimesPlaced@@UAEPAXI@Z 102276b0 f i tilegen_class_factories.obj
 0002:000d2720       ??1CTilegenExpression_NumTimesPlaced@@UAE@XZ 10227720 f i tilegen_class_factories.obj
 0002:000d2770       ??0?$CTilegenClassFactory@V?$ITilegenExpression@PBD@@VCTilegenExpression_ExitTag@@@@QAE@XZ 10227770 f i tilegen_class_factories.obj
 0002:000d27d0       ?CreateInstance@?$CTilegenClassFactory@V?$ITilegenExpression@PBD@@VCTilegenExpression_ExitTag@@@@UAEPAV?$ITilegenExpression@PBD@@XZ 102277d0 f i tilegen_class_factories.obj
 0002:000d2870       ??0CTilegenExpression_ExitTag@@QAE@PAV?$ITilegenExpression@PBVCExit@@@@@Z 10227870 f i tilegen_class_factories.obj
 0002:000d28e0       ??_GCTilegenExpression_ExitTag@@UAEPAXI@Z 102278e0 f i tilegen_class_factories.obj
 0002:000d28e0       ??_ECTilegenExpression_ExitTag@@UAEPAXI@Z 102278e0 f i tilegen_class_factories.obj
 0002:000d2950       ??1CTilegenExpression_ExitTag@@UAE@XZ 10227950 f i tilegen_class_factories.obj
 0002:000d29a0       ??0?$CTilegenExpression_Unary@PBDPBVCExit@@@@QAE@PAV?$ITilegenExpression@PBVCExit@@@@@Z 102279a0 f i tilegen_class_factories.obj
 0002:000d2a10       ?LoadFromKeyValues@?$CTilegenExpression_Unary@PBDPBVCExit@@@@UAE_NPAVKeyValues@@@Z 10227a10 f i tilegen_class_factories.obj
 0002:000d2aa0       ?Evaluate@?$CTilegenExpression_Unary@PBDPBVCExit@@@@UAEPBDPAVCFreeVariableMap@@@Z 10227aa0 f i tilegen_class_factories.obj
 0002:000d2b40       ??1?$CTilegenExpression_Unary@PBDPBVCExit@@@@UAE@XZ 10227b40 f i tilegen_class_factories.obj
 0002:000d2c00       ??_G?$CTilegenExpression_Unary@PBDPBVCExit@@@@UAEPAXI@Z 10227c00 f i tilegen_class_factories.obj
 0002:000d2c00       ??_E?$CTilegenExpression_Unary@PBDPBVCExit@@@@UAEPAXI@Z 10227c00 f i tilegen_class_factories.obj
 0002:000d2c70       ??0?$CTilegenClassFactory@V?$ITilegenExpression@H@@VCTilegenExpression_ExitDirection@@@@QAE@XZ 10227c70 f i tilegen_class_factories.obj
 0002:000d2cd0       ?CreateInstance@?$CTilegenClassFactory@V?$ITilegenExpression@H@@VCTilegenExpression_ExitDirection@@@@UAEPAV?$ITilegenExpression@H@@XZ 10227cd0 f i tilegen_class_factories.obj
 0002:000d2d70       ??0CTilegenExpression_ExitDirection@@QAE@PAV?$ITilegenExpression@PBVCExit@@@@@Z 10227d70 f i tilegen_class_factories.obj
 0002:000d2de0       ??_ECTilegenExpression_ExitDirection@@UAEPAXI@Z 10227de0 f i tilegen_class_factories.obj
 0002:000d2de0       ??_GCTilegenExpression_ExitDirection@@UAEPAXI@Z 10227de0 f i tilegen_class_factories.obj
 0002:000d2e50       ??1CTilegenExpression_ExitDirection@@UAE@XZ 10227e50 f i tilegen_class_factories.obj
 0002:000d2ea0       ??0?$CTilegenExpression_Unary@HPBVCExit@@@@QAE@PAV?$ITilegenExpression@PBVCExit@@@@@Z 10227ea0 f i tilegen_class_factories.obj
 0002:000d2f10       ?LoadFromKeyValues@?$CTilegenExpression_Unary@HPBVCExit@@@@UAE_NPAVKeyValues@@@Z 10227f10 f i tilegen_class_factories.obj
 0002:000d2fa0       ?Evaluate@?$CTilegenExpression_Unary@HPBVCExit@@@@UAEHPAVCFreeVariableMap@@@Z 10227fa0 f i tilegen_class_factories.obj
 0002:000d3040       ??1?$CTilegenExpression_Unary@HPBVCExit@@@@UAE@XZ 10228040 f i tilegen_class_factories.obj
 0002:000d3100       ??_G?$CTilegenExpression_Unary@HPBVCExit@@@@UAEPAXI@Z 10228100 f i tilegen_class_factories.obj
 0002:000d3100       ??_E?$CTilegenExpression_Unary@HPBVCExit@@@@UAEPAXI@Z 10228100 f i tilegen_class_factories.obj
 0002:000d3170       ??0?$CTilegenClassFactory@V?$ITilegenExpression@PBVCTilegenState@@@@VCTilegenExpression_ParentState@@@@QAE@XZ 10228170 f i tilegen_class_factories.obj
 0002:000d31d0       ??0?$ITilegenClassFactory@V?$ITilegenExpression@PBVCTilegenState@@@@@@QAE@XZ 102281d0 f i tilegen_class_factories.obj
 0002:000d3220       ?CreateInstance@?$CTilegenClassFactory@V?$ITilegenExpression@PBVCTilegenState@@@@VCTilegenExpression_ParentState@@@@UAEPAV?$ITilegenExpression@PBVCTilegenState@@@@XZ 10228220 f i tilegen_class_factories.obj
 0002:000d32c0       ??0CTilegenExpression_ParentState@@QAE@PAV?$ITilegenExpression@PBVCTilegenState@@@@@Z 102282c0 f i tilegen_class_factories.obj
 0002:000d3330       ??_ECTilegenExpression_ParentState@@UAEPAXI@Z 10228330 f i tilegen_class_factories.obj
 0002:000d3330       ??_GCTilegenExpression_ParentState@@UAEPAXI@Z 10228330 f i tilegen_class_factories.obj
 0002:000d33a0       ??1CTilegenExpression_ParentState@@UAE@XZ 102283a0 f i tilegen_class_factories.obj
 0002:000d33f0       ??0?$CTilegenExpression_Unary@PBVCTilegenState@@PBV1@@@QAE@PAV?$ITilegenExpression@PBVCTilegenState@@@@@Z 102283f0 f i tilegen_class_factories.obj
 0002:000d3460       ?LoadFromKeyValues@?$CTilegenExpression_Unary@PBVCTilegenState@@PBV1@@@UAE_NPAVKeyValues@@@Z 10228460 f i tilegen_class_factories.obj
 0002:000d34f0       ?Evaluate@?$CTilegenExpression_Unary@PBVCTilegenState@@PBV1@@@UAEPBVCTilegenState@@PAVCFreeVariableMap@@@Z 102284f0 f i tilegen_class_factories.obj
 0002:000d3590       ??1?$CTilegenExpression_Unary@PBVCTilegenState@@PBV1@@@UAE@XZ 10228590 f i tilegen_class_factories.obj
 0002:000d3650       ??1?$ITilegenExpression@PBVCTilegenState@@@@UAE@XZ 10228650 f i tilegen_class_factories.obj
 0002:000d3690       ??_G?$CTilegenExpression_Unary@PBVCTilegenState@@PBV1@@@UAEPAXI@Z 10228690 f i tilegen_class_factories.obj
 0002:000d3690       ??_E?$CTilegenExpression_Unary@PBVCTilegenState@@PBV1@@@UAEPAXI@Z 10228690 f i tilegen_class_factories.obj
 0002:000d3700       ??0?$ITilegenExpression@PBVCTilegenState@@@@QAE@XZ 10228700 f i tilegen_class_factories.obj
 0002:000d3750       ??_E?$ITilegenExpression@PBVCTilegenState@@@@UAEPAXI@Z 10228750 f i tilegen_class_factories.obj
 0002:000d3750       ??_G?$ITilegenExpression@PBVCTilegenState@@@@UAEPAXI@Z 10228750 f i tilegen_class_factories.obj
 0002:000d37c0       ??$CreateExpressionFromKeyValuesBlock@PBVCTilegenState@@@@YA_NPAVKeyValues@@PBD1PAPAV?$ITilegenExpression@PBVCTilegenState@@@@_N3@Z 102287c0 f i tilegen_class_factories.obj
 0002:000d3830       ??$CreateFromKeyValuesBlock@V?$ITilegenExpression@PBVCTilegenState@@@@@@YA_NPAVKeyValues@@PBD1PAPAV?$ITilegenExpression@PBVCTilegenState@@@@_N3@Z 10228830 f i tilegen_class_factories.obj
 0002:000d3b40       ?CreateInstance@?$CTilegenClassRegistry@V?$ITilegenExpression@PBVCTilegenState@@@@@@SAPAV?$ITilegenExpression@PBVCTilegenState@@@@PBD@Z 10228b40 f i tilegen_class_factories.obj
 0002:000d3cb0       ?ReadLiteralValue@?$ITilegenClassFactory@V?$ITilegenExpression@PBVCTilegenState@@@@@@SAPAV?$ITilegenExpression@PBVCTilegenState@@@@PAVKeyValues@@@Z 10228cb0 f i tilegen_class_factories.obj
 0002:000d3d50       ??A?$CUtlVector@PAV?$ITilegenClassFactory@V?$ITilegenExpression@PBVCTilegenState@@@@@@V?$CUtlMemory@PAV?$ITilegenClassFactory@V?$ITilegenExpression@PBVCTilegenState@@@@@@H@@@@QAEAAPAV?$ITilegenClassFactory@V?$ITilegenExpression@PBVCTilegenState@@@@@@H@Z 10228d50 f i tilegen_class_factories.obj
 0002:000d3e80       ??0?$CTilegenClassFactory@V?$ITilegenExpression@PBD@@VCTilegenExpression_StateName@@@@QAE@XZ 10228e80 f i tilegen_class_factories.obj
 0002:000d3ee0       ?CreateInstance@?$CTilegenClassFactory@V?$ITilegenExpression@PBD@@VCTilegenExpression_StateName@@@@UAEPAV?$ITilegenExpression@PBD@@XZ 10228ee0 f i tilegen_class_factories.obj
 0002:000d3f80       ??0CTilegenExpression_StateName@@QAE@PAV?$ITilegenExpression@PBVCTilegenState@@@@@Z 10228f80 f i tilegen_class_factories.obj
 0002:000d3ff0       ??_ECTilegenExpression_StateName@@UAEPAXI@Z 10228ff0 f i tilegen_class_factories.obj
 0002:000d3ff0       ??_GCTilegenExpression_StateName@@UAEPAXI@Z 10228ff0 f i tilegen_class_factories.obj
 0002:000d4060       ??1CTilegenExpression_StateName@@UAE@XZ 10229060 f i tilegen_class_factories.obj
 0002:000d40b0       ??0?$CTilegenExpression_Unary@PBDPBVCTilegenState@@@@QAE@PAV?$ITilegenExpression@PBVCTilegenState@@@@@Z 102290b0 f i tilegen_class_factories.obj
 0002:000d4120       ?LoadFromKeyValues@?$CTilegenExpression_Unary@PBDPBVCTilegenState@@@@UAE_NPAVKeyValues@@@Z 10229120 f i tilegen_class_factories.obj
 0002:000d41b0       ?Evaluate@?$CTilegenExpression_Unary@PBDPBVCTilegenState@@@@UAEPBDPAVCFreeVariableMap@@@Z 102291b0 f i tilegen_class_factories.obj
 0002:000d4250       ??1?$CTilegenExpression_Unary@PBDPBVCTilegenState@@@@UAE@XZ 10229250 f i tilegen_class_factories.obj
 0002:000d4310       ??_G?$CTilegenExpression_Unary@PBDPBVCTilegenState@@@@UAEPAXI@Z 10229310 f i tilegen_class_factories.obj
 0002:000d4310       ??_E?$CTilegenExpression_Unary@PBDPBVCTilegenState@@@@UAEPAXI@Z 10229310 f i tilegen_class_factories.obj
 0002:000d4380       ??0?$CTilegenClassFactory@V?$ITilegenExpression@H@@VCTilegenExpression_MapReduceExits@@@@QAE@XZ 10229380 f i tilegen_class_factories.obj
 0002:000d43e0       ?CreateInstance@?$CTilegenClassFactory@V?$ITilegenExpression@H@@VCTilegenExpression_MapReduceExits@@@@UAEPAV?$ITilegenExpression@H@@XZ 102293e0 f i tilegen_class_factories.obj
 0002:000d4480       ??0CTilegenExpression_MapReduceExits@@QAE@PAV?$ITilegenRange@PBVCExit@@@@PAV?$ITilegenExpression@H@@PAV?$CTilegenExpression_Multi@H@@PBD@Z 10229480 f i tilegen_class_factories.obj
 0002:000d4500       ??_ECTilegenExpression_MapReduceExits@@UAEPAXI@Z 10229500 f i tilegen_class_factories.obj
 0002:000d4500       ??_GCTilegenExpression_MapReduceExits@@UAEPAXI@Z 10229500 f i tilegen_class_factories.obj
 0002:000d4570       ??1CTilegenExpression_MapReduceExits@@UAE@XZ 10229570 f i tilegen_class_factories.obj
 0002:000d45c0       ??0?$CTilegenExpression_MapReduce@HPBVCExit@@@@QAE@PAV?$ITilegenRange@PBVCExit@@@@PAV?$ITilegenExpression@H@@PAV?$CTilegenExpression_Multi@H@@PBD@Z 102295c0 f i tilegen_class_factories.obj
 0002:000d4680       ??1?$CTilegenExpression_MapReduce@HPBVCExit@@@@UAE@XZ 10229680 f i tilegen_class_factories.obj
 0002:000d4950       ?LoadFromKeyValues@?$CTilegenExpression_MapReduce@HPBVCExit@@@@UAE_NPAVKeyValues@@@Z 10229950 f i tilegen_class_factories.obj
 0002:000d4d10       ?Evaluate@?$CTilegenExpression_MapReduce@HPBVCExit@@@@UAEHPAVCFreeVariableMap@@@Z 10229d10 f i tilegen_class_factories.obj
 0002:000d4f40       ??_E?$CTilegenExpression_MapReduce@HPBVCExit@@@@UAEPAXI@Z 10229f40 f i tilegen_class_factories.obj
 0002:000d4f40       ??_G?$CTilegenExpression_MapReduce@HPBVCExit@@@@UAEPAXI@Z 10229f40 f i tilegen_class_factories.obj
 0002:000d4fb0       ??$CreateExpressionFromKeyValuesBlock@PAV?$ITilegenRange@PBVCExit@@@@@@YA_NPAVKeyValues@@PBD1PAPAV?$ITilegenExpression@PAV?$ITilegenRange@PBVCExit@@@@@@_N3@Z 10229fb0 f i tilegen_class_factories.obj
 0002:000d5020       ??$CreateRangeFromKeyValuesBlock@PBVCExit@@@@YA_NPAVKeyValues@@PBD1PAPAV?$ITilegenRange@PBVCExit@@@@@Z 1022a020 f i tilegen_class_factories.obj
 0002:000d5090       ??$CreateFromKeyValuesBlock@V?$ITilegenExpression@PAV?$ITilegenRange@PBVCExit@@@@@@@@YA_NPAVKeyValues@@PBD1PAPAV?$ITilegenExpression@PAV?$ITilegenRange@PBVCExit@@@@@@_N3@Z 1022a090 f i tilegen_class_factories.obj
 0002:000d5200       ??$CreateFromKeyValuesBlock@V?$ITilegenRange@PBVCExit@@@@@@YA_NPAVKeyValues@@PBD1PAPAV?$ITilegenRange@PBVCExit@@@@_N3@Z 1022a200 f i tilegen_class_factories.obj
 0002:000d56b0       ?CreateInstance@?$CTilegenClassRegistry@V?$ITilegenExpression@PAV?$ITilegenRange@PBVCExit@@@@@@@@SAPAV?$ITilegenExpression@PAV?$ITilegenRange@PBVCExit@@@@@@PBD@Z 1022a6b0 f i tilegen_class_factories.obj
 0002:000d5820       ?CreateInstance@?$CTilegenClassRegistry@V?$ITilegenRange@PBVCExit@@@@@@SAPAV?$ITilegenRange@PBVCExit@@@@PBD@Z 1022a820 f i tilegen_class_factories.obj
 0002:000d5990       ?ReadLiteralValue@?$ITilegenClassFactory@V?$ITilegenRange@PBVCExit@@@@@@SAPAV?$ITilegenRange@PBVCExit@@@@PAVKeyValues@@@Z 1022a990 f i tilegen_class_factories.obj
 0002:000d5a30       ?ReadLiteralValue@?$ITilegenClassFactory@V?$ITilegenExpression@PAV?$ITilegenRange@PBVCExit@@@@@@@@SAPAV?$ITilegenExpression@PAV?$ITilegenRange@PBVCExit@@@@@@PAVKeyValues@@@Z 1022aa30 f i tilegen_class_factories.obj
 0002:000d5ad0       ??A?$CUtlVector@PAV?$ITilegenClassFactory@V?$ITilegenExpression@PAV?$ITilegenRange@PBVCExit@@@@@@@@V?$CUtlMemory@PAV?$ITilegenClassFactory@V?$ITilegenExpression@PAV?$ITilegenRange@PBVCExit@@@@@@@@H@@@@QAEAAPAV?$ITilegenClassFactory@V?$ITilegenExpression@PAV?$ITilegenRange@PBVCExit@@@@@@@@H@Z 1022aad0 f i tilegen_class_factories.obj
 0002:000d5c00       ?Count@?$CUtlVector@PAV?$ITilegenClassFactory@V?$ITilegenExpression@PAV?$ITilegenRange@PBVCExit@@@@@@@@V?$CUtlMemory@PAV?$ITilegenClassFactory@V?$ITilegenExpression@PAV?$ITilegenRange@PBVCExit@@@@@@@@H@@@@QBEHXZ 1022ac00 f i tilegen_class_factories.obj
 0002:000d5c40       ??A?$CUtlVector@PAV?$ITilegenClassFactory@V?$ITilegenRange@PBVCExit@@@@@@V?$CUtlMemory@PAV?$ITilegenClassFactory@V?$ITilegenRange@PBVCExit@@@@@@H@@@@QAEAAPAV?$ITilegenClassFactory@V?$ITilegenRange@PBVCExit@@@@@@H@Z 1022ac40 f i tilegen_class_factories.obj
 0002:000d5d70       ??A?$CUtlMemory@PAV?$ITilegenClassFactory@V?$ITilegenExpression@PAV?$ITilegenRange@PBVCExit@@@@@@@@H@@QAEAAPAV?$ITilegenClassFactory@V?$ITilegenExpression@PAV?$ITilegenRange@PBVCExit@@@@@@@@H@Z 1022ad70 f i tilegen_class_factories.obj
 0002:000d5f70       ?IsIdxValid@?$CUtlMemory@PAV?$ITilegenClassFactory@V?$ITilegenExpression@PAV?$ITilegenRange@PBVCExit@@@@@@@@H@@QBE_NH@Z 1022af70 f i tilegen_class_factories.obj
 0002:000d5ff0       ??0?$CTilegenClassFactory@V?$ITilegenExpression@H@@VCTilegenExpression_CountExits@@@@QAE@XZ 1022aff0 f i tilegen_class_factories.obj
 0002:000d6050       ?CreateInstance@?$CTilegenClassFactory@V?$ITilegenExpression@H@@VCTilegenExpression_CountExits@@@@UAEPAV?$ITilegenExpression@H@@XZ 1022b050 f i tilegen_class_factories.obj
 0002:000d60f0       ??0CTilegenExpression_CountExits@@QAE@PAV?$ITilegenRange@PBVCExit@@@@@Z 1022b0f0 f i tilegen_class_factories.obj
 0002:000d6160       ??_GCTilegenExpression_CountExits@@UAEPAXI@Z 1022b160 f i tilegen_class_factories.obj
 0002:000d6160       ??_ECTilegenExpression_CountExits@@UAEPAXI@Z 1022b160 f i tilegen_class_factories.obj
 0002:000d61d0       ??1CTilegenExpression_CountExits@@UAE@XZ 1022b1d0 f i tilegen_class_factories.obj
 0002:000d6220       ??1?$CTilegenExpression_CountRange@PBVCExit@@@@UAE@XZ 1022b220 f i tilegen_class_factories.obj
 0002:000d6270       ??0?$CTilegenExpression_CountRange@PBVCExit@@@@QAE@PAV?$ITilegenRange@PBVCExit@@@@@Z 1022b270 f i tilegen_class_factories.obj
 0002:000d6380       ??_G?$CTilegenExpression_CountRange@PBVCExit@@@@UAEPAXI@Z 1022b380 f i tilegen_class_factories.obj
 0002:000d6380       ??_E?$CTilegenExpression_CountRange@PBVCExit@@@@UAEPAXI@Z 1022b380 f i tilegen_class_factories.obj
 0002:000d63f0       ??0?$CTilegenClassFactory@V?$ITilegenExpression@H@@VCTilegenExpression_VariableInt@@@@QAE@XZ 1022b3f0 f i tilegen_class_factories.obj
 0002:000d6450       ?CreateInstance@?$CTilegenClassFactory@V?$ITilegenExpression@H@@VCTilegenExpression_VariableInt@@@@UAEPAV?$ITilegenExpression@H@@XZ 1022b450 f i tilegen_class_factories.obj
 0002:000d64f0       ??0CTilegenExpression_VariableInt@@QAE@PAV?$ITilegenExpression@PBD@@_N@Z 1022b4f0 f i tilegen_class_factories.obj
 0002:000d6560       ??_GCTilegenExpression_VariableInt@@UAEPAXI@Z 1022b560 f i tilegen_class_factories.obj
 0002:000d6560       ??_ECTilegenExpression_VariableInt@@UAEPAXI@Z 1022b560 f i tilegen_class_factories.obj
 0002:000d65d0       ??1CTilegenExpression_VariableInt@@UAE@XZ 1022b5d0 f i tilegen_class_factories.obj
 0002:000d6620       ??1?$CTilegenExpression_Variable@H@@UAE@XZ 1022b620 f i tilegen_class_factories.obj
 0002:000d6670       ??0?$CTilegenExpression_Variable@H@@QAE@PAV?$ITilegenExpression@PBD@@_N@Z 1022b670 f i tilegen_class_factories.obj
 0002:000d66f0       ?Evaluate@?$CTilegenExpression_Variable@H@@UAEHPAVCFreeVariableMap@@@Z 1022b6f0 f i tilegen_class_factories.obj
 0002:000d67a0       ?LoadFromKeyValues@?$CTilegenExpression_Variable@H@@UAE_NPAVKeyValues@@@Z 1022b7a0 f i tilegen_class_factories.obj
 0002:000d68b0       ??_E?$CTilegenExpression_Variable@H@@UAEPAXI@Z 1022b8b0 f i tilegen_class_factories.obj
 0002:000d68b0       ??_G?$CTilegenExpression_Variable@H@@UAEPAXI@Z 1022b8b0 f i tilegen_class_factories.obj
 0002:000d6920       ??0?$CTilegenClassFactory@V?$ITilegenExpression@PBD@@VCTilegenExpression_VariableString@@@@QAE@XZ 1022b920 f i tilegen_class_factories.obj
 0002:000d6980       ?CreateInstance@?$CTilegenClassFactory@V?$ITilegenExpression@PBD@@VCTilegenExpression_VariableString@@@@UAEPAV?$ITilegenExpression@PBD@@XZ 1022b980 f i tilegen_class_factories.obj
 0002:000d6a20       ??0CTilegenExpression_VariableString@@QAE@PAV?$ITilegenExpression@PBD@@_N@Z 1022ba20 f i tilegen_class_factories.obj
 0002:000d6a90       ??_ECTilegenExpression_VariableString@@UAEPAXI@Z 1022ba90 f i tilegen_class_factories.obj
 0002:000d6a90       ??_GCTilegenExpression_VariableString@@UAEPAXI@Z 1022ba90 f i tilegen_class_factories.obj
 0002:000d6b00       ??1CTilegenExpression_VariableString@@UAE@XZ 1022bb00 f i tilegen_class_factories.obj
 0002:000d6b50       ??1?$CTilegenExpression_Variable@PBD@@UAE@XZ 1022bb50 f i tilegen_class_factories.obj
 0002:000d6ba0       ??0?$CTilegenExpression_Variable@PBD@@QAE@PAV?$ITilegenExpression@PBD@@_N@Z 1022bba0 f i tilegen_class_factories.obj
 0002:000d6c20       ?Evaluate@?$CTilegenExpression_Variable@PBD@@UAEPBDPAVCFreeVariableMap@@@Z 1022bc20 f i tilegen_class_factories.obj
 0002:000d6cd0       ?LoadFromKeyValues@?$CTilegenExpression_Variable@PBD@@UAE_NPAVKeyValues@@@Z 1022bcd0 f i tilegen_class_factories.obj
 0002:000d6de0       ??_E?$CTilegenExpression_Variable@PBD@@UAEPAXI@Z 1022bde0 f i tilegen_class_factories.obj
 0002:000d6de0       ??_G?$CTilegenExpression_Variable@PBD@@UAEPAXI@Z 1022bde0 f i tilegen_class_factories.obj
 0002:000d6e50       ??0?$CTilegenClassFactory@V?$ITilegenExpression@PBVCExit@@@@VCTilegenExpression_VariableExit@@@@QAE@XZ 1022be50 f i tilegen_class_factories.obj
 0002:000d6eb0       ??0?$ITilegenClassFactory@V?$ITilegenExpression@PBVCExit@@@@@@QAE@XZ 1022beb0 f i tilegen_class_factories.obj
 0002:000d6f00       ?CreateInstance@?$CTilegenClassFactory@V?$ITilegenExpression@PBVCExit@@@@VCTilegenExpression_VariableExit@@@@UAEPAV?$ITilegenExpression@PBVCExit@@@@XZ 1022bf00 f i tilegen_class_factories.obj
 0002:000d6fa0       ??0CTilegenExpression_VariableExit@@QAE@PAV?$ITilegenExpression@PBD@@_N@Z 1022bfa0 f i tilegen_class_factories.obj
 0002:000d7010       ??_ECTilegenExpression_VariableExit@@UAEPAXI@Z 1022c010 f i tilegen_class_factories.obj
 0002:000d7010       ??_GCTilegenExpression_VariableExit@@UAEPAXI@Z 1022c010 f i tilegen_class_factories.obj
 0002:000d7080       ??1CTilegenExpression_VariableExit@@UAE@XZ 1022c080 f i tilegen_class_factories.obj
 0002:000d70d0       ??1?$CTilegenExpression_Variable@PBVCExit@@@@UAE@XZ 1022c0d0 f i tilegen_class_factories.obj
 0002:000d7120       ??0?$CTilegenExpression_Variable@PBVCExit@@@@QAE@PAV?$ITilegenExpression@PBD@@_N@Z 1022c120 f i tilegen_class_factories.obj
 0002:000d71a0       ?Evaluate@?$CTilegenExpression_Variable@PBVCExit@@@@UAEPBVCExit@@PAVCFreeVariableMap@@@Z 1022c1a0 f i tilegen_class_factories.obj
 0002:000d7250       ?LoadFromKeyValues@?$CTilegenExpression_Variable@PBVCExit@@@@UAE_NPAVKeyValues@@@Z 1022c250 f i tilegen_class_factories.obj
 0002:000d7360       ??1?$ITilegenExpression@PBVCExit@@@@UAE@XZ 1022c360 f i tilegen_class_factories.obj
 0002:000d73a0       ??_G?$CTilegenExpression_Variable@PBVCExit@@@@UAEPAXI@Z 1022c3a0 f i tilegen_class_factories.obj
 0002:000d73a0       ??_E?$CTilegenExpression_Variable@PBVCExit@@@@UAEPAXI@Z 1022c3a0 f i tilegen_class_factories.obj
 0002:000d7410       ??0?$ITilegenExpression@PBVCExit@@@@QAE@XZ 1022c410 f i tilegen_class_factories.obj
 0002:000d7460       ??_G?$ITilegenExpression@PBVCExit@@@@UAEPAXI@Z 1022c460 f i tilegen_class_factories.obj
 0002:000d7460       ??_E?$ITilegenExpression@PBVCExit@@@@UAEPAXI@Z 1022c460 f i tilegen_class_factories.obj
 0002:000d74d0       ??0?$CTilegenClassFactory@V?$ITilegenExpression@PBVCRoomCandidate@@@@VCTilegenExpression_VariableRoomCandidate@@@@QAE@XZ 1022c4d0 f i tilegen_class_factories.obj
 0002:000d7530       ??0?$ITilegenClassFactory@V?$ITilegenExpression@PBVCRoomCandidate@@@@@@QAE@XZ 1022c530 f i tilegen_class_factories.obj
 0002:000d7580       ?CreateInstance@?$CTilegenClassFactory@V?$ITilegenExpression@PBVCRoomCandidate@@@@VCTilegenExpression_VariableRoomCandidate@@@@UAEPAV?$ITilegenExpression@PBVCRoomCandidate@@@@XZ 1022c580 f i tilegen_class_factories.obj
 0002:000d7620       ??0CTilegenExpression_VariableRoomCandidate@@QAE@PAV?$ITilegenExpression@PBD@@_N@Z 1022c620 f i tilegen_class_factories.obj
 0002:000d7690       ??_GCTilegenExpression_VariableRoomCandidate@@UAEPAXI@Z 1022c690 f i tilegen_class_factories.obj
 0002:000d7690       ??_ECTilegenExpression_VariableRoomCandidate@@UAEPAXI@Z 1022c690 f i tilegen_class_factories.obj
 0002:000d7700       ??1CTilegenExpression_VariableRoomCandidate@@UAE@XZ 1022c700 f i tilegen_class_factories.obj
 0002:000d7750       ??1?$CTilegenExpression_Variable@PBVCRoomCandidate@@@@UAE@XZ 1022c750 f i tilegen_class_factories.obj
 0002:000d77a0       ??0?$CTilegenExpression_Variable@PBVCRoomCandidate@@@@QAE@PAV?$ITilegenExpression@PBD@@_N@Z 1022c7a0 f i tilegen_class_factories.obj
 0002:000d7820       ?Evaluate@?$CTilegenExpression_Variable@PBVCRoomCandidate@@@@UAEPBVCRoomCandidate@@PAVCFreeVariableMap@@@Z 1022c820 f i tilegen_class_factories.obj
 0002:000d78d0       ?LoadFromKeyValues@?$CTilegenExpression_Variable@PBVCRoomCandidate@@@@UAE_NPAVKeyValues@@@Z 1022c8d0 f i tilegen_class_factories.obj
 0002:000d79e0       ??1?$ITilegenExpression@PBVCRoomCandidate@@@@UAE@XZ 1022c9e0 f i tilegen_class_factories.obj
 0002:000d7a20       ??_G?$CTilegenExpression_Variable@PBVCRoomCandidate@@@@UAEPAXI@Z 1022ca20 f i tilegen_class_factories.obj
 0002:000d7a20       ??_E?$CTilegenExpression_Variable@PBVCRoomCandidate@@@@UAEPAXI@Z 1022ca20 f i tilegen_class_factories.obj
 0002:000d7a90       ??0?$ITilegenExpression@PBVCRoomCandidate@@@@QAE@XZ 1022ca90 f i tilegen_class_factories.obj
 0002:000d7ae0       ??_E?$ITilegenExpression@PBVCRoomCandidate@@@@UAEPAXI@Z 1022cae0 f i tilegen_class_factories.obj
 0002:000d7ae0       ??_G?$ITilegenExpression@PBVCRoomCandidate@@@@UAEPAXI@Z 1022cae0 f i tilegen_class_factories.obj
 0002:000d7b50       ??0?$CTilegenClassFactory@V?$ITilegenExpression@PBVCRoomTemplate@@@@VCTilegenExpression_VariableRoomTemplate@@@@QAE@XZ 1022cb50 f i tilegen_class_factories.obj
 0002:000d7bb0       ?CreateInstance@?$CTilegenClassFactory@V?$ITilegenExpression@PBVCRoomTemplate@@@@VCTilegenExpression_VariableRoomTemplate@@@@UAEPAV?$ITilegenExpression@PBVCRoomTemplate@@@@XZ 1022cbb0 f i tilegen_class_factories.obj
 0002:000d7c50       ??0CTilegenExpression_VariableRoomTemplate@@QAE@PAV?$ITilegenExpression@PBD@@_N@Z 1022cc50 f i tilegen_class_factories.obj
 0002:000d7cc0       ??_ECTilegenExpression_VariableRoomTemplate@@UAEPAXI@Z 1022ccc0 f i tilegen_class_factories.obj
 0002:000d7cc0       ??_GCTilegenExpression_VariableRoomTemplate@@UAEPAXI@Z 1022ccc0 f i tilegen_class_factories.obj
 0002:000d7d30       ??1CTilegenExpression_VariableRoomTemplate@@UAE@XZ 1022cd30 f i tilegen_class_factories.obj
 0002:000d7d80       ??1?$CTilegenExpression_Variable@PBVCRoomTemplate@@@@UAE@XZ 1022cd80 f i tilegen_class_factories.obj
 0002:000d7dd0       ??0?$CTilegenExpression_Variable@PBVCRoomTemplate@@@@QAE@PAV?$ITilegenExpression@PBD@@_N@Z 1022cdd0 f i tilegen_class_factories.obj
 0002:000d7e50       ?Evaluate@?$CTilegenExpression_Variable@PBVCRoomTemplate@@@@UAEPBVCRoomTemplate@@PAVCFreeVariableMap@@@Z 1022ce50 f i tilegen_class_factories.obj
 0002:000d7f00       ?LoadFromKeyValues@?$CTilegenExpression_Variable@PBVCRoomTemplate@@@@UAE_NPAVKeyValues@@@Z 1022cf00 f i tilegen_class_factories.obj
 0002:000d8010       ??_G?$CTilegenExpression_Variable@PBVCRoomTemplate@@@@UAEPAXI@Z 1022d010 f i tilegen_class_factories.obj
 0002:000d8010       ??_E?$CTilegenExpression_Variable@PBVCRoomTemplate@@@@UAEPAXI@Z 1022d010 f i tilegen_class_factories.obj
 0002:000d8080       ??0?$CTilegenClassFactory@V?$ITilegenExpression@PBVCTilegenState@@@@VCTilegenExpression_VariableState@@@@QAE@XZ 1022d080 f i tilegen_class_factories.obj
 0002:000d80e0       ?CreateInstance@?$CTilegenClassFactory@V?$ITilegenExpression@PBVCTilegenState@@@@VCTilegenExpression_VariableState@@@@UAEPAV?$ITilegenExpression@PBVCTilegenState@@@@XZ 1022d0e0 f i tilegen_class_factories.obj
 0002:000d8180       ??0CTilegenExpression_VariableState@@QAE@PAV?$ITilegenExpression@PBD@@_N@Z 1022d180 f i tilegen_class_factories.obj
 0002:000d81f0       ??_GCTilegenExpression_VariableState@@UAEPAXI@Z 1022d1f0 f i tilegen_class_factories.obj
 0002:000d81f0       ??_ECTilegenExpression_VariableState@@UAEPAXI@Z 1022d1f0 f i tilegen_class_factories.obj
 0002:000d8260       ??1CTilegenExpression_VariableState@@UAE@XZ 1022d260 f i tilegen_class_factories.obj
 0002:000d82b0       ??1?$CTilegenExpression_Variable@PBVCTilegenState@@@@UAE@XZ 1022d2b0 f i tilegen_class_factories.obj
 0002:000d8300       ??0?$CTilegenExpression_Variable@PBVCTilegenState@@@@QAE@PAV?$ITilegenExpression@PBD@@_N@Z 1022d300 f i tilegen_class_factories.obj
 0002:000d8380       ?Evaluate@?$CTilegenExpression_Variable@PBVCTilegenState@@@@UAEPBVCTilegenState@@PAVCFreeVariableMap@@@Z 1022d380 f i tilegen_class_factories.obj
 0002:000d8430       ?LoadFromKeyValues@?$CTilegenExpression_Variable@PBVCTilegenState@@@@UAE_NPAVKeyValues@@@Z 1022d430 f i tilegen_class_factories.obj
 0002:000d8540       ??_G?$CTilegenExpression_Variable@PBVCTilegenState@@@@UAEPAXI@Z 1022d540 f i tilegen_class_factories.obj
 0002:000d8540       ??_E?$CTilegenExpression_Variable@PBVCTilegenState@@@@UAEPAXI@Z 1022d540 f i tilegen_class_factories.obj
 0002:000d85b0       ??0?$CTilegenClassFactory@VITilegenAction@@VCTilegenAction_NestedActions@@@@QAE@XZ 1022d5b0 f i tilegen_class_factories.obj
 0002:000d8610       ??0?$ITilegenClassFactory@VITilegenAction@@@@QAE@XZ 1022d610 f i tilegen_class_factories.obj
 0002:000d8660       ?CreateInstance@?$CTilegenClassFactory@VITilegenAction@@VCTilegenAction_NestedActions@@@@UAEPAVITilegenAction@@XZ 1022d660 f i tilegen_class_factories.obj
 0002:000d86f0       ??0?$CTilegenClassFactory@VITilegenAction@@VCTilegenAction_SetVariableInt@@@@QAE@XZ 1022d6f0 f i tilegen_class_factories.obj
 0002:000d8750       ?CreateInstance@?$CTilegenClassFactory@VITilegenAction@@VCTilegenAction_SetVariableInt@@@@UAEPAVITilegenAction@@XZ 1022d750 f i tilegen_class_factories.obj
 0002:000d87e0       ??0CTilegenAction_SetVariableInt@@QAE@XZ 1022d7e0 f i tilegen_class_factories.obj
 0002:000d8850       ?OnBeginGeneration@CTilegenAction_SetVariable@@UAEXPAVCLayoutSystem@@@Z 1022d850 f i tilegen_class_factories.obj
 0002:000d88d0       ?OnStateChanged@CTilegenAction_SetVariable@@UAEXPAVCLayoutSystem@@@Z 1022d8d0 f i tilegen_class_factories.obj
 0002:000d8950       ?Execute@CTilegenAction_SetVariable@@UAEXPAVCLayoutSystem@@@Z 1022d950 f i tilegen_class_factories.obj
 0002:000d89e0       ?LoadFromKeyValues@?$CTilegenAction_SetVariableT@H@@UAE_NPAVKeyValues@@@Z 1022d9e0 f i tilegen_class_factories.obj
 0002:000d8aa0       ?LoadFromKeyValues@CTilegenAction_SetVariable@@UAE_NPAVKeyValues@@@Z 1022daa0 f i tilegen_class_factories.obj
 0002:000d8b80       ?InternalExecute@?$CTilegenAction_SetVariableT@H@@MAEXPAVCLayoutSystem@@@Z 1022db80 f i tilegen_class_factories.obj
 0002:000d8c50       ??_ECTilegenAction_SetVariableInt@@UAEPAXI@Z 1022dc50 f i tilegen_class_factories.obj
 0002:000d8c50       ??_GCTilegenAction_SetVariableInt@@UAEPAXI@Z 1022dc50 f i tilegen_class_factories.obj
 0002:000d8cc0       ??1CTilegenAction_SetVariableInt@@UAE@XZ 1022dcc0 f i tilegen_class_factories.obj
 0002:000d8d10       ??1?$CTilegenAction_SetVariableT@H@@UAE@XZ 1022dd10 f i tilegen_class_factories.obj
 0002:000d8dd0       ??1CTilegenAction_SetVariable@@UAE@XZ 1022ddd0 f i tilegen_class_factories.obj
 0002:000d8e90       ??_ECTilegenAction_SetVariable@@UAEPAXI@Z 1022de90 f i tilegen_class_factories.obj
 0002:000d8e90       ??_GCTilegenAction_SetVariable@@UAEPAXI@Z 1022de90 f i tilegen_class_factories.obj
 0002:000d8f00       ??_G?$CTilegenAction_SetVariableT@H@@UAEPAXI@Z 1022df00 f i tilegen_class_factories.obj
 0002:000d8f00       ??_E?$CTilegenAction_SetVariableT@H@@UAEPAXI@Z 1022df00 f i tilegen_class_factories.obj
 0002:000d8f70       ??0?$CTilegenAction_SetVariableT@H@@QAE@PAV?$ITilegenExpression@PBD@@PAV?$ITilegenExpression@H@@@Z 1022df70 f i tilegen_class_factories.obj
 0002:000d8fe0       ??0CTilegenAction_SetVariable@@QAE@PAV?$ITilegenExpression@PBD@@@Z 1022dfe0 f i tilegen_class_factories.obj
 0002:000d9060       ??0?$CTilegenClassFactory@VITilegenAction@@VCTilegenAction_SetVariableString@@@@QAE@XZ 1022e060 f i tilegen_class_factories.obj
 0002:000d90c0       ?CreateInstance@?$CTilegenClassFactory@VITilegenAction@@VCTilegenAction_SetVariableString@@@@UAEPAVITilegenAction@@XZ 1022e0c0 f i tilegen_class_factories.obj
 0002:000d9150       ??0CTilegenAction_SetVariableString@@QAE@XZ 1022e150 f i tilegen_class_factories.obj
 0002:000d91c0       ?LoadFromKeyValues@?$CTilegenAction_SetVariableT@PBD@@UAE_NPAVKeyValues@@@Z 1022e1c0 f i tilegen_class_factories.obj
 0002:000d9280       ?InternalExecute@?$CTilegenAction_SetVariableT@PBD@@MAEXPAVCLayoutSystem@@@Z 1022e280 f i tilegen_class_factories.obj
 0002:000d9350       ??_ECTilegenAction_SetVariableString@@UAEPAXI@Z 1022e350 f i tilegen_class_factories.obj
 0002:000d9350       ??_GCTilegenAction_SetVariableString@@UAEPAXI@Z 1022e350 f i tilegen_class_factories.obj
 0002:000d93c0       ??1CTilegenAction_SetVariableString@@UAE@XZ 1022e3c0 f i tilegen_class_factories.obj
 0002:000d9410       ??1?$CTilegenAction_SetVariableT@PBD@@UAE@XZ 1022e410 f i tilegen_class_factories.obj
 0002:000d94d0       ??_G?$CTilegenAction_SetVariableT@PBD@@UAEPAXI@Z 1022e4d0 f i tilegen_class_factories.obj
 0002:000d94d0       ??_E?$CTilegenAction_SetVariableT@PBD@@UAEPAXI@Z 1022e4d0 f i tilegen_class_factories.obj
 0002:000d9540       ??0?$CTilegenAction_SetVariableT@PBD@@QAE@PAV?$ITilegenExpression@PBD@@0@Z 1022e540 f i tilegen_class_factories.obj
 0002:000d95b0       ??0?$CTilegenClassFactory@VITilegenAction@@VCTilegenAction_SetVariableBoolExpression@@@@QAE@XZ 1022e5b0 f i tilegen_class_factories.obj
 0002:000d9610       ?CreateInstance@?$CTilegenClassFactory@VITilegenAction@@VCTilegenAction_SetVariableBoolExpression@@@@UAEPAVITilegenAction@@XZ 1022e610 f i tilegen_class_factories.obj
 0002:000d96a0       ??0CTilegenAction_SetVariableBoolExpression@@QAE@XZ 1022e6a0 f i tilegen_class_factories.obj
 0002:000d9710       ?InternalExecute@CTilegenAction_SetVariableBoolExpression@@MAEXPAVCLayoutSystem@@@Z 1022e710 f i tilegen_class_factories.obj
 0002:000d97b0       ?LoadFromKeyValues@?$CTilegenAction_SetVariableT@_N@@UAE_NPAVKeyValues@@@Z 1022e7b0 f i tilegen_class_factories.obj
 0002:000d9870       ??_GCTilegenAction_SetVariableBoolExpression@@UAEPAXI@Z 1022e870 f i tilegen_class_factories.obj
 0002:000d9870       ??_ECTilegenAction_SetVariableBoolExpression@@UAEPAXI@Z 1022e870 f i tilegen_class_factories.obj
 0002:000d98e0       ??1CTilegenAction_SetVariableBoolExpression@@UAE@XZ 1022e8e0 f i tilegen_class_factories.obj
 0002:000d9930       ??1?$CTilegenAction_SetVariableT@_N@@UAE@XZ 1022e930 f i tilegen_class_factories.obj
 0002:000d99f0       ?InternalExecute@?$CTilegenAction_SetVariableT@_N@@MAEXPAVCLayoutSystem@@@Z 1022e9f0 f i tilegen_class_factories.obj
 0002:000d9ac0       ??_G?$CTilegenAction_SetVariableT@_N@@UAEPAXI@Z 1022eac0 f i tilegen_class_factories.obj
 0002:000d9ac0       ??_E?$CTilegenAction_SetVariableT@_N@@UAEPAXI@Z 1022eac0 f i tilegen_class_factories.obj
 0002:000d9b30       ??0?$CTilegenAction_SetVariableT@_N@@QAE@PAV?$ITilegenExpression@PBD@@PAV?$ITilegenExpression@_N@@@Z 1022eb30 f i tilegen_class_factories.obj
 0002:000d9ba0       ??0?$CTilegenClassFactory@VITilegenAction@@VCTilegenAction_SetVariableAction@@@@QAE@XZ 1022eba0 f i tilegen_class_factories.obj
 0002:000d9c00       ?CreateInstance@?$CTilegenClassFactory@VITilegenAction@@VCTilegenAction_SetVariableAction@@@@UAEPAVITilegenAction@@XZ 1022ec00 f i tilegen_class_factories.obj
 0002:000d9ca0       ??0CTilegenAction_SetVariableAction@@QAE@PAV?$ITilegenExpression@PBD@@PAVITilegenAction@@@Z 1022eca0 f i tilegen_class_factories.obj
 0002:000d9d10       ?LoadFromKeyValues@CTilegenAction_SetVariableAction@@UAE_NPAVKeyValues@@@Z 1022ed10 f i tilegen_class_factories.obj
 0002:000d9ea0       ?InternalExecute@CTilegenAction_SetVariableAction@@MAEXPAVCLayoutSystem@@@Z 1022eea0 f i tilegen_class_factories.obj
 0002:000d9f40       ??_GCTilegenAction_SetVariableAction@@UAEPAXI@Z 1022ef40 f i tilegen_class_factories.obj
 0002:000d9f40       ??_ECTilegenAction_SetVariableAction@@UAEPAXI@Z 1022ef40 f i tilegen_class_factories.obj
 0002:000d9fb0       ??1CTilegenAction_SetVariableAction@@UAE@XZ 1022efb0 f i tilegen_class_factories.obj
 0002:000da070       ??0?$CTilegenClassFactory@VITilegenAction@@VCTilegenAction_AddRoomCandidates@@@@QAE@XZ 1022f070 f i tilegen_class_factories.obj
 0002:000da0d0       ?CreateInstance@?$CTilegenClassFactory@VITilegenAction@@VCTilegenAction_AddRoomCandidates@@@@UAEPAVITilegenAction@@XZ 1022f0d0 f i tilegen_class_factories.obj
 0002:000da160       ??0?$CTilegenClassFactory@VITilegenAction@@VCTilegenAction_AddRoomCandidatesAtLocation@@@@QAE@XZ 1022f160 f i tilegen_class_factories.obj
 0002:000da1c0       ?CreateInstance@?$CTilegenClassFactory@VITilegenAction@@VCTilegenAction_AddRoomCandidatesAtLocation@@@@UAEPAVITilegenAction@@XZ 1022f1c0 f i tilegen_class_factories.obj
 0002:000da260       ??0?$CTilegenClassFactory@VITilegenAction@@VCTilegenAction_ChooseCandidate@@@@QAE@XZ 1022f260 f i tilegen_class_factories.obj
 0002:000da2c0       ?CreateInstance@?$CTilegenClassFactory@VITilegenAction@@VCTilegenAction_ChooseCandidate@@@@UAEPAVITilegenAction@@XZ 1022f2c0 f i tilegen_class_factories.obj
 0002:000da360       ??0?$CTilegenClassFactory@VITilegenAction@@VCTilegenAction_FilterCandidatesByDirection@@@@QAE@XZ 1022f360 f i tilegen_class_factories.obj
 0002:000da3c0       ?CreateInstance@?$CTilegenClassFactory@VITilegenAction@@VCTilegenAction_FilterCandidatesByDirection@@@@UAEPAVITilegenAction@@XZ 1022f3c0 f i tilegen_class_factories.obj
 0002:000da460       ??0?$CTilegenClassFactory@VITilegenAction@@VCTilegenAction_FilterCandidatesForLinearGrowth@@@@QAE@XZ 1022f460 f i tilegen_class_factories.obj
 0002:000da4c0       ?CreateInstance@?$CTilegenClassFactory@VITilegenAction@@VCTilegenAction_FilterCandidatesForLinearGrowth@@@@UAEPAVITilegenAction@@XZ 1022f4c0 f i tilegen_class_factories.obj
 0002:000da550       ??0CTilegenAction_FilterCandidatesForLinearGrowth@@QAE@XZ 1022f550 f i tilegen_class_factories.obj
 0002:000da5b0       ??_GCTilegenAction_FilterCandidatesForLinearGrowth@@UAEPAXI@Z 1022f5b0 f i tilegen_class_factories.obj
 0002:000da5b0       ??_ECTilegenAction_FilterCandidatesForLinearGrowth@@UAEPAXI@Z 1022f5b0 f i tilegen_class_factories.obj
 0002:000da620       ??1CTilegenAction_FilterCandidatesForLinearGrowth@@UAE@XZ 1022f620 f i tilegen_class_factories.obj
 0002:000da680       ??0?$CTilegenClassFactory@VITilegenAction@@VCTilegenAction_SwitchState@@@@QAE@XZ 1022f680 f i tilegen_class_factories.obj
 0002:000da6e0       ?CreateInstance@?$CTilegenClassFactory@VITilegenAction@@VCTilegenAction_SwitchState@@@@UAEPAVITilegenAction@@XZ 1022f6e0 f i tilegen_class_factories.obj
 0002:000da770       ??0?$CTilegenClassFactory@VITilegenAction@@VCTilegenAction_FinishGeneration@@@@QAE@XZ 1022f770 f i tilegen_class_factories.obj
 0002:000da7d0       ?CreateInstance@?$CTilegenClassFactory@VITilegenAction@@VCTilegenAction_FinishGeneration@@@@UAEPAVITilegenAction@@XZ 1022f7d0 f i tilegen_class_factories.obj
 0002:000da860       ??0CTilegenAction_FinishGeneration@@QAE@XZ 1022f860 f i tilegen_class_factories.obj
 0002:000da8c0       ?LoadFromKeyValues@CTilegenAction_FinishGeneration@@UAE_NPAVKeyValues@@@Z 1022f8c0 f i tilegen_class_factories.obj
 0002:000da900       ??_GCTilegenAction_FinishGeneration@@UAEPAXI@Z 1022f900 f i tilegen_class_factories.obj
 0002:000da900       ??_ECTilegenAction_FinishGeneration@@UAEPAXI@Z 1022f900 f i tilegen_class_factories.obj
 0002:000da970       ??1CTilegenAction_FinishGeneration@@UAE@XZ 1022f970 f i tilegen_class_factories.obj
 0002:000da9c0       ??0?$CTilegenClassFactory@VITilegenAction@@VCTilegenAction_EpicFail@@@@QAE@XZ 1022f9c0 f i tilegen_class_factories.obj
 0002:000daa20       ?CreateInstance@?$CTilegenClassFactory@VITilegenAction@@VCTilegenAction_EpicFail@@@@UAEPAVITilegenAction@@XZ 1022fa20 f i tilegen_class_factories.obj
 0002:000daab0       ??0CTilegenAction_EpicFail@@QAE@XZ 1022fab0 f i tilegen_class_factories.obj
 0002:000dab10       ?LoadFromKeyValues@CTilegenAction_EpicFail@@UAE_NPAVKeyValues@@@Z 1022fb10 f i tilegen_class_factories.obj
 0002:000dab50       ??_ECTilegenAction_EpicFail@@UAEPAXI@Z 1022fb50 f i tilegen_class_factories.obj
 0002:000dab50       ??_GCTilegenAction_EpicFail@@UAEPAXI@Z 1022fb50 f i tilegen_class_factories.obj
 0002:000dabc0       ??1CTilegenAction_EpicFail@@UAE@XZ 1022fbc0 f i tilegen_class_factories.obj
 0002:000dac10       ??0?$CTilegenClassFactory@VITilegenAction@@VCTilegenAction_EnsureRoomExists@@@@QAE@XZ 1022fc10 f i tilegen_class_factories.obj
 0002:000dac70       ?CreateInstance@?$CTilegenClassFactory@VITilegenAction@@VCTilegenAction_EnsureRoomExists@@@@UAEPAVITilegenAction@@XZ 1022fc70 f i tilegen_class_factories.obj
 0002:000dad00       ??0CTilegenAction_EnsureRoomExists@@QAE@XZ 1022fd00 f i tilegen_class_factories.obj
 0002:000dad60       ??_GCTilegenAction_EnsureRoomExists@@UAEPAXI@Z 1022fd60 f i tilegen_class_factories.obj
 0002:000dad60       ??_ECTilegenAction_EnsureRoomExists@@UAEPAXI@Z 1022fd60 f i tilegen_class_factories.obj
 0002:000dadd0       ??1CTilegenAction_EnsureRoomExists@@UAE@XZ 1022fdd0 f i tilegen_class_factories.obj
 0002:000dae20       ??0?$CTilegenClassFactory@VITilegenAction@@VCTilegenAction_AddConnectorRoomCandidates@@@@QAE@XZ 1022fe20 f i tilegen_class_factories.obj
 0002:000dae80       ?CreateInstance@?$CTilegenClassFactory@VITilegenAction@@VCTilegenAction_AddConnectorRoomCandidates@@@@UAEPAVITilegenAction@@XZ 1022fe80 f i tilegen_class_factories.obj
 0002:000daf20       ??0?$CTilegenClassFactory@VITilegenAction@@VCTilegenAction_PlaceComponent@@@@QAE@XZ 1022ff20 f i tilegen_class_factories.obj
 0002:000daf80       ?CreateInstance@?$CTilegenClassFactory@VITilegenAction@@VCTilegenAction_PlaceComponent@@@@UAEPAVITilegenAction@@XZ 1022ff80 f i tilegen_class_factories.obj
 0002:000db010       ??0?$CTilegenClassFactory@VITilegenAction@@VCTilegenAction_AddInstances@@@@QAE@XZ 10230010 f i tilegen_class_factories.obj
 0002:000db070       ?CreateInstance@?$CTilegenClassFactory@VITilegenAction@@VCTilegenAction_AddInstances@@@@UAEPAVITilegenAction@@XZ 10230070 f i tilegen_class_factories.obj
 0002:000db110       ??0?$CTilegenClassFactory@VITilegenAction@@VCTilegenAction_AddInstanceToRoom@@@@QAE@XZ 10230110 f i tilegen_class_factories.obj
 0002:000db170       ?CreateInstance@?$CTilegenClassFactory@VITilegenAction@@VCTilegenAction_AddInstanceToRoom@@@@UAEPAVITilegenAction@@XZ 10230170 f i tilegen_class_factories.obj
 0002:000db210       ??0?$CTilegenClassFactory@VITilegenAction@@VCTilegenAction_LoadLayout@@@@QAE@XZ 10230210 f i tilegen_class_factories.obj
 0002:000db270       ?CreateInstance@?$CTilegenClassFactory@VITilegenAction@@VCTilegenAction_LoadLayout@@@@UAEPAVITilegenAction@@XZ 10230270 f i tilegen_class_factories.obj
 0002:000db310       ??0?$CTilegenClassFactory@V?$ITilegenRange@PBVCExit@@@@VCTilegenRange_NewOpenExits@@@@QAE@XZ 10230310 f i tilegen_class_factories.obj
 0002:000db370       ??0?$ITilegenClassFactory@V?$ITilegenRange@PBVCExit@@@@@@QAE@XZ 10230370 f i tilegen_class_factories.obj
 0002:000db3c0       ?CreateInstance@?$CTilegenClassFactory@V?$ITilegenRange@PBVCExit@@@@VCTilegenRange_NewOpenExits@@@@UAEPAV?$ITilegenRange@PBVCExit@@@@XZ 102303c0 f i tilegen_class_factories.obj
 0002:000db460       ??0?$CTilegenClassFactory@V?$ITilegenRange@PBVCExit@@@@VCTilegenRange_ClosedExits@@@@QAE@XZ 10230460 f i tilegen_class_factories.obj
 0002:000db4c0       ?CreateInstance@?$CTilegenClassFactory@V?$ITilegenRange@PBVCExit@@@@VCTilegenRange_ClosedExits@@@@UAEPAV?$ITilegenRange@PBVCExit@@@@XZ 102304c0 f i tilegen_class_factories.obj
 0002:000db560       ??1?$CUtlVector@PAV?$ITilegenClassFactory@V?$ITilegenExpression@_N@@@@V?$CUtlMemory@PAV?$ITilegenClassFactory@V?$ITilegenExpression@_N@@@@H@@@@QAE@XZ 10230560 f i tilegen_class_factories.obj
 0002:000db5c0       ?Purge@?$CUtlVector@PAV?$ITilegenClassFactory@V?$ITilegenExpression@_N@@@@V?$CUtlMemory@PAV?$ITilegenClassFactory@V?$ITilegenExpression@_N@@@@H@@@@QAEXXZ 102305c0 f i tilegen_class_factories.obj
 0002:000db630       ??1?$CUtlMemory@PAV?$ITilegenClassFactory@V?$ITilegenExpression@_N@@@@H@@QAE@XZ 10230630 f i tilegen_class_factories.obj
 0002:000db680       ?RemoveAll@?$CUtlVector@PAV?$ITilegenClassFactory@V?$ITilegenExpression@_N@@@@V?$CUtlMemory@PAV?$ITilegenClassFactory@V?$ITilegenExpression@_N@@@@H@@@@QAEXXZ 10230680 f i tilegen_class_factories.obj
 0002:000db710       ?Purge@?$CUtlMemory@PAV?$ITilegenClassFactory@V?$ITilegenExpression@_N@@@@H@@QAEXXZ 10230710 f i tilegen_class_factories.obj
 0002:000db7c0       ??$Destruct@PAV?$ITilegenClassFactory@V?$ITilegenExpression@_N@@@@@@YAXPAPAV?$ITilegenClassFactory@V?$ITilegenExpression@_N@@@@@Z 102307c0 f i tilegen_class_factories.obj
 0002:000db820       ??1?$CUtlVector@PAV?$ITilegenClassFactory@V?$ITilegenExpression@H@@@@V?$CUtlMemory@PAV?$ITilegenClassFactory@V?$ITilegenExpression@H@@@@H@@@@QAE@XZ 10230820 f i tilegen_class_factories.obj
 0002:000db880       ?Purge@?$CUtlVector@PAV?$ITilegenClassFactory@V?$ITilegenExpression@H@@@@V?$CUtlMemory@PAV?$ITilegenClassFactory@V?$ITilegenExpression@H@@@@H@@@@QAEXXZ 10230880 f i tilegen_class_factories.obj
 0002:000db8f0       ??1?$CUtlMemory@PAV?$ITilegenClassFactory@V?$ITilegenExpression@H@@@@H@@QAE@XZ 102308f0 f i tilegen_class_factories.obj
 0002:000db940       ?RemoveAll@?$CUtlVector@PAV?$ITilegenClassFactory@V?$ITilegenExpression@H@@@@V?$CUtlMemory@PAV?$ITilegenClassFactory@V?$ITilegenExpression@H@@@@H@@@@QAEXXZ 10230940 f i tilegen_class_factories.obj
 0002:000db9d0       ?Purge@?$CUtlMemory@PAV?$ITilegenClassFactory@V?$ITilegenExpression@H@@@@H@@QAEXXZ 102309d0 f i tilegen_class_factories.obj
 0002:000dba80       ??$Destruct@PAV?$ITilegenClassFactory@V?$ITilegenExpression@H@@@@@@YAXPAPAV?$ITilegenClassFactory@V?$ITilegenExpression@H@@@@@Z 10230a80 f i tilegen_class_factories.obj
 0002:000dbae0       ??1?$CUtlVector@PAV?$ITilegenClassFactory@V?$ITilegenExpression@M@@@@V?$CUtlMemory@PAV?$ITilegenClassFactory@V?$ITilegenExpression@M@@@@H@@@@QAE@XZ 10230ae0 f i tilegen_class_factories.obj
 0002:000dbb40       ?Purge@?$CUtlVector@PAV?$ITilegenClassFactory@V?$ITilegenExpression@M@@@@V?$CUtlMemory@PAV?$ITilegenClassFactory@V?$ITilegenExpression@M@@@@H@@@@QAEXXZ 10230b40 f i tilegen_class_factories.obj
 0002:000dbbb0       ??1?$CUtlMemory@PAV?$ITilegenClassFactory@V?$ITilegenExpression@M@@@@H@@QAE@XZ 10230bb0 f i tilegen_class_factories.obj
 0002:000dbc00       ?RemoveAll@?$CUtlVector@PAV?$ITilegenClassFactory@V?$ITilegenExpression@M@@@@V?$CUtlMemory@PAV?$ITilegenClassFactory@V?$ITilegenExpression@M@@@@H@@@@QAEXXZ 10230c00 f i tilegen_class_factories.obj
 0002:000dbc90       ?Purge@?$CUtlMemory@PAV?$ITilegenClassFactory@V?$ITilegenExpression@M@@@@H@@QAEXXZ 10230c90 f i tilegen_class_factories.obj
 0002:000dbd40       ??$Destruct@PAV?$ITilegenClassFactory@V?$ITilegenExpression@M@@@@@@YAXPAPAV?$ITilegenClassFactory@V?$ITilegenExpression@M@@@@@Z 10230d40 f i tilegen_class_factories.obj
 0002:000dbda0       ??1?$CUtlVector@PAV?$ITilegenClassFactory@V?$ITilegenExpression@PBD@@@@V?$CUtlMemory@PAV?$ITilegenClassFactory@V?$ITilegenExpression@PBD@@@@H@@@@QAE@XZ 10230da0 f i tilegen_class_factories.obj
 0002:000dbe00       ?Purge@?$CUtlVector@PAV?$ITilegenClassFactory@V?$ITilegenExpression@PBD@@@@V?$CUtlMemory@PAV?$ITilegenClassFactory@V?$ITilegenExpression@PBD@@@@H@@@@QAEXXZ 10230e00 f i tilegen_class_factories.obj
 0002:000dbe70       ??1?$CUtlMemory@PAV?$ITilegenClassFactory@V?$ITilegenExpression@PBD@@@@H@@QAE@XZ 10230e70 f i tilegen_class_factories.obj
 0002:000dbec0       ?RemoveAll@?$CUtlVector@PAV?$ITilegenClassFactory@V?$ITilegenExpression@PBD@@@@V?$CUtlMemory@PAV?$ITilegenClassFactory@V?$ITilegenExpression@PBD@@@@H@@@@QAEXXZ 10230ec0 f i tilegen_class_factories.obj
 0002:000dbf50       ?Purge@?$CUtlMemory@PAV?$ITilegenClassFactory@V?$ITilegenExpression@PBD@@@@H@@QAEXXZ 10230f50 f i tilegen_class_factories.obj
 0002:000dc000       ??$Destruct@PAV?$ITilegenClassFactory@V?$ITilegenExpression@PBD@@@@@@YAXPAPAV?$ITilegenClassFactory@V?$ITilegenExpression@PBD@@@@@Z 10231000 f i tilegen_class_factories.obj
 0002:000dc060       ??1?$CUtlVector@PAV?$ITilegenClassFactory@V?$ITilegenExpression@PBVCExit@@@@@@V?$CUtlMemory@PAV?$ITilegenClassFactory@V?$ITilegenExpression@PBVCExit@@@@@@H@@@@QAE@XZ 10231060 f i tilegen_class_factories.obj
 0002:000dc0c0       ?Purge@?$CUtlVector@PAV?$ITilegenClassFactory@V?$ITilegenExpression@PBVCExit@@@@@@V?$CUtlMemory@PAV?$ITilegenClassFactory@V?$ITilegenExpression@PBVCExit@@@@@@H@@@@QAEXXZ 102310c0 f i tilegen_class_factories.obj
 0002:000dc130       ??1?$CUtlMemory@PAV?$ITilegenClassFactory@V?$ITilegenExpression@PBVCExit@@@@@@H@@QAE@XZ 10231130 f i tilegen_class_factories.obj
 0002:000dc180       ?RemoveAll@?$CUtlVector@PAV?$ITilegenClassFactory@V?$ITilegenExpression@PBVCExit@@@@@@V?$CUtlMemory@PAV?$ITilegenClassFactory@V?$ITilegenExpression@PBVCExit@@@@@@H@@@@QAEXXZ 10231180 f i tilegen_class_factories.obj
 0002:000dc210       ?Purge@?$CUtlMemory@PAV?$ITilegenClassFactory@V?$ITilegenExpression@PBVCExit@@@@@@H@@QAEXXZ 10231210 f i tilegen_class_factories.obj
 0002:000dc2c0       ??$Destruct@PAV?$ITilegenClassFactory@V?$ITilegenExpression@PBVCExit@@@@@@@@YAXPAPAV?$ITilegenClassFactory@V?$ITilegenExpression@PBVCExit@@@@@@@Z 102312c0 f i tilegen_class_factories.obj
 0002:000dc320       ??1?$CUtlVector@PAV?$ITilegenClassFactory@V?$ITilegenExpression@PBVCRoomTemplate@@@@@@V?$CUtlMemory@PAV?$ITilegenClassFactory@V?$ITilegenExpression@PBVCRoomTemplate@@@@@@H@@@@QAE@XZ 10231320 f i tilegen_class_factories.obj
 0002:000dc380       ?Purge@?$CUtlVector@PAV?$ITilegenClassFactory@V?$ITilegenExpression@PBVCRoomTemplate@@@@@@V?$CUtlMemory@PAV?$ITilegenClassFactory@V?$ITilegenExpression@PBVCRoomTemplate@@@@@@H@@@@QAEXXZ 10231380 f i tilegen_class_factories.obj
 0002:000dc3f0       ??1?$CUtlMemory@PAV?$ITilegenClassFactory@V?$ITilegenExpression@PBVCRoomTemplate@@@@@@H@@QAE@XZ 102313f0 f i tilegen_class_factories.obj
 0002:000dc440       ?RemoveAll@?$CUtlVector@PAV?$ITilegenClassFactory@V?$ITilegenExpression@PBVCRoomTemplate@@@@@@V?$CUtlMemory@PAV?$ITilegenClassFactory@V?$ITilegenExpression@PBVCRoomTemplate@@@@@@H@@@@QAEXXZ 10231440 f i tilegen_class_factories.obj
 0002:000dc4d0       ?Purge@?$CUtlMemory@PAV?$ITilegenClassFactory@V?$ITilegenExpression@PBVCRoomTemplate@@@@@@H@@QAEXXZ 102314d0 f i tilegen_class_factories.obj
 0002:000dc580       ??$Destruct@PAV?$ITilegenClassFactory@V?$ITilegenExpression@PBVCRoomTemplate@@@@@@@@YAXPAPAV?$ITilegenClassFactory@V?$ITilegenExpression@PBVCRoomTemplate@@@@@@@Z 10231580 f i tilegen_class_factories.obj
 0002:000dc5e0       ??1?$CUtlVector@PAV?$ITilegenClassFactory@V?$ITilegenExpression@PBVCRoom@@@@@@V?$CUtlMemory@PAV?$ITilegenClassFactory@V?$ITilegenExpression@PBVCRoom@@@@@@H@@@@QAE@XZ 102315e0 f i tilegen_class_factories.obj
 0002:000dc640       ?Purge@?$CUtlVector@PAV?$ITilegenClassFactory@V?$ITilegenExpression@PBVCRoom@@@@@@V?$CUtlMemory@PAV?$ITilegenClassFactory@V?$ITilegenExpression@PBVCRoom@@@@@@H@@@@QAEXXZ 10231640 f i tilegen_class_factories.obj
 0002:000dc6b0       ??1?$CUtlMemory@PAV?$ITilegenClassFactory@V?$ITilegenExpression@PBVCRoom@@@@@@H@@QAE@XZ 102316b0 f i tilegen_class_factories.obj
 0002:000dc700       ?RemoveAll@?$CUtlVector@PAV?$ITilegenClassFactory@V?$ITilegenExpression@PBVCRoom@@@@@@V?$CUtlMemory@PAV?$ITilegenClassFactory@V?$ITilegenExpression@PBVCRoom@@@@@@H@@@@QAEXXZ 10231700 f i tilegen_class_factories.obj
 0002:000dc790       ?Purge@?$CUtlMemory@PAV?$ITilegenClassFactory@V?$ITilegenExpression@PBVCRoom@@@@@@H@@QAEXXZ 10231790 f i tilegen_class_factories.obj
 0002:000dc840       ??$Destruct@PAV?$ITilegenClassFactory@V?$ITilegenExpression@PBVCRoom@@@@@@@@YAXPAPAV?$ITilegenClassFactory@V?$ITilegenExpression@PBVCRoom@@@@@@@Z 10231840 f i tilegen_class_factories.obj
 0002:000dc8a0       ??1?$CUtlVector@PAV?$ITilegenClassFactory@V?$ITilegenExpression@PBVCRoomCandidate@@@@@@V?$CUtlMemory@PAV?$ITilegenClassFactory@V?$ITilegenExpression@PBVCRoomCandidate@@@@@@H@@@@QAE@XZ 102318a0 f i tilegen_class_factories.obj
 0002:000dc900       ?Purge@?$CUtlVector@PAV?$ITilegenClassFactory@V?$ITilegenExpression@PBVCRoomCandidate@@@@@@V?$CUtlMemory@PAV?$ITilegenClassFactory@V?$ITilegenExpression@PBVCRoomCandidate@@@@@@H@@@@QAEXXZ 10231900 f i tilegen_class_factories.obj
 0002:000dc970       ??1?$CUtlMemory@PAV?$ITilegenClassFactory@V?$ITilegenExpression@PBVCRoomCandidate@@@@@@H@@QAE@XZ 10231970 f i tilegen_class_factories.obj
 0002:000dc9c0       ?RemoveAll@?$CUtlVector@PAV?$ITilegenClassFactory@V?$ITilegenExpression@PBVCRoomCandidate@@@@@@V?$CUtlMemory@PAV?$ITilegenClassFactory@V?$ITilegenExpression@PBVCRoomCandidate@@@@@@H@@@@QAEXXZ 102319c0 f i tilegen_class_factories.obj
 0002:000dca50       ?Purge@?$CUtlMemory@PAV?$ITilegenClassFactory@V?$ITilegenExpression@PBVCRoomCandidate@@@@@@H@@QAEXXZ 10231a50 f i tilegen_class_factories.obj
 0002:000dcb00       ??$Destruct@PAV?$ITilegenClassFactory@V?$ITilegenExpression@PBVCRoomCandidate@@@@@@@@YAXPAPAV?$ITilegenClassFactory@V?$ITilegenExpression@PBVCRoomCandidate@@@@@@@Z 10231b00 f i tilegen_class_factories.obj
 0002:000dcb60       ??1?$CUtlVector@PAV?$ITilegenClassFactory@V?$ITilegenExpression@PAV?$ITilegenRange@PBVCExit@@@@@@@@V?$CUtlMemory@PAV?$ITilegenClassFactory@V?$ITilegenExpression@PAV?$ITilegenRange@PBVCExit@@@@@@@@H@@@@QAE@XZ 10231b60 f i tilegen_class_factories.obj
 0002:000dcbc0       ?Purge@?$CUtlVector@PAV?$ITilegenClassFactory@V?$ITilegenExpression@PAV?$ITilegenRange@PBVCExit@@@@@@@@V?$CUtlMemory@PAV?$ITilegenClassFactory@V?$ITilegenExpression@PAV?$ITilegenRange@PBVCExit@@@@@@@@H@@@@QAEXXZ 10231bc0 f i tilegen_class_factories.obj
 0002:000dcc30       ??1?$CUtlMemory@PAV?$ITilegenClassFactory@V?$ITilegenExpression@PAV?$ITilegenRange@PBVCExit@@@@@@@@H@@QAE@XZ 10231c30 f i tilegen_class_factories.obj
 0002:000dcc80       ?RemoveAll@?$CUtlVector@PAV?$ITilegenClassFactory@V?$ITilegenExpression@PAV?$ITilegenRange@PBVCExit@@@@@@@@V?$CUtlMemory@PAV?$ITilegenClassFactory@V?$ITilegenExpression@PAV?$ITilegenRange@PBVCExit@@@@@@@@H@@@@QAEXXZ 10231c80 f i tilegen_class_factories.obj
 0002:000dcd10       ?Purge@?$CUtlMemory@PAV?$ITilegenClassFactory@V?$ITilegenExpression@PAV?$ITilegenRange@PBVCExit@@@@@@@@H@@QAEXXZ 10231d10 f i tilegen_class_factories.obj
 0002:000dcdc0       ?Element@?$CUtlVector@PAV?$ITilegenClassFactory@V?$ITilegenExpression@PAV?$ITilegenRange@PBVCExit@@@@@@@@V?$CUtlMemory@PAV?$ITilegenClassFactory@V?$ITilegenExpression@PAV?$ITilegenRange@PBVCExit@@@@@@@@H@@@@QAEAAPAV?$ITilegenClassFactory@V?$ITilegenExpression@PAV?$ITilegenRange@PBVCExit@@@@@@@@H@Z 10231dc0 f i tilegen_class_factories.obj
 0002:000dcef0       ??$Destruct@PAV?$ITilegenClassFactory@V?$ITilegenExpression@PAV?$ITilegenRange@PBVCExit@@@@@@@@@@YAXPAPAV?$ITilegenClassFactory@V?$ITilegenExpression@PAV?$ITilegenRange@PBVCExit@@@@@@@@@Z 10231ef0 f i tilegen_class_factories.obj
 0002:000dcf50       ?IsExternallyAllocated@?$CUtlMemory@PAV?$ITilegenClassFactory@V?$ITilegenExpression@PAV?$ITilegenRange@PBVCExit@@@@@@@@H@@QBE_NXZ 10231f50 f i tilegen_class_factories.obj
 0002:000dcfa0       ??1?$CUtlVector@PAV?$ITilegenClassFactory@V?$ITilegenExpression@PBVCTilegenState@@@@@@V?$CUtlMemory@PAV?$ITilegenClassFactory@V?$ITilegenExpression@PBVCTilegenState@@@@@@H@@@@QAE@XZ 10231fa0 f i tilegen_class_factories.obj
 0002:000dd000       ?Purge@?$CUtlVector@PAV?$ITilegenClassFactory@V?$ITilegenExpression@PBVCTilegenState@@@@@@V?$CUtlMemory@PAV?$ITilegenClassFactory@V?$ITilegenExpression@PBVCTilegenState@@@@@@H@@@@QAEXXZ 10232000 f i tilegen_class_factories.obj
 0002:000dd070       ??1?$CUtlMemory@PAV?$ITilegenClassFactory@V?$ITilegenExpression@PBVCTilegenState@@@@@@H@@QAE@XZ 10232070 f i tilegen_class_factories.obj
 0002:000dd0c0       ?RemoveAll@?$CUtlVector@PAV?$ITilegenClassFactory@V?$ITilegenExpression@PBVCTilegenState@@@@@@V?$CUtlMemory@PAV?$ITilegenClassFactory@V?$ITilegenExpression@PBVCTilegenState@@@@@@H@@@@QAEXXZ 102320c0 f i tilegen_class_factories.obj
 0002:000dd150       ?Purge@?$CUtlMemory@PAV?$ITilegenClassFactory@V?$ITilegenExpression@PBVCTilegenState@@@@@@H@@QAEXXZ 10232150 f i tilegen_class_factories.obj
 0002:000dd200       ??$Destruct@PAV?$ITilegenClassFactory@V?$ITilegenExpression@PBVCTilegenState@@@@@@@@YAXPAPAV?$ITilegenClassFactory@V?$ITilegenExpression@PBVCTilegenState@@@@@@@Z 10232200 f i tilegen_class_factories.obj
 0002:000dd260       ??1?$CUtlVector@PAV?$ITilegenClassFactory@VITilegenAction@@@@V?$CUtlMemory@PAV?$ITilegenClassFactory@VITilegenAction@@@@H@@@@QAE@XZ 10232260 f i tilegen_class_factories.obj
 0002:000dd2c0       ?Purge@?$CUtlVector@PAV?$ITilegenClassFactory@VITilegenAction@@@@V?$CUtlMemory@PAV?$ITilegenClassFactory@VITilegenAction@@@@H@@@@QAEXXZ 102322c0 f i tilegen_class_factories.obj
 0002:000dd330       ??1?$CUtlMemory@PAV?$ITilegenClassFactory@VITilegenAction@@@@H@@QAE@XZ 10232330 f i tilegen_class_factories.obj
 0002:000dd380       ?RemoveAll@?$CUtlVector@PAV?$ITilegenClassFactory@VITilegenAction@@@@V?$CUtlMemory@PAV?$ITilegenClassFactory@VITilegenAction@@@@H@@@@QAEXXZ 10232380 f i tilegen_class_factories.obj
 0002:000dd410       ?Purge@?$CUtlMemory@PAV?$ITilegenClassFactory@VITilegenAction@@@@H@@QAEXXZ 10232410 f i tilegen_class_factories.obj
 0002:000dd4c0       ??$Destruct@PAV?$ITilegenClassFactory@VITilegenAction@@@@@@YAXPAPAV?$ITilegenClassFactory@VITilegenAction@@@@@Z 102324c0 f i tilegen_class_factories.obj
 0002:000dd520       ??1?$CUtlVector@PAV?$ITilegenClassFactory@V?$ITilegenRange@PBVCExit@@@@@@V?$CUtlMemory@PAV?$ITilegenClassFactory@V?$ITilegenRange@PBVCExit@@@@@@H@@@@QAE@XZ 10232520 f i tilegen_class_factories.obj
 0002:000dd580       ?Purge@?$CUtlVector@PAV?$ITilegenClassFactory@V?$ITilegenRange@PBVCExit@@@@@@V?$CUtlMemory@PAV?$ITilegenClassFactory@V?$ITilegenRange@PBVCExit@@@@@@H@@@@QAEXXZ 10232580 f i tilegen_class_factories.obj
 0002:000dd5f0       ??1?$CUtlMemory@PAV?$ITilegenClassFactory@V?$ITilegenRange@PBVCExit@@@@@@H@@QAE@XZ 102325f0 f i tilegen_class_factories.obj
 0002:000dd640       ?RemoveAll@?$CUtlVector@PAV?$ITilegenClassFactory@V?$ITilegenRange@PBVCExit@@@@@@V?$CUtlMemory@PAV?$ITilegenClassFactory@V?$ITilegenRange@PBVCExit@@@@@@H@@@@QAEXXZ 10232640 f i tilegen_class_factories.obj
 0002:000dd6d0       ?Purge@?$CUtlMemory@PAV?$ITilegenClassFactory@V?$ITilegenRange@PBVCExit@@@@@@H@@QAEXXZ 102326d0 f i tilegen_class_factories.obj
 0002:000dd780       ??$Destruct@PAV?$ITilegenClassFactory@V?$ITilegenRange@PBVCExit@@@@@@@@YAXPAPAV?$ITilegenClassFactory@V?$ITilegenRange@PBVCExit@@@@@@@Z 10232780 f i tilegen_class_factories.obj
 0002:000dd7e0       ??0CTilegenEnum@@QAE@XZ    102327e0 f   tilegen_enum.obj
 0002:000dd850       ?LoadFromKeyValues@CTilegenEnum@@QAE_NPAVKeyValues@@@Z 10232850 f   tilegen_enum.obj
 0002:000ddb20       ?FindEntry@CTilegenEnum@@QBEHH@Z 10232b20 f   tilegen_enum.obj
 0002:000ddbc0       ?GetEnumStringFromValue@CTilegenEnum@@QBEPBDH@Z 10232bc0 f   tilegen_enum.obj
 0002:000ddc40       ??0?$CUtlVector@UEnumEntry_t@@V?$CUtlMemory@UEnumEntry_t@@H@@@@QAE@HH@Z 10232c40 f i tilegen_enum.obj
 0002:000ddcc0       ??A?$CUtlVector@UEnumEntry_t@@V?$CUtlMemory@UEnumEntry_t@@H@@@@QBEABUEnumEntry_t@@H@Z 10232cc0 f i tilegen_enum.obj
 0002:000dddf0       ??A?$CUtlVector@UEnumEntry_t@@V?$CUtlMemory@UEnumEntry_t@@H@@@@QAEAAUEnumEntry_t@@H@Z 10232df0 f i tilegen_enum.obj
 0002:000ddf20       ?Count@?$CUtlVector@UEnumEntry_t@@V?$CUtlMemory@UEnumEntry_t@@H@@@@QBEHXZ 10232f20 f i tilegen_enum.obj
 0002:000ddf60       ?AddToTail@?$CUtlVector@UEnumEntry_t@@V?$CUtlMemory@UEnumEntry_t@@H@@@@QAEHABUEnumEntry_t@@@Z 10232f60 f i tilegen_enum.obj
 0002:000de0d0       ?Base@?$CUtlVector@UEnumEntry_t@@V?$CUtlMemory@UEnumEntry_t@@H@@@@QAEPAUEnumEntry_t@@XZ 102330d0 f i tilegen_enum.obj
 0002:000de120       ?ResetDbgInfo@?$CUtlVector@UEnumEntry_t@@V?$CUtlMemory@UEnumEntry_t@@H@@@@IAEXXZ 10233120 f i tilegen_enum.obj
