 missionchooser

 Timestamp is 509d43f8 (Fri Nov 09 17:57:12 2012)

 Preferred load address is 10000000

 Start         Length     Name                   Class
 0001:00000000 000d265cH .text                   CODE
 0001:000d2660 0000018eH .text$x                 CODE
 0001:000d27f0 00001212H .text$yc                CODE
 0001:000d3a10 0000049eH .text$yd                CODE
 0002:00000000 0000021cH .idata$5                DATA
 0002:0000021c 00000004H .CRT$XCA                DATA
 0002:00000220 0000023cH .CRT$XCU                DATA
 0002:0000045c 00000004H .CRT$XCZ                DATA
 0002:00000460 00000004H .CRT$XIA                DATA
 0002:00000464 00000014H .CRT$XIC                DATA
 0002:00000478 00000004H .CRT$XIZ                DATA
 0002:0000047c 00000004H .CRT$XPA                DATA
 0002:00000480 00000004H .CRT$XPX                DATA
 0002:00000484 00000004H .CRT$XPXA               DATA
 0002:00000488 00000004H .CRT$XPZ                DATA
 0002:0000048c 00000004H .CRT$XTA                DATA
 0002:00000490 00000004H .CRT$XTZ                DATA
 0002:000004a0 0008187eH .rdata                  DATA
 0002:00081d20 00000064H .rdata$debug            DATA
 0002:00081d84 0000790cH .rdata$r                DATA
 0002:00089690 00000004H .rtc$IAA                DATA
 0002:00089694 00000004H .rtc$IZZ                DATA
 0002:00089698 00000004H .rtc$TAA                DATA
 0002:0008969c 00000004H .rtc$TZZ                DATA
 0002:000896a0 000007dcH .xdata$x                DATA
 0002:00089e7c 00000050H .idata$2                DATA
 0002:00089ecc 00000014H .idata$3                DATA
 0002:00089ee0 0000021cH .idata$4                DATA
 0002:0008a0fc 00000b5aH .idata$6                DATA
 0002:0008ac60 00000055H .edata                  DATA
 0003:00000000 00009ee8H .data                   DATA
 0003:00009f00 0003fae0H .bss                    DATA

  Address         Publics by Value              Rva+Base       Lib:Object

 0000:00000000       __except_list              00000000     <absolute>
 0000:00000000       ___safe_se_handler_count   00000000     <absolute>
 0000:00000000       ___safe_se_handler_table   00000000     <absolute>
 0000:00000000       ___ImageBase               10000000     <linker-defined>
 0001:00000000       ?Grow@?$CUtlMemory@UFileEntry_t@CASW_KeyValuesDatabase@@H@@QAEXH@Z 10001000 f i asw_key_values_database.obj
 0001:000000a0       ?GetFileByName@CASW_KeyValuesDatabase@@QAEPAVKeyValues@@PBD@Z 100010a0 f   asw_key_values_database.obj
 0001:00000100       ?ReloadFile@CASW_KeyValuesDatabase@@QAEPAVKeyValues@@PBD@Z 10001100 f   asw_key_values_database.obj
 0001:000001e0       ??0CASW_KeyValuesDatabase@@QAE@XZ 100011e0 f   asw_key_values_database.obj
 0001:00000210       ?AddFile@CASW_KeyValuesDatabase@@QAEXPAVKeyValues@@PBD@Z 10001210 f   asw_key_values_database.obj
 0001:000002e0       ?LoadFilesInFolder@CASW_KeyValuesDatabase@@AAEXPBD@Z 100012e0 f   asw_key_values_database.obj
 0001:00000480       ?LoadFiles@CASW_KeyValuesDatabase@@QAEXPBD@Z 10001480 f   asw_key_values_database.obj
 0001:000004e0       ?GetType@CCodec@ATI_Compress@@UBE?AW4_CodecType@@XZ 100014e0 f i bitmap:Codec.obj
 0001:000004e0       ?GetGroupName@CASW_Location_Group@@UAEPBDXZ 100014e0 f i asw_location_grid.obj
 0001:000004e0       ?GetRewardType@CASW_Reward@@UAE?AW4ASW_Reward_Type@@XZ 100014e0 f i asw_location_grid.obj
 0001:000004e0       ?GetNPCClassname@CASW_Entry@@UAEPBDXZ 100014e0 f i asw_spawn_selection.obj
 0001:000004f0       ?GetName@ConCommandBase@@UBEPBDXZ 100014f0 f i tier1:convar.obj
 0001:000004f0       ?GetWide@Image@vgui@@UAEHXZ 100014f0 f i vgui_controls:Image.obj
 0001:000004f0       ?GetDescriptionText@CASW_Location_Group@@UAEPBDXZ 100014f0 f i asw_location_grid.obj
 0001:000004f0       ?GetRewardName@CASW_Reward@@UAEPBDXZ 100014f0 f i asw_location_grid.obj
 0001:00000500       ?GetEntryCount@CASW_Spawn_Definition@@UAEHXZ 10001500 f i asw_spawn_selection.obj
 0001:00000500       ?GetFlags@ConCommandBase@@UBEHXZ 10001500 f i tier1:convar.obj
 0001:00000500       ?GetRewardQuality@CASW_Reward@@UAEHXZ 10001500 f i asw_location_grid.obj
 0001:00000510       ?LoadFromKeyValues@CASW_Reward@@UAE_NPAVKeyValues@@H@Z 10001510 f   asw_location_grid.obj
 0001:00000610       ?GetKeyValuesForEditor@CASW_Reward@@UAEPAVKeyValues@@XZ 10001610 f   asw_location_grid.obj
 0001:00000710       ?GetMissionSettings@CASW_Location@@UAEPAVKeyValues@@XZ 10001710 f   asw_location_grid.obj
 0001:00000730       ?GetMissionDefinition@CASW_Location@@UAEPAVKeyValues@@XZ 10001730 f   asw_location_grid.obj
 0001:00000740       ?GetCompanyName@CASW_Location@@UAEPBDXZ 10001740 f   asw_location_grid.obj
 0001:000007a0       ?GetCompanyImage@CASW_Location@@UAEPBDXZ 100017a0 f   asw_location_grid.obj
 0001:00000800       ?IsLocationLocked@CASW_Location@@UAE_NAAV?$CUtlVector@HV?$CUtlMemory@HH@@@@@Z 10001800 f   asw_location_grid.obj
 0001:00000830       ?GetNumRewards@CASW_Location@@UAEHXZ 10001830 f   asw_location_grid.obj
 0001:00000840       ?GetSpawnDef@CASW_Encounter@@UAEPAVIASWSpawnDefinition@@H@Z 10001840 f   asw_npcs.obj
 0001:00000840       ?GetCGroup@CASW_Location_Grid@@UAEPAVCASW_Location_Group@@H@Z 10001840 f   asw_location_grid.obj
 0001:00000840       ?GetGroup@CASW_Location_Grid@@UAEPAVIASW_Location_Group@@H@Z 10001840 f   asw_location_grid.obj
 0001:00000860       ?GetGroupByName@CASW_Location_Grid@@UAEPAVCASW_Location_Group@@PBD@Z 10001860 f   asw_location_grid.obj
 0001:000008b0       ?GetLocationByID@CASW_Location_Grid@@UAEPAVIASW_Location@@H@Z 100018b0 f   asw_location_grid.obj
 0001:00000920       ?SetLocationComplete@CASW_Location_Grid@@UAEXH@Z 10001920 f   asw_location_grid.obj
 0001:00000980       ?GetFreeLocationID@CASW_Location_Grid@@QAEHXZ 10001980 f   asw_location_grid.obj
 0001:000009f0       ?GetLocation@CASW_Location_Group@@UAEPAVIASW_Location@@H@Z 100019f0 f   asw_location_grid.obj
 0001:00000a20       ?GetHighestUnlockMissionID@CASW_Location_Group@@UAEHXZ 10001a20 f   asw_location_grid.obj
 0001:00000a80       ?GetKeyValuesForEditor@CASW_Location@@QAEPAVKeyValues@@XZ 10001a80 f   asw_location_grid.obj
 0001:00000bd0       ?GetReward@CASW_Location@@UAEPAVIASW_Reward@@H@Z 10001bd0 f   asw_location_grid.obj
 0001:00000c00       ?GetMoneyReward@CASW_Location@@UAEHXZ 10001c00 f   asw_location_grid.obj
 0001:00000c50       ?GetXPReward@CASW_Location@@UAEHXZ 10001c50 f   asw_location_grid.obj
 0001:00000ca0       ?Find@?$CUtlVector@HV?$CUtlMemory@HH@@@@QBEHABH@Z 10001ca0 f i asw_location_grid.obj
 0001:00000cd0       ?DeleteGroup@CASW_Location_Grid@@QAEXH@Z 10001cd0 f   asw_location_grid.obj
 0001:00000d10       ?GetKeyValuesForEditor@CASW_Location_Group@@QAEPAVKeyValues@@XZ 10001d10 f   asw_location_grid.obj
 0001:00000e70       ?IsGroupLocked@CASW_Location_Group@@UAE_NAAV?$CUtlVector@HV?$CUtlMemory@HH@@@@@Z 10001e70 f   asw_location_grid.obj
 0001:00000ee0       ?PurgeAndDeleteElements@?$CUtlVector@PAVCASW_Reward@@V?$CUtlMemory@PAVCASW_Reward@@H@@@@QAEXXZ 10001ee0 f i asw_location_grid.obj
 0001:00000f60       ?SaveLocationGrid@CASW_Location_Grid@@QAE_NXZ 10001f60 f   asw_location_grid.obj
 0001:00001030       ??0CASW_Location@@QAE@PAVCASW_Location_Grid@@@Z 10002030 f   asw_location_grid.obj
 0001:000010a0       ?GetID@CASW_Location@@UAEHXZ 100020a0 f i asw_location_grid.obj
 0001:000010a0       ?GetKeyBindingsContext@Panel@vgui@@UBE?AW4KeyBindingContextHandle_t@2@XZ 100020a0 f i vgui_controls:Panel.obj
 0001:000010b0       ?GetCGroup@CASW_Location@@UAEPAVCASW_Location_Group@@XZ 100020b0 f i asw_location_grid.obj
 0001:000010b0       ?GetGroup@CASW_Location@@UAEPAVIASW_Location_Group@@XZ 100020b0 f i asw_location_grid.obj
 0001:000010b0       ?GetBorder@Panel@vgui@@UAEPAVIBorder@2@XZ 100020b0 f i vgui_controls:Panel.obj
 0001:000010c0       ?GetVPanel@Panel@vgui@@UAEIXZ 100020c0 f i tile_check.obj
 0001:000010c0       ?GetCurrentPanel@BuildGroup@vgui@@UAEPAVPanel@2@XZ 100020c0 f i vgui_controls:BuildGroup.obj
 0001:000010c0       ?GetDifficulty@CASW_Location@@UAEHXZ 100020c0 f i asw_location_grid.obj
 0001:000010d0       ?GetCompleted@CASW_Location@@UAE_NXZ 100020d0 f i asw_location_grid.obj
 0001:000010e0       ?GetXPos@CASW_Location@@UAEHXZ 100020e0 f i asw_location_grid.obj
 0001:000010f0       ?GetYPos@CASW_Location@@UAEHXZ 100020f0 f i asw_location_grid.obj
 0001:00001100       ?GetMissions@CASW_Mission_Chooser_Source_Local@@UAEPAUASW_Mission_Chooser_Mission@@XZ 10002100 f i asw_mission_chooser_source_local.obj
 0001:00001100       ?GetMapName@CASW_Location@@UAEPBDXZ 10002100 f i asw_location_grid.obj
 0001:00001110       ?GetStoryScene@CASW_Location@@UAEPBDXZ 10002110 f i asw_location_grid.obj
 0001:00001120       ?GetImageName@CASW_Location@@UAEPBDXZ 10002120 f i asw_location_grid.obj
 0001:00001130       ?IsMissionOptional@CASW_Location@@UAEHXZ 10002130 f i asw_location_grid.obj
 0001:00001140       ?SetPos@CASW_Location@@UAEXHH@Z 10002140 f i asw_location_grid.obj
 0001:00001160       ?LoadFromKeyValues@CASW_Location@@QAEXPAVKeyValues@@PAVCUniformRandomStream@@@Z 10002160 f   asw_location_grid.obj
 0001:000014b0       ?PurgeAndDeleteElements@?$CUtlVector@PAVCASW_Location@@V?$CUtlMemory@PAVCASW_Location@@H@@@@QAEXXZ 100024b0 f i asw_location_grid.obj
 0001:000015d0       ??0CASW_Location_Group@@QAE@PAVCASW_Location_Grid@@@Z 100025d0 f   asw_location_grid.obj
 0001:00001650       ?GetColor@CASW_Location_Group@@UAEAAVColor@@XZ 10002650 f i asw_location_grid.obj
 0001:00001660       ?LoadFromKeyValues@CASW_Location_Group@@QAEXPAVKeyValues@@@Z 10002660 f   asw_location_grid.obj
 0001:000018b0       ?CreateNewGroup@CASW_Location_Grid@@QAEXXZ 100028b0 f   asw_location_grid.obj
 0001:00001930       ?PurgeAndDeleteElements@?$CUtlVector@PAVCASW_Location_Group@@V?$CUtlMemory@PAVCASW_Location_Group@@H@@@@QAEXXZ 10002930 f i asw_location_grid.obj
 0001:00001aa0       ?LoadLocationGrid@CASW_Location_Grid@@QAE_NXZ 10002aa0 f   asw_location_grid.obj
 0001:00001be0       ??0CASW_Location_Grid@@QAE@XZ 10002be0 f   asw_location_grid.obj
 0001:00001dc0       ??_ECASW_Location_Grid@@UAEPAXI@Z 10002dc0 f i asw_location_grid.obj
 0001:00001dc0       ??_GCASW_Location_Grid@@UAEPAXI@Z 10002dc0 f i asw_location_grid.obj
 0001:00001e30       ?Run@CMapBuilderWorkerThread@@UAEHXZ 10002e30 f i asw_map_builder.obj
 0001:00001e50       ?IsBuildingMission@CASW_Map_Builder@@UAE_NXZ 10002e50 f   asw_map_builder.obj
 0001:00001e60       ?FinishExecution@CASW_Map_Builder@@AAEXXZ 10002e60 f   asw_map_builder.obj
 0001:00001ff0       ?UpdateProgress@CASW_Map_Builder@@AAEXXZ 10002ff0 f   asw_map_builder.obj
 0001:000020f0       ?ScheduleMapBuild@CASW_Map_Builder@@UAEXPBDM@Z 100030f0 f   asw_map_builder.obj
 0001:000021b0       ?ScheduleMapGeneration@CASW_Map_Builder@@UAEXPBDMPAVKeyValues@@1@Z 100031b0 f   asw_map_builder.obj
 0001:00002290       ??_GCMapBuilderWorkerThread@@UAEPAXI@Z 10003290 f i asw_map_builder.obj
 0001:00002290       ??_ECMapBuilderWorkerThread@@UAEPAXI@Z 10003290 f i asw_map_builder.obj
 0001:000022d0       ??0CASW_Map_Builder@@QAE@XZ 100032d0 f   asw_map_builder.obj
 0001:000023f0       ?GetProgress@CASW_Map_Builder@@UAEMXZ 100033f0 f i asw_map_builder.obj
 0001:00002400       ?GetStatusMessage@CASW_Map_Builder@@UAEPBDXZ 10003400 f i asw_map_builder.obj
 0001:00002410       ?GetMapName@CASW_Map_Builder@@UAEPBDXZ 10003410 f i asw_map_builder.obj
 0001:00002420       ?ProcessExecution@CASW_Map_Builder@@AAEXXZ 10003420 f   asw_map_builder.obj
 0001:000024f0       ?UpdateVBSP2Progress@CASW_Map_Builder@@AAEXXZ 100034f0 f   asw_map_builder.obj
 0001:00002580       ?Execute@CASW_Map_Builder@@AAEXPBD0@Z 10003580 f   asw_map_builder.obj
 0001:00002780       ?BuildMap@CASW_Map_Builder@@AAEXXZ 10003780 f   asw_map_builder.obj
 0001:000029f0       ?Update@CASW_Map_Builder@@UAEXM@Z 100039f0 f   asw_map_builder.obj
 0001:00002ce0       ?GetCurrentTimeAndDate@CASW_Mission_Chooser@@UAE_NPAH000000@Z 10003ce0 f   asw_mission_chooser.obj
 0001:00002d10       ?RandomMissions@CASW_Mission_Chooser@@UAEPAVIASW_Random_Missions@@XZ 10003d10 f   asw_mission_chooser.obj
 0001:00002d20       ?LocalMissionSource@CASW_Mission_Chooser@@UAEPAVIASW_Mission_Chooser_Source@@XZ 10003d20 f   asw_mission_chooser.obj
 0001:00002d30       ?MissionTextDatabase@CASW_Mission_Chooser@@UAEPAVIASW_Mission_Text_Database@@XZ 10003d30 f   asw_mission_chooser.obj
 0001:00002d40       ?LocationGrid@CASW_Mission_Chooser@@UAEPAVIASW_Location_Grid@@XZ 10003d40 f   asw_mission_chooser.obj
 0001:00002d40       ?LocationGrid@@YAPAVCASW_Location_Grid@@XZ 10003d40 f   asw_mission_chooser.obj
 0001:00002d70       ?MapBuilder@CASW_Mission_Chooser@@UAEPAVIASW_Map_Builder@@XZ 10003d70 f   asw_mission_chooser.obj
 0001:00002da0       ?SpawnSelection@@YAPAVCASW_Spawn_Selection@@XZ 10003da0 f   asw_mission_chooser.obj
 0001:00002da0       ?SpawnSelection@CASW_Mission_Chooser@@UAEPAVIASWSpawnSelection@@XZ 10003da0 f   asw_mission_chooser.obj
 0001:00002db0       ?QueryInterface@CASW_Mission_Chooser@@UAEPAXPBD@Z 10003db0 f   asw_mission_chooser.obj
 0001:00002de0       ?Reconnect@?$CBaseAppSystem@VIASW_Mission_Chooser@@@@UAEXP6APAXPBDPAH@Z0@Z 10003de0 f i asw_mission_chooser.obj
 0001:00002e00       ?Init@CASW_Mission_Chooser@@UAE?AW4InitReturnVal_t@@XZ 10003e00 f   asw_mission_chooser.obj
 0001:00002eb0       ?Connect@CASW_Mission_Chooser@@UAE_NP6APAXPBDPAH@Z@Z 10003eb0 f   asw_mission_chooser.obj
 0001:00002fa0       ?Disconnect@CASW_Mission_Chooser@@UAEXXZ 10003fa0 f   asw_mission_chooser.obj
 0001:00002fd0       ?Shutdown@?$CTier2AppSystem@VIASW_Mission_Chooser@@$0A@@@UAEXXZ 10003fd0 f i asw_mission_chooser.obj
 0001:00002fe0       ?GetBufferType@CCodecBuffer_RGBA16@@UBE?BW4_CodecBufferType@@XZ 10003fe0 f i bitmap:CodecBuffer_RGBA16.obj
 0001:00002fe0       ?GetTier@?$CTier3AppSystem@VIASW_Mission_Chooser@@$0A@@@UAE?AW4AppSystemTier_t@@XZ 10003fe0 f i asw_mission_chooser.obj
 0001:00002ff0       ?RemoveAll@?$CUtlVector@VCASW_MissionTextSpec@@V?$CUtlMemory@VCASW_MissionTextSpec@@H@@@@QAEXXZ 10003ff0 f i asw_mission_chooser.obj
 0001:00003090       ??1?$CUtlVector@VCASW_MissionTextSpec@@V?$CUtlMemory@VCASW_MissionTextSpec@@H@@@@QAE@XZ 10004090 f i asw_mission_chooser.obj
 0001:000030f0       ?nexttoken@?A0x7779e82e@@YAPBDPADPBDD@Z 100040f0 f   asw_mission_chooser_source_local.obj
 0001:00003140       ?SavePassesFilter@CASW_Mission_Chooser_Source_Local@@QAE_NPAUASW_Mission_Chooser_Saved_Campaign@@PBD@Z 10004140 f   asw_mission_chooser_source_local.obj
 0001:000031f0       ?MissionExists@CASW_Mission_Chooser_Source_Local@@UAE_NPBD_N@Z 100041f0 f   asw_mission_chooser_source_local.obj
 0001:000032b0       ?CampaignExists@CASW_Mission_Chooser_Source_Local@@UAE_NPBD@Z 100042b0 f   asw_mission_chooser_source_local.obj
 0001:00003320       ?SavedCampaignExists@CASW_Mission_Chooser_Source_Local@@UAE_NPBD@Z 10004320 f   asw_mission_chooser_source_local.obj
 0001:00003380       ?GetNumMissionsCompleted@CASW_Mission_Chooser_Source_Local@@UAEHPBD@Z 10004380 f   asw_mission_chooser_source_local.obj
 0001:00003530       ?GetPrettyMissionName@CASW_Mission_Chooser_Source_Local@@UAEPBDPBD@Z 10004530 f   asw_mission_chooser_source_local.obj
 0001:000035f0       ?GetPrettyCampaignName@CASW_Mission_Chooser_Source_Local@@UAEPBDPBD@Z 100045f0 f   asw_mission_chooser_source_local.obj
 0001:000036b0       ?GetPrettySavedCampaignName@CASW_Mission_Chooser_Source_Local@@UAEPBDPBD@Z 100046b0 f   asw_mission_chooser_source_local.obj
 0001:00003880       ?Less@SavedCampaignLess@CASW_Mission_Chooser_Source_Local@@QAE_NABUASW_Mission_Chooser_Saved_Campaign@@0PAX@Z 10004880 f   asw_mission_chooser_source_local.obj
 0001:00003930       ?GetCampaignSaveIntroMap@CASW_Mission_Chooser_Source_Local@@UAEPBDPBD@Z 10004930 f   asw_mission_chooser_source_local.obj
 0001:00003b10       ?Grow@?$CUtlMemory@UMapListName@@H@@QAEXH@Z 10004b10 f i asw_mission_chooser_source_local.obj
 0001:00003ba0       ?Grow@?$CUtlMemory@UASW_Mission_Chooser_Saved_Campaign@@H@@QAEXH@Z 10004ba0 f i asw_mission_chooser_source_local.obj
 0001:00003c40       ?GetNumSavedCampaigns@CASW_Mission_Chooser_Source_Local@@UAEH_NPBD@Z 10004c40 f   asw_mission_chooser_source_local.obj
 0001:00003d70       ?FindLessOrEqual@?$CUtlSortVector@UMapListName@@VMapNameLess@CASW_Mission_Chooser_Source_Local@@@@QBEHABUMapListName@@@Z 10004d70 f i asw_mission_chooser_source_local.obj
 0001:00003e60       ?FindLessOrEqual@?$CUtlSortVector@UASW_Mission_Chooser_Saved_Campaign@@VSavedCampaignLess@CASW_Mission_Chooser_Source_Local@@@@QBEHABUASW_Mission_Chooser_Saved_Campaign@@@Z 10004e60 f i asw_mission_chooser_source_local.obj
 0001:00003f50       ?Insert@?$CUtlSortVector@UMapListName@@VMapNameLess@CASW_Mission_Chooser_Source_Local@@@@QAEHABUMapListName@@@Z 10004f50 f i asw_mission_chooser_source_local.obj
 0001:00004030       ?Insert@?$CUtlSortVector@UASW_Mission_Chooser_Saved_Campaign@@VSavedCampaignLess@CASW_Mission_Chooser_Source_Local@@@@QAEHABUASW_Mission_Chooser_Saved_Campaign@@@Z 10005030 f i asw_mission_chooser_source_local.obj
 0001:00004120       ?InsertBefore@?$CUtlVector@HV?$CUtlMemory@HH@@@@QAEHHABH@Z 10005120 f i asw_location_grid.obj
 0001:00004120       ?InsertBefore@?$CUtlVector@PAVKeyValues@@V?$CUtlMemory@PAVKeyValues@@H@@@@QAEHHABQAVKeyValues@@@Z 10005120 f i asw_mission_chooser_source_local.obj
 0001:00004190       ?OnSaveDeleted@CASW_Mission_Chooser_Source_Local@@UAEXPBD@Z 10005190 f   asw_mission_chooser_source_local.obj
 0001:00004260       ?ClearMapList@CASW_Mission_Chooser_Source_Local@@QAEXXZ 10005260 f   asw_mission_chooser_source_local.obj
 0001:000042c0       ?AddToMapList@CASW_Mission_Chooser_Source_Local@@QAEXPBD@Z 100052c0 f   asw_mission_chooser_source_local.obj
 0001:000043b0       ?BuildMapList@CASW_Mission_Chooser_Source_Local@@QAEXXZ 100053b0 f   asw_mission_chooser_source_local.obj
 0001:00004410       ?FindMissions@CASW_Mission_Chooser_Source_Local@@UAEXHH_N@Z 10005410 f   asw_mission_chooser_source_local.obj
 0001:000044c0       ?GetMission@CASW_Mission_Chooser_Source_Local@@UAEPAUASW_Mission_Chooser_Mission@@H_N@Z 100054c0 f   asw_mission_chooser_source_local.obj
 0001:00004550       ?GetNumMissions@CASW_Mission_Chooser_Source_Local@@UAEH_N@Z 10005550 f   asw_mission_chooser_source_local.obj
 0001:00004580       ?ClearCampaignList@CASW_Mission_Chooser_Source_Local@@QAEXXZ 10005580 f   asw_mission_chooser_source_local.obj
 0001:000045e0       ?BuildCampaignList@CASW_Mission_Chooser_Source_Local@@QAEXXZ 100055e0 f   asw_mission_chooser_source_local.obj
 0001:00004640       ?FindCampaigns@CASW_Mission_Chooser_Source_Local@@UAEXHH@Z 10005640 f   asw_mission_chooser_source_local.obj
 0001:000046e0       ?GetCampaigns@CASW_Mission_Chooser_Source_Local@@UAEPAUASW_Mission_Chooser_Mission@@XZ 100056e0 f   asw_mission_chooser_source_local.obj
 0001:00004700       ?GetCampaign@CASW_Mission_Chooser_Source_Local@@UAEPAUASW_Mission_Chooser_Mission@@H@Z 10005700 f   asw_mission_chooser_source_local.obj
 0001:00004770       ?GetNumCampaigns@CASW_Mission_Chooser_Source_Local@@UAEHXZ 10005770 f   asw_mission_chooser_source_local.obj
 0001:00004790       ?ClearSavedCampaignList@CASW_Mission_Chooser_Source_Local@@QAEXXZ 10005790 f   asw_mission_chooser_source_local.obj
 0001:000047f0       ?AddToSavedCampaignList@CASW_Mission_Chooser_Source_Local@@QAEXPBD@Z 100057f0 f   asw_mission_chooser_source_local.obj
 0001:00004ad0       ?BuildSavedCampaignList@CASW_Mission_Chooser_Source_Local@@QAEXXZ 10005ad0 f   asw_mission_chooser_source_local.obj
 0001:00004b50       ?NotifyNewSave@CASW_Mission_Chooser_Source_Local@@QAEXPBD@Z 10005b50 f   asw_mission_chooser_source_local.obj
 0001:00004ed0       ?NotifySaveDeleted@CASW_Mission_Chooser_Source_Local@@UAEXPBD@Z 10005ed0 f   asw_mission_chooser_source_local.obj
 0001:00004fc0       ?ASW_Campaign_CreateNewSaveGame@CASW_Mission_Chooser_Source_Local@@UAE_NPADHPBD_N1@Z 10005fc0 f   asw_mission_chooser_source_local.obj
 0001:000054d0       ??1CASW_Mission_Chooser_Source_Local@@UAE@XZ 100064d0 f   asw_mission_chooser_source_local.obj
 0001:00005540       ?PostChildPaint@Panel@vgui@@UAEXXZ 10006540 f i vgui_controls:Panel.obj
 0001:00005540       ?OnCursorExited@Panel@vgui@@UAEXXZ 10006540 f i vgui_controls:Panel.obj
 0001:00005540       ?SortItems@ComboBox@vgui@@UAEXXZ 10006540 f i vgui_controls:ComboBox.obj
 0001:00005540       ?EditKeyBindings@Panel@vgui@@UAEXXZ 10006540 f i vgui_controls:Panel.obj
 0001:00005540       ?OnMinimizeToSysTray@Frame@vgui@@MAEXXZ 10006540 f i vgui_controls:Frame.obj
 0001:00005540       ?OnGripPanelMoveFinished@Frame@vgui@@UAEXXZ 10006540 f i tile_check.obj
 0001:00005540       ?OnTick@Panel@vgui@@UAEXXZ 10006540 f i vgui_controls:Panel.obj
 0001:00005540       ?OnMove@Panel@vgui@@UAEXXZ 10006540 f i vgui_controls:Panel.obj
 0001:00005540       ?DisconnectTier3Libraries@@YAXXZ 10006540 f i tier3:tier3.obj
 0001:00005540       ?ConnectTier3Libraries@@YAXPAP6APAXPBDPAH@ZH@Z 10006540 f i tier3:tier3.obj
 0001:00005540       ?Paint@Panel@vgui@@UAEXXZ  10006540 f i vgui_controls:Panel.obj
 0001:00005540       ?CreatePanelContents@CEditableValuePanel@@UAEXXZ 10006540 f i rule_instance_parameter_panel.obj
 0001:00005540       ?OnKeyFocusTicked@Frame@vgui@@MAEXXZ 10006540 f i vgui_controls:Frame.obj
 0001:00005540       ?ResetCurrentPage@CASW_Mission_Chooser_Source_Local@@UAEXXZ 10006540 f i asw_mission_chooser_source_local.obj
 0001:00005540       ?OnFinishedClose@Frame@vgui@@MAEXXZ 10006540 f i vgui_controls:Frame.obj
 0001:00005540       ?UpdatePanel@CKV_Editor_Base_Panel@@UAEXXZ 10006540 f i kv_editor_base_panel.obj
 0001:00005540       __heap_term                10006540 f i memoverride.obj
 0001:00005540       ?OnCursorEntered@Panel@vgui@@UAEXXZ 10006540 f i vgui_controls:Panel.obj
 0001:00005540       ?Paint@BlankImage@@UAEXXZ  10006540 f i vgui_controls:ImageList.obj
 0001:00005550       ?OnSaveUpdated@CASW_Mission_Chooser_Source_Local@@UAEXPBD@Z 10006550 f   asw_mission_chooser_source_local.obj
 0001:00005650       ?RefreshSavedCampaigns@CASW_Mission_Chooser_Source_Local@@UAEXXZ 10006650 f   asw_mission_chooser_source_local.obj
 0001:00005670       ?Think@CASW_Mission_Chooser_Source_Local@@UAEXXZ 10006670 f   asw_mission_chooser_source_local.obj
 0001:000057a0       ?IdleThink@CASW_Mission_Chooser_Source_Local@@UAEXXZ 100067a0 f   asw_mission_chooser_source_local.obj
 0001:00005800       ?FindMissionsInCampaign@CASW_Mission_Chooser_Source_Local@@UAEXHHH@Z 10006800 f   asw_mission_chooser_source_local.obj
 0001:00005970       ?GetNumMissionsInCampaign@CASW_Mission_Chooser_Source_Local@@UAEHH@Z 10006970 f   asw_mission_chooser_source_local.obj
 0001:00005a80       ?FindSavedCampaigns@CASW_Mission_Chooser_Source_Local@@UAEXHH_NPBD@Z 10006a80 f   asw_mission_chooser_source_local.obj
 0001:00005c80       ?GetSavedCampaigns@CASW_Mission_Chooser_Source_Local@@UAEPAUASW_Mission_Chooser_Saved_Campaign@@XZ 10006c80 f   asw_mission_chooser_source_local.obj
 0001:00005ca0       ?GetSavedCampaign@CASW_Mission_Chooser_Source_Local@@UAEPAUASW_Mission_Chooser_Saved_Campaign@@H_NPBD@Z 10006ca0 f   asw_mission_chooser_source_local.obj
 0001:00005db0       ?GetMissionDetails@CASW_Mission_Chooser_Source_Local@@UAEPAVKeyValues@@PBD@Z 10006db0 f   asw_mission_chooser_source_local.obj
 0001:00005f70       ?GetCampaignDetails@CASW_Mission_Chooser_Source_Local@@UAEPAVKeyValues@@PBD@Z 10006f70 f   asw_mission_chooser_source_local.obj
 0001:00006130       ??0CASW_Mission_Chooser_Source_Local@@QAE@XZ 10007130 f   asw_mission_chooser_source_local.obj
 0001:00006270       ??_GCASW_Mission_Chooser_Source_Local@@UAEPAXI@Z 10007270 f i asw_mission_chooser_source_local.obj
 0001:00006270       ??_ECASW_Mission_Chooser_Source_Local@@UAEPAXI@Z 10007270 f i asw_mission_chooser_source_local.obj
 0001:000062a0       ?Init@CASW_MissionTextSpec@@QAEXPBD000ABG@Z 100072a0 f i asw_mission_text_database.obj
 0001:00006330       ?Grow@?$CUtlMemory@VCASW_MissionTextSpec@@H@@QAEXH@Z 10007330 f i asw_mission_text_database.obj
 0001:000063d0       ?GetShortDescriptionByID@CASW_MissionTextDB@@UAEPBDI@Z 100073d0 f   asw_mission_text_database.obj
 0001:00006400       ?GetLongDescriptionByID@CASW_MissionTextDB@@UAEPBDI@Z 10007400 f   asw_mission_text_database.obj
 0001:00006430       ?InsertBefore@?$CUtlVector@UMatchTuple@?3??Find@CASW_MissionTextDB@@QAEPBVCASW_MissionTextSpec@@PBD0@Z@V?$CUtlMemory@UMatchTuple@?3??Find@CASW_MissionTextDB@@QAEPBVCASW_MissionTextSpec@@PBD0@Z@H@@@@QAEHHABUMatchTuple@?3??Find@CASW_MissionTextDB@@QAEPBVCASW_MissionTextSpec@@PBD0@Z@@Z 10007430 f i asw_mission_text_database.obj
 0001:00006430       ?InsertBefore@?$CUtlVector@UActionConditionPair_t@@V?$CUtlMemory@UActionConditionPair_t@@H@@@@QAEHHABUActionConditionPair_t@@@Z 10007430 f i tilegen_actions.obj
 0001:000064a0       ?Find@CASW_MissionTextDB@@QAEPBVCASW_MissionTextSpec@@PBD0@Z 100074a0 f   asw_mission_text_database.obj
 0001:00006600       ?FindMissionTextID@CASW_MissionTextDB@@UAEGPBD0@Z 10007600 f   asw_mission_text_database.obj
 0001:00006630       ?InsertBefore@?$CUtlVector@VCASW_MissionTextSpec@@V?$CUtlMemory@VCASW_MissionTextSpec@@H@@@@QAEHH@Z 10007630 f i asw_mission_text_database.obj
 0001:000066b0       ?LoadKeyValuesFile@CASW_MissionTextDB@@QAEXPBD@Z 100076b0 f   asw_mission_text_database.obj
 0001:000068d0       ?GetEncounterPosition@CASW_Encounter@@UAEABVVector@@XZ 100078d0 f i asw_npcs.obj
 0001:000068e0       ?GetEncounterRadius@CASW_Encounter@@UAEMXZ 100078e0 f i asw_npcs.obj
 0001:000068f0       ?SetEncounterPosition@CASW_Encounter@@UAEXABVVector@@@Z 100078f0 f i asw_npcs.obj
 0001:00006910       ?SetEncounterRadius@CASW_Encounter@@UAEXM@Z 10007910 f i asw_npcs.obj
 0001:00006930       ?GetNumGroups@CASW_Location_Grid@@UAEHXZ 10007930 f i asw_location_grid.obj
 0001:00006930       ?GetRoomIndex@CRoom@@UBEHXZ 10007930 f i Room.obj
 0001:00006930       ?GetRewardLevel@CASW_Reward@@UAEHXZ 10007930 f i asw_location_grid.obj
 0001:00006930       ?GetTall@Image@vgui@@UAEHXZ 10007930 f i vgui_controls:Image.obj
 0001:00006930       ?GetHelpText@ConCommandBase@@UBEPBDXZ 10007930 f i tier1:convar.obj
 0001:00006930       ?GetImageName@CASW_Location_Group@@UAEPBDXZ 10007930 f i asw_location_grid.obj
 0001:00006930       ?GetNumSpawnDefs@CASW_Encounter@@UAEHXZ 10007930 f i asw_npcs.obj
 0001:00006940       ?PushEncountersApart@CASWMissionChooserNPCs@@SAXPAVCMapLayout@@@Z 10007940 f   asw_npcs.obj
 0001:00006d90       ?InitFixedSpawns@CASWMissionChooserNPCs@@SAXPAVCLayoutSystem@@PAVCMapLayout@@@Z 10007d90 f   asw_npcs.obj
 0001:00007390       ??1CASW_Random_Missions@@QAE@XZ 10008390 f   asw_random_missions.obj
 0001:000073b0       ?CreateTileGenFrame@CASW_Random_Missions@@UAEPAVPanel@vgui@@PAV23@@Z 100083b0 f   asw_random_missions.obj
 0001:000073f0       ?LevelInitPostEntity@CASW_Random_Missions@@UAEXPBD@Z 100083f0 f   asw_random_missions.obj
 0001:000074d0       ?ValidMapLayout@CASW_Random_Missions@@UAE_NXZ 100084d0 f   asw_random_missions.obj
 0001:000074e0       ?GetGenerationOptions@CASW_Random_Missions@@UAEPAVKeyValues@@XZ 100084e0 f   asw_random_missions.obj
 0001:00007500       ?GetRoomDetails@CASW_Random_Missions@@UAEPAVIASW_Room_Details@@ABVVector@@@Z 10008500 f   asw_random_missions.obj
 0001:00007570       ?GetMapBounds@CASW_Random_Missions@@UAEXPAVVector@@0@Z 10008570 f   asw_random_missions.obj
 0001:000076c0       ?CheckAndCleanDirtyLayout@CASW_Random_Missions@@UAE_NXZ 100086c0 f   asw_random_missions.obj
 0001:000076d0       ??0CASW_Random_Missions@@QAE@XZ 100086d0 f   asw_random_missions.obj
 0001:000076f0       ?GetNumRooms@CASW_Random_Missions@@UAEHXZ 100086f0 f   asw_random_missions.obj
 0001:00007700       ?GetNumEncounters@CASW_Random_Missions@@UAEHXZ 10008700 f   asw_random_missions.obj
 0001:00007710       ?GetStartRoomDetails@CASW_Random_Missions@@UAEPAVIASW_Room_Details@@XZ 10008710 f   asw_random_missions.obj
 0001:00007770       ?GetRoomDetails@CASW_Random_Missions@@UAEPAVIASW_Room_Details@@H@Z 10008770 f   asw_random_missions.obj
 0001:000077a0       ?GetEncounter@CASW_Random_Missions@@UAEPAVIASW_Encounter@@H@Z 100087a0 f   asw_random_missions.obj
 0001:000077d0       ?CurrentSpawnSet@@YAPAVCASW_Spawn_Set@@XZ 100087d0 f   asw_spawn_selection.obj
 0001:000077e0       ?DumpCurrentSpawnSet@CASW_Spawn_Selection@@UAEXXZ 100087e0 f   asw_spawn_selection.obj
 0001:00007830       ?GetSpawnCountRange@CASW_Entry@@UAEXAAH0@Z 10008830 f i asw_spawn_selection.obj
 0001:00007850       ?GetEliteNPCChance@CASW_Entry@@UAEMXZ 10008850 f i asw_spawn_selection.obj
 0001:00007860       ?UseSpawners@CASW_Entry@@UAE_NXZ 10008860 f i asw_spawn_selection.obj
 0001:00007870       ?GetSpawnDef@CASW_Spawn_Set@@QAEPAVCASW_Spawn_Definition@@H@Z 10008870 f   asw_spawn_selection.obj
 0001:000078f0       ?GetSpawnDefByID@CASW_Spawn_Selection@@QAEPAVCASW_Spawn_Definition@@H@Z 100088f0 f   asw_spawn_selection.obj
 0001:00007970       ?GetSpawnSet@CASW_Spawn_Selection@@QAEPAVCASW_Spawn_Set@@PBD@Z 10008970 f   asw_spawn_selection.obj
 0001:000079c0       ?SetCurrentSpawnSet@CASW_Spawn_Selection@@UAE_NPBD@Z 100089c0 f   asw_spawn_selection.obj
 0001:000079e0       ?GetID@CASW_Spawn_Definition@@UAEHXZ 100089e0 f i asw_spawn_selection.obj
 0001:000079e0       ?GetBufferType@CCodecBuffer_Block@@UBE?BW4_CodecBufferType@@XZ 100089e0 f i bitmap:CodecBuffer_Block.obj
 0001:000079f0       ?GetEntry@CASW_Spawn_Definition@@UAEPAVIASWSpawnDefinitionEntry@@H@Z 100089f0 f i asw_spawn_selection.obj
 0001:00007a00       ??0CASW_Spawn_Selection@@QAE@XZ 10008a00 f   asw_spawn_selection.obj
 0001:00007a20       ?GetSpawnDefinition@CASW_Spawn_Selection@@UAEPAVIASWSpawnDefinition@@H@Z 10008a20 f i asw_spawn_selection.obj
 0001:00007a30       ?LoadFromKeyValues@CASW_Spawn_Definition@@QAEXPAVKeyValues@@@Z 10008a30 f   asw_spawn_selection.obj
 0001:00007bc0       ??0CASW_Spawn_Set@@QAE@XZ  10008bc0 f   asw_spawn_selection.obj
 0001:00007c20       ?LoadFromKeyValues@CASW_Spawn_Set@@QAEXPAVKeyValues@@@Z 10008c20 f   asw_spawn_selection.obj
 0001:00007e60       ?SetCurrentSpawnSet@CASW_Spawn_Selection@@UAEXH@Z 10008e60 f   asw_spawn_selection.obj
 0001:00007fe0       ?LoadSpawnSets@CASW_Spawn_Selection@@AAEXXZ 10008fe0 f   asw_spawn_selection.obj
 0001:00008120       ?PurgeAndDeleteElements@?$CUtlVector@PAVCASW_Spawn_Definition@@V?$CUtlMemory@PAVCASW_Spawn_Definition@@H@@@@QAEXXZ 10009120 f i asw_spawn_selection.obj
 0001:00008210       ??1CASW_Spawn_Set@@QAE@XZ  10009210 f   asw_spawn_selection.obj
 0001:00008290       ?PurgeAndDeleteElements@?$CUtlVector@PAVCASW_Spawn_Set@@V?$CUtlMemory@PAVCASW_Spawn_Set@@H@@@@QAEXXZ 10009290 f i asw_spawn_selection.obj
 0001:00008300       ??1CASW_Spawn_Selection@@QAE@XZ 10009300 f   asw_spawn_selection.obj
 0001:00008340       ?Init@CASW_Spawn_Selection@@QAEXXZ 10009340 f   asw_spawn_selection.obj
 0001:00008370       ?ASW_System_GetCurrentTimeAndDate@@YA_NPAH000000@Z 10009370 f   asw_system.obj
 0001:000083e0       ?Sys_FindFirst@@YAPBDAAHPBDPADH@Z 100093e0 f   asw_system.obj
 0001:00008440       ?Sys_FindNext@@YAPBDAAHPADH@Z 10009440 f   asw_system.obj
 0001:00008480       ?Sys_FindClose@@YAXAAH@Z   10009480 f   asw_system.obj
 0001:000084b0       __malloc_crt               100094b0 f   memoverride.obj
 0001:000084b0       ??2@YAPAXI@Z               100094b0 f   memoverride.obj
 0001:000084b0       _malloc                    100094b0 f   memoverride.obj
 0001:000084d0       _calloc                    100094d0 f   memoverride.obj
 0001:000084d0       __calloc_crt               100094d0 f   memoverride.obj
 0001:00008500       __realloc_crt              10009500 f   memoverride.obj
 0001:00008520       __recalloc_crt             10009520 f   memoverride.obj
 0001:00008560       __msize                    10009560 f   memoverride.obj
 0001:00008580       __heap_init                10009580 f   memoverride.obj
 0001:00008590       ??3@YAXPAX@Z               10009590 f   memoverride.obj
 0001:00008590       _free                      10009590 f   memoverride.obj
 0001:000085b0       __strdup                   100095b0 f   memoverride.obj
 0001:00008600       ?GetPanelClassName@CTile_Check_Frame@@SAPBDXZ 10009600 f i tile_check.obj
 0001:00008610       ?CountAINodes@TileCheck@@QAEHPAVKeyValues@@@Z 10009610 f   tile_check.obj
 0001:00008690       ?CountDirectors@TileCheck@@QAEHPAVKeyValues@@@Z 10009690 f   tile_check.obj
 0001:00008700       ?GetUnpackStructure@Panel@vgui@@UBEPBUDmxElementUnpackStructure_t@@XZ 10009700 f i tile_check.obj
 0001:00008710       ?LookupElementBounds@Panel@vgui@@UAE_NPBDAAH111@Z 10009710 f i tile_check.obj
 0001:00008720       ?GetDragFailCursor@Panel@vgui@@UAEKAAV?$CUtlVector@PAVKeyValues@@V?$CUtlMemory@PAVKeyValues@@H@@@@@Z 10009720 f i tile_check.obj
 0001:00008730       ?GetPanel@Panel@vgui@@EAEPAV12@XZ 10009730 f i tile_check.obj
 0001:00008740       ?OnCommand@CTile_Check_Frame@@MAEXPBD@Z 10009740 f   tile_check.obj
 0001:00008750       ?PerformLayout@CTile_Check_Frame@@UAEXXZ 10009750 f   tile_check.obj
 0001:00008760       ?ApplySchemeSettings@CTile_Check_Frame@@UAEXPAVIScheme@vgui@@@Z 10009760 f   tile_check.obj
 0001:00008760       ?ApplySchemeSettings@CLocation_Editor_Frame@@UAEXPAVIScheme@vgui@@@Z 10009760 f   location_editor_frame.obj
 0001:00008760       ?ApplySchemeSettings@CThemeRoomPicker@@UAEXPAVIScheme@vgui@@@Z 10009760 f   theme_room_picker.obj
 0001:00008760       ?ApplySchemeSettings@CKV_Editor_Frame@@UAEXPAVIScheme@vgui@@@Z 10009760 f   kv_editor_frame.obj
 0001:00008770       ?IsProportional@Panel@vgui@@UAE_NXZ 10009770 f i tile_check.obj
 0001:00008780       ?GetMessageMap@CTile_Check_Frame@@UAEPAUPanelMessageMap@vgui@@XZ 10009780 f i tile_check.obj
 0001:000087b0       ?GetAnimMap@CTile_Check_Frame@@UAEPAUPanelAnimationMap@@XZ 100097b0 f i tile_check.obj
 0001:000087c0       ?GetKBMap@CTile_Check_Frame@@UAEPAUPanelKeyBindingMap@vgui@@XZ 100097c0 f i tile_check.obj
 0001:000087f0       ??_ECTile_Check_Frame@@UAEPAXI@Z 100097f0 f i tile_check.obj
 0001:000087f0       ??_GCTile_Check_Frame@@UAEPAXI@Z 100097f0 f i tile_check.obj
 0001:00008830       ?Grow@?$CUtlMemory@PAVCASW_Spawn_Definition@@H@@QAEXH@Z 10009830 f i asw_spawn_selection.obj
 0001:00008830       ?Grow@?$CUtlMemory@PAVCRoomTemplate@@H@@QAEXH@Z 10009830 f i LevelTheme.obj
 0001:00008830       ?Grow@?$CUtlMemory@PAUCampaignDetails_t@@H@@QAEXH@Z 10009830 f i asw_mission_chooser_source_local.obj
 0001:00008830       ?Grow@?$CUtlMemory@PAV?$ITilegenClassFactory@V?$ITilegenExpression@PBVCExit@@@@@@H@@QAEXH@Z 10009830 f i tilegen_class_factories.obj
 0001:00008830       ?Grow@?$CUtlMemory@PAV?$ITilegenClassFactory@V?$ITilegenRange@PBVCExit@@@@@@H@@QAEXH@Z 10009830 f i tilegen_class_factories.obj
 0001:00008830       ?Grow@?$CUtlMemory@PAVCASW_Spawn_Set@@H@@QAEXH@Z 10009830 f i asw_spawn_selection.obj
 0001:00008830       ?Grow@?$CUtlMemory@PAVCMissionChooserTGAImagePanel@@H@@QAEXH@Z 10009830 f i RoomTemplatePanel.obj
 0001:00008830       ?Grow@?$CUtlMemory@PAVCTilegenState@@H@@QAEXH@Z 10009830 f i tilegen_layout_system.obj
 0001:00008830       ?Grow@?$CUtlMemory@PAVKeyValues@@H@@QAEXH@Z 10009830 f i asw_mission_chooser_source_local.obj
 0001:00008830       ?Grow@?$CUtlMemory@PAVITilegenListener@@H@@QAEXH@Z 10009830 f i tilegen_layout_system.obj
 0001:00008830       ?Grow@?$CUtlMemory@PAV?$ITilegenClassFactory@V?$ITilegenExpression@PBVCRoomTemplate@@@@@@H@@QAEXH@Z 10009830 f i tilegen_class_factories.obj
 0001:00008830       ?Grow@?$CUtlMemory@PAVCNodePanel@@H@@QAEXH@Z 10009830 f i node_panel.obj
 0001:00008830       ?Grow@?$CUtlMemory@PAV?$ITilegenExpression@_N@@H@@QAEXH@Z 10009830 f i tilegen_class_factories.obj
 0001:00008830       ?Grow@?$CUtlMemory@PAV?$ITilegenClassFactory@V?$ITilegenExpression@_N@@@@H@@QAEXH@Z 10009830 f i tilegen_class_factories.obj
 0001:00008830       ?Grow@?$CUtlMemory@PAVCKV_Editor_Base_Panel@@H@@QAEXH@Z 10009830 f i kv_editor.obj
 0001:00008830       ?Grow@?$CUtlMemory@PAV?$ITilegenExpression@H@@H@@QAEXH@Z 10009830 f i tilegen_class_factories.obj
 0001:00008830       ?Grow@?$CUtlMemory@PAVCRoom@@H@@QAEXH@Z 10009830 f i asw_npcs.obj
 0001:00008830       ?Grow@?$CUtlMemory@PAUSideTranslation_t@VMFExporter@@H@@QAEXH@Z 10009830 f i VMFExporter.obj
 0001:00008830       ?Grow@?$CUtlMemory@PAV?$ITilegenClassFactory@V?$ITilegenExpression@PBVCRoom@@@@@@H@@QAEXH@Z 10009830 f i tilegen_class_factories.obj
 0001:00008830       ?Grow@?$CUtlMemory@PAUNodeTranslation_t@VMFExporter@@H@@QAEXH@Z 10009830 f i VMFExporter.obj
 0001:00008830       ?Grow@?$CUtlMemory@PAVCTilegenEnum@@H@@QAEXH@Z 10009830 f i tilegen_mission_preprocessor.obj
 0001:00008830       ?Grow@?$CUtlMemory@PAVCASW_Location_Group@@H@@QAEXH@Z 10009830 f i asw_location_grid.obj
 0001:00008830       ?Grow@?$CUtlMemory@PAV?$ITilegenClassFactory@V?$ITilegenExpression@PBD@@@@H@@QAEXH@Z 10009830 f i tilegen_class_factories.obj
 0001:00008830       ?Grow@?$CUtlMemory@PAV?$ITilegenClassFactory@V?$ITilegenExpression@M@@@@H@@QAEXH@Z 10009830 f i tilegen_class_factories.obj
 0001:00008830       ?Grow@?$CUtlMemory@PAV?$ITilegenExpression@M@@H@@QAEXH@Z 10009830 f i tilegen_class_factories.obj
 0001:00008830       ?Grow@?$CUtlMemory@PBDH@@QAEXH@Z 10009830 f i tile_check.obj
 0001:00008830       ?Grow@?$CUtlMemory@PAVCASW_Entry@@H@@QAEXH@Z 10009830 f i asw_spawn_selection.obj
 0001:00008830       ?Grow@?$CUtlMemory@PBVCRoomTemplate@@H@@QAEXH@Z 10009830 f i tilegen_actions.obj
 0001:00008830       ?Grow@?$CUtlMemory@PAV?$ITilegenClassFactory@VITilegenAction@@@@H@@QAEXH@Z 10009830 f i tilegen_class_factories.obj
 0001:00008830       ?Grow@?$CUtlMemory@PAVCASW_Reward@@H@@QAEXH@Z 10009830 f i asw_location_grid.obj
 0001:00008830       ?Grow@?$CUtlMemory@PAVCRoomTemplatePanel@@H@@QAEXH@Z 10009830 f i RoomTemplateListPanel.obj
 0001:00008830       ?Grow@?$CUtlMemory@PAUMissionChooserLoadedTGA_t@@H@@QAEXH@Z 10009830 f i missionchooser_tgaimagepanel.obj
 0001:00008830       ?Grow@?$CUtlMemory@PAVCToggleExitButton@@H@@QAEXH@Z 10009830 f i ToggleExitsPanel.obj
 0001:00008830       ?Grow@?$CUtlMemory@PAVCASW_Encounter@@H@@QAEXH@Z 10009830 f i asw_npcs.obj
 0001:00008830       ?Grow@?$CUtlMemory@PAVCRoomTemplateExit@@H@@QAEXH@Z 10009830 f i MapLayout.obj
 0001:00008830       ?Grow@?$CUtlMemory@PAUMissionDetails_t@@H@@QAEXH@Z 10009830 f i asw_mission_chooser_source_local.obj
 0001:00008830       ?Grow@?$CUtlMemory@PAV?$ITilegenClassFactory@V?$ITilegenExpression@H@@@@H@@QAEXH@Z 10009830 f i tilegen_class_factories.obj
 0001:00008830       ?Grow@?$CUtlMemory@PAV?$ITilegenClassFactory@V?$ITilegenExpression@PBVCRoomCandidate@@@@@@H@@QAEXH@Z 10009830 f i tilegen_class_factories.obj
 0001:00008830       ?Grow@?$CUtlMemory@PAVCLevelTheme@@H@@QAEXH@Z 10009830 f i ThemeEditDialog.obj
 0001:00008830       ?Grow@?$CUtlMemory@PAVCASW_Location@@H@@QAEXH@Z 10009830 f i asw_location_grid.obj
 0001:00008830       ?Grow@?$CUtlMemory@HH@@QAEXH@Z 10009830 f i asw_location_grid.obj
 0001:00008830       ?Grow@?$CUtlMemory@PAVCTilegenRule@@H@@QAEXH@Z 10009830 f i tilegen_mission_preprocessor.obj
 0001:00008830       ?Grow@?$CUtlMemory@PAV?$ITilegenClassFactory@V?$ITilegenExpression@PBVCTilegenState@@@@@@H@@QAEXH@Z 10009830 f i tilegen_class_factories.obj
 0001:00008830       ?Grow@?$CUtlMemory@PAVCLocation_Panel@@H@@QAEXH@Z 10009830 f i location_layout_panel.obj
 0001:00008830       ?Grow@?$CUtlMemory@PAVButton@vgui@@H@@QAEXH@Z 10009830 f i kv_node_panel.obj
 0001:000088c0       ?StartCheckingAllRoomTemplates@TileCheck@@QAEXXZ 100098c0 f   tile_check.obj
 0001:00008910       ??0CTile_Check_Frame@@QAE@PAVPanel@vgui@@PBD@Z 10009910 f   tile_check.obj
 0001:00008b30       ??_GTileCheck@@UAEPAXI@Z   10009b30 f i tile_check.obj
 0001:00008b30       ??_ETileCheck@@UAEPAXI@Z   10009b30 f i tile_check.obj
 0001:00008b60       ?TileCheckError@TileCheck@@QAAXPBDZZ 10009b60 f   tile_check.obj
 0001:00008c00       ?CheckTemplate@TileCheck@@QAEXPAVCRoomTemplate@@@Z 10009c00 f   tile_check.obj
 0001:00008d70       ?ContinueCheckingAllRoomTemplates@TileCheck@@QAE_NXZ 10009d70 f   tile_check.obj
 0001:00008df0       ?OnTick@CTile_Check_Frame@@UAEXXZ 10009df0 f   tile_check.obj
 0001:00008e90       ?IsDisplacementBrush@VMFExporter@@QAE_NPAVKeyValues@@@Z 10009e90 f   VMFExporter.obj
 0001:00008ef0       ?ReorderObjectives@VMFExporter@@QAEXPBVCRoomTemplate@@PAVKeyValues@@@Z 10009ef0 f   VMFExporter.obj
 0001:00008f90       ?GetCurrentRoomOffset@VMFExporter@@QAEABVVector@@XZ 10009f90 f   VMFExporter.obj
 0001:00009040       ?AddRoomInstance@VMFExporter@@QAEXPBVCRoomTemplate@@H@Z 1000a040 f   VMFExporter.obj
 0001:000091a0       ?GetVersionInfo@VMFExporter@@QAEPAVKeyValues@@XZ 1000a1a0 f   VMFExporter.obj
 0001:00009220       ?GetDefaultCamera@VMFExporter@@QAEPAVKeyValues@@XZ 1000a220 f   VMFExporter.obj
 0001:000092a0       ?GetPlayerStarts@VMFExporter@@QAEPAVKeyValues@@XZ 1000a2a0 f   VMFExporter.obj
 0001:00009390       ?GetGameRulesProxy@VMFExporter@@QAEPAVKeyValues@@XZ 1000a390 f   VMFExporter.obj
 0001:00009490       ?GetDefaultWorldChunk@VMFExporter@@QAEPAVKeyValues@@XZ 1000a490 f   VMFExporter.obj
 0001:00009540       ?ProcessGenericRecursive@VMFExporter@@QAE_NPAVKeyValues@@@Z 1000a540 f   VMFExporter.obj
 0001:00009670       ?ProcessConnections@VMFExporter@@QAE_NPAVKeyValues@@@Z 1000a670 f   VMFExporter.obj
 0001:00009710       ?Grow@?$CUtlMemory@VCUtlString@@H@@QAEXH@Z 1000a710 f i VMFExporter.obj
 0001:000097a0       ?ShowExportErrors@VMFExporter@@QAE_NXZ 1000a7a0 f   VMFExporter.obj
 0001:00009830       ?ProcessEntityKey@VMFExporter@@QAE_NPAVKeyValues@@@Z 1000a830 f   VMFExporter.obj
 0001:00009bd0       ?PurgeAndDeleteElements@?$CUtlVector@PAUNodeTranslation_t@VMFExporter@@V?$CUtlMemory@PAUNodeTranslation_t@VMFExporter@@H@@@@QAEXXZ 1000abd0 f i VMFExporter.obj
 0001:00009bd0       ?PurgeAndDeleteElements@?$CUtlVector@PBDV?$CUtlMemory@PBDH@@@@QAEXXZ 1000abd0 f i tile_check.obj
 0001:00009bd0       ?PurgeAndDeleteElements@?$CUtlVector@PAVCASW_Entry@@V?$CUtlMemory@PAVCASW_Entry@@H@@@@QAEXXZ 1000abd0 f i asw_spawn_selection.obj
 0001:00009bd0       ?PurgeAndDeleteElements@?$CUtlVector@PAVCRoomTemplateExit@@V?$CUtlMemory@PAVCRoomTemplateExit@@H@@@@QAEXXZ 1000abd0 f i RoomTemplate.obj
 0001:00009bd0       ?PurgeAndDeleteElements@?$CUtlVector@PAUSideTranslation_t@VMFExporter@@V?$CUtlMemory@PAUSideTranslation_t@VMFExporter@@H@@@@QAEXXZ 1000abd0 f i VMFExporter.obj
 0001:00009bd0       ?PurgeAndDeleteElements@?$CUtlVector@PAUCampaignDetails_t@@V?$CUtlMemory@PAUCampaignDetails_t@@H@@@@QAEXXZ 1000abd0 f i asw_mission_chooser_source_local.obj
 0001:00009bd0       ?PurgeAndDeleteElements@?$CUtlVector@PAUMissionDetails_t@@V?$CUtlMemory@PAUMissionDetails_t@@H@@@@QAEXXZ 1000abd0 f i asw_mission_chooser_source_local.obj
 0001:00009c40       ?InsertBefore@?$CUtlVector@VCUtlString@@V?$CUtlMemory@VCUtlString@@H@@@@QAEHHABVCUtlString@@@Z 1000ac40 f i VMFExporter.obj
 0001:00009cb0       ?Init@VMFExporter@@QAEXXZ  1000acb0 f   VMFExporter.obj
 0001:00009dd0       ?ProcessSideKey@VMFExporter@@QAE_NPAVKeyValues@@@Z 1000add0 f   VMFExporter.obj
 0001:0000a280       ?MakeNodeIDsUnique@VMFExporter@@QAEHXZ 1000b280 f   VMFExporter.obj
 0001:0000a400       ?ProcessSide@VMFExporter@@QAE_NPAVKeyValues@@@Z 1000b400 f   VMFExporter.obj
 0001:0000a470       ?RemoveAll@?$CUtlVector@VCUtlString@@V?$CUtlMemory@VCUtlString@@H@@@@QAEXXZ 1000b470 f i VMFExporter.obj
 0001:0000a4d0       ?ProcessSolid@VMFExporter@@QAE_NPAVKeyValues@@@Z 1000b4d0 f   VMFExporter.obj
 0001:0000a550       ?ProcessEntity@VMFExporter@@QAE_NPAVKeyValues@@@Z 1000b550 f   VMFExporter.obj
 0001:0000a630       ?LoadUniqueKeyList@VMFExporter@@QAEXXZ 1000b630 f   VMFExporter.obj
 0001:0000a840       ??1?$CUtlVector@VCUtlString@@V?$CUtlMemory@VCUtlString@@H@@@@QAE@XZ 1000b840 f i VMFExporter.obj
 0001:0000a8a0       ??0VMFExporter@@QAE@XZ     1000b8a0 f   VMFExporter.obj
 0001:0000a940       ?AddRoomTemplateEntities@VMFExporter@@QAE_NPBVCRoomTemplate@@@Z 1000b940 f   VMFExporter.obj
 0001:0000aa70       ?ProcessWorld@VMFExporter@@QAE_NPAVKeyValues@@@Z 1000ba70 f   VMFExporter.obj
 0001:0000ab30       ?AddLevelContainer@VMFExporter@@QAE_NXZ 1000bb30 f   VMFExporter.obj
 0001:0000acc0       ??_GVMFExporter@@UAEPAXI@Z 1000bcc0 f i VMFExporter.obj
 0001:0000acc0       ??_EVMFExporter@@UAEPAXI@Z 1000bcc0 f i VMFExporter.obj
 0001:0000ad20       ?AddRoomTemplateSolids@VMFExporter@@QAE_NPBVCRoomTemplate@@@Z 1000bd20 f   VMFExporter.obj
 0001:0000aef0       ?ExportVMF@VMFExporter@@QAE_NPAVCMapLayout@@PBD_N@Z 1000bef0 f   VMFExporter.obj
 0001:0000b400       ?CaselessStringLessThan@@YA_NABQBD0@Z 1000c400 f i LevelTheme.obj
 0001:0000b420       ?SetCurrentTheme@CLevelTheme@@SAXPAV1@@Z 1000c420 f   LevelTheme.obj
 0001:0000b450       ?SaveTheme@CLevelTheme@@QAE_NPBD@Z 1000c450 f   LevelTheme.obj
 0001:0000b590       ?SplitThemeAndRoom@CLevelTheme@@SA_NPBDPADH1H@Z 1000c590 f   LevelTheme.obj
 0001:0000b610       ?FindRoom@CLevelTheme@@QAEPAVCRoomTemplate@@PBD@Z 1000c610 f   LevelTheme.obj
 0001:0000b6c0       ?FindLessOrEqual@?$CUtlSortVector@PAVCRoomTemplate@@VCRoomTemplateLessFunc@@@@QBEHABQAVCRoomTemplate@@@Z 1000c6c0 f i LevelTheme.obj
 0001:0000b7b0       ?PurgeAndDeleteElements@?$CUtlVector@PAVCRoomTemplate@@V?$CUtlMemory@PAVCRoomTemplate@@H@@@@QAEXXZ 1000c7b0 f i LevelTheme.obj
 0001:0000b820       ?Insert@?$CUtlSortVector@PAVCRoomTemplate@@VCRoomTemplateLessFunc@@@@QAEHABQAVCRoomTemplate@@@Z 1000c820 f i LevelTheme.obj
 0001:0000b8f0       ??1CLevelTheme@@QAE@XZ     1000c8f0 f   LevelTheme.obj
 0001:0000b910       ?LoadRoomTemplatesInFolder@CLevelTheme@@AAEXPBD@Z 1000c910 f   LevelTheme.obj
 0001:0000bb10       ??0CLevelTheme@@QAE@PBD0_N@Z 1000cb10 f   LevelTheme.obj
 0001:0000bbb0       ?LoadRoomTemplates@CLevelTheme@@QAEXXZ 1000cbb0 f   LevelTheme.obj
 0001:0000bc00       ?PurgeAndDeleteElements@?$CUtlVector@PAVCLevelTheme@@V?$CUtlMemory@PAVCLevelTheme@@H@@@@QAEXXZ 1000cc00 f i LevelTheme.obj
 0001:0000bd00       ?LoadLevelThemes@CLevelTheme@@SAXXZ 1000cd00 f   LevelTheme.obj
 0001:0000be40       ?FindTheme@CLevelTheme@@SAPAV1@PBD@Z 1000ce40 f   LevelTheme.obj
 0001:0000be90       ?SetCurrentFilename@CMapLayout@@QAEXPBD@Z 1000ce90 f   MapLayout.obj
 0001:0000bec0       ?Grow@?$CUtlMemory@UKeyValue_t@@H@@QAEXH@Z 1000cec0 f i MapLayout.obj
 0001:0000bf50       ?Grow@?$CUtlMemory@VCInstanceSpawn@@H@@QAEXH@Z 1000cf50 f i MapLayout.obj
 0001:0000bff0       ?FixupValues@CInstanceSpawn@@QAEXPBD0@Z 1000cff0 f   MapLayout.obj
 0001:0000c080       ?SaveToKeyValues@CInstanceSpawn@@QBEXPAVKeyValues@@@Z 1000d080 f   MapLayout.obj
 0001:0000c190       ?MarkEncounterRooms@CMapLayout@@QAEXXZ 1000d190 f   MapLayout.obj
 0001:0000c210       ?GetExtents@CMapLayout@@QAEXAAH000@Z 1000d210 f   MapLayout.obj
 0001:0000c2d0       ?SaveToKeyValues@CASW_Encounter@@QAEXPAVKeyValues@@@Z 1000d2d0 f   MapLayout.obj
 0001:0000c380       ?FindAndRemove@?$CUtlVector@PAVCRoomTemplatePanel@@V?$CUtlMemory@PAVCRoomTemplatePanel@@H@@@@QAE_NABQAVCRoomTemplatePanel@@@Z 1000d380 f i RoomTemplatePanel.obj
 0001:0000c380       ?FindAndRemove@?$CUtlVector@PAVCRoom@@V?$CUtlMemory@PAVCRoom@@H@@@@QAE_NABQAVCRoom@@@Z 1000d380 f i MapLayout.obj
 0001:0000c3f0       ?RemoveRoom@CMapLayout@@QAEXPAVCRoom@@@Z 1000d3f0 f   MapLayout.obj
 0001:0000c4a0       ?SaveMapLayout@CMapLayout@@QAE_NPBD@Z 1000d4a0 f   MapLayout.obj
 0001:0000c760       ??_E?$CCopyableUtlVector@UKeyValue_t@@@@UAEPAXI@Z 1000d760 f i MapLayout.obj
 0001:0000c760       ??_G?$CCopyableUtlVector@UKeyValue_t@@@@UAEPAXI@Z 1000d760 f i MapLayout.obj
 0001:0000c790       ?AddToTail@?$CUtlVector@UKeyValue_t@@V?$CUtlMemory@UKeyValue_t@@H@@@@QAEHXZ 1000d790 f i MapLayout.obj
 0001:0000c7e0       ??0CInstanceSpawn@@QAE@XZ  1000d7e0 f   MapLayout.obj
 0001:0000c820       ?LoadFromKeyValues@CInstanceSpawn@@QAE_NPAVKeyValues@@@Z 1000d820 f   MapLayout.obj
 0001:0000ca00       ?LoadLogicalRoom@CMapLayout@@QAE_NPAVKeyValues@@@Z 1000da00 f   MapLayout.obj
 0001:0000cb60       ?PlaceRoom@CMapLayout@@QAEXPAVCRoom@@@Z 1000db60 f   MapLayout.obj
 0001:0000cc50       ?AddSpawnDef@CASW_Encounter@@UAEXPAVCASW_Spawn_Definition@@@Z 1000dc50 f   MapLayout.obj
 0001:0000ccb0       ?LoadFromKeyValues@CASW_Encounter@@QAEXPAVKeyValues@@@Z 1000dcb0 f   MapLayout.obj
 0001:0000ce10       ?CheckExitsOnSquares@CMapLayout@@QBE_NPBVCRoomTemplate@@HHW4ExitDirection_t@@HH_NPAV?$CUtlVector@PAVCRoomTemplateExit@@V?$CUtlMemory@PAVCRoomTemplateExit@@H@@@@@Z 1000de10 f   MapLayout.obj
 0001:0000cf80       ?PurgeAndDeleteElements@?$CUtlVector@PAVCASW_Encounter@@V?$CUtlMemory@PAVCASW_Encounter@@H@@@@QAEXXZ 1000df80 f i MapLayout.obj
 0001:0000d040       ?InsertBefore@?$CUtlVector@VCInstanceSpawn@@V?$CUtlMemory@VCInstanceSpawn@@H@@@@QAEHH@Z 1000e040 f i MapLayout.obj
 0001:0000d0f0       ?CheckExits@CMapLayout@@QBE_NPBVCRoomTemplate@@HHPAV?$CUtlVector@PAVCRoomTemplateExit@@V?$CUtlMemory@PAVCRoomTemplateExit@@H@@@@@Z 1000e0f0 f   MapLayout.obj
 0001:0000d280       ?RemoveAll@?$CUtlVector@VCInstanceSpawn@@V?$CUtlMemory@VCInstanceSpawn@@H@@@@QAEXXZ 1000e280 f i MapLayout.obj
 0001:0000d360       ?Clear@CMapLayout@@QAEXXZ  1000e360 f   MapLayout.obj
 0001:0000d3c0       ?LoadMapLayout@CMapLayout@@QAE_NPBD@Z 1000e3c0 f   MapLayout.obj
 0001:0000d630       ?TemplateFits@CMapLayout@@QBE_NPBVCRoomTemplate@@HH_N@Z 1000e630 f   MapLayout.obj
 0001:0000d700       ??1?$CUtlVector@VCInstanceSpawn@@V?$CUtlMemory@VCInstanceSpawn@@H@@@@QAE@XZ 1000e700 f i MapLayout.obj
 0001:0000d760       ??0CMapLayout@@QAE@PAVKeyValues@@@Z 1000e760 f   MapLayout.obj
 0001:0000d820       ??_GCMapLayout@@UAEPAXI@Z  1000e820 f i MapLayout.obj
 0001:0000d820       ??_ECMapLayout@@UAEPAXI@Z  1000e820 f i MapLayout.obj
 0001:0000d880       ??0CRoom@@QAE@PAVCMapLayout@@PBVCRoomTemplate@@HH@Z 1000e880 f   Room.obj
 0001:0000d8c0       ?HasAlienEncounter@CRoom@@UAE_NXZ 1000e8c0 f i Room.obj
 0001:0000d8d0       ?GetKeyValuesCopy@CRoom@@QAEPAVKeyValues@@XZ 1000e8d0 f   Room.obj
 0001:0000d950       ?HasTag@CRoom@@UAE_NPBD@Z  1000e950 f   Room.obj
 0001:0000d970       ?GetSpawnWeight@CRoom@@UAEHXZ 1000e970 f   Room.obj
 0001:0000d980       ?GetThumbnailName@CRoom@@UAE_NPADH@Z 1000e980 f   Room.obj
 0001:0000d9c0       ?GetFullRoomName@CRoom@@UAE_NPADH@Z 1000e9c0 f   Room.obj
 0001:0000da00       ?GetSoundscape@CRoom@@UAEXPADH@Z 1000ea00 f   Room.obj
 0001:0000da30       ?GetTheme@CRoom@@UAEXPADH@Z 1000ea30 f   Room.obj
 0001:0000da60       ?GetAmbientLight@CRoom@@UAEABVVector@@XZ 1000ea60 f   Room.obj
 0001:0000da80       ?GetTileType@CRoom@@UAEHXZ 1000ea80 f   Room.obj
 0001:0000daa0       ?GetTileTypeName@CRoom@@UAEPBDH@Z 1000eaa0 f   Room.obj
 0001:0000dac0       ?GetWorldBounds@CRoom@@UAEXPAVVector@@0@Z 1000eac0 f   Room.obj
 0001:0000dbc0       ?GetAdjacentRoom@CRoom@@UAEPAVIASW_Room_Details@@H@Z 1000ebc0 f   Room.obj
 0001:0000dc20       ?AllocTempVector@@YAAAVVector@@XZ 1000ec20 f i Room.obj
 0001:0000dcb0       ?GetNumTags@CRoom@@UAEHXZ  1000ecb0 f   Room.obj
 0001:0000dcc0       ?WorldSpaceCenter@CRoom@@UAEABVVector@@XZ 1000ecc0 f   Room.obj
 0001:0000dd40       ?GetNumExits@CRoom@@UAEHXZ 1000ed40 f   Room.obj
 0001:0000dd50       ?LoadRoomFromKeyValues@CRoom@@SA_NPAVKeyValues@@PAVCMapLayout@@@Z 1000ed50 f   Room.obj
 0001:0000df00       ?GetTag@CRoom@@UAEPBDH@Z   1000ef00 f   Room.obj
 0001:0000df20       ??_ECRoom@@UAEPAXI@Z       1000ef20 f i Room.obj
 0001:0000df20       ??_GCRoom@@UAEPAXI@Z       1000ef20 f i Room.obj
 0001:0000df90       ?GetDirectionFromString@@YA?AW4ExitDirection_t@@PBD@Z 1000ef90 f   RoomTemplate.obj
 0001:0000e000       ?SetFullName@CRoomTemplate@@QAEXPBD@Z 1000f000 f   RoomTemplate.obj
 0001:0000e080       ?SetDescription@CRoomTemplate@@QAEXPBD@Z 1000f080 f   RoomTemplate.obj
 0001:0000e0a0       ?SetSoundscape@CRoomTemplate@@QAEXPBD@Z 1000f0a0 f   RoomTemplate.obj
 0001:0000e0c0       ?GetExitOffset@CRoomTemplateExit@@SAXW4ExitDirection_t@@PAH1@Z 1000f0c0 f   RoomTemplate.obj
 0001:0000e140       ?GetOppositeDirection@CRoomTemplateExit@@SA?AW4ExitDirection_t@@W42@@Z 1000f140 f   RoomTemplate.obj
 0001:0000e180       ?SaveRoomTemplate@CRoomTemplate@@QAE_NXZ 1000f180 f   RoomTemplate.obj
 0001:0000e410       ?HasTag@CRoomTemplate@@QBE_NPBD@Z 1000f410 f   RoomTemplate.obj
 0001:0000e460       ?IsStartRoom@CRoomTemplate@@QBE_NXZ 1000f460 f   RoomTemplate.obj
 0001:0000e4a0       ?IsEscapeRoom@CRoomTemplate@@QBE_NXZ 1000f4a0 f   RoomTemplate.obj
 0001:0000e4e0       ?IsBorderRoom@CRoomTemplate@@QBE_NXZ 1000f4e0 f   RoomTemplate.obj
 0001:0000e520       ?ShouldOnlyPlaceByRequest@CRoomTemplate@@QBE_NXZ 1000f520 f   RoomTemplate.obj
 0001:0000e580       ?RemoveTag@CRoomTemplate@@QAE_NPBD@Z 1000f580 f   RoomTemplate.obj
 0001:0000e600       ??0CRoomTemplate@@QAE@PAVCLevelTheme@@@Z 1000f600 f   RoomTemplate.obj
 0001:0000e670       ??1CRoomTemplate@@QAE@XZ   1000f670 f   RoomTemplate.obj
 0001:0000e690       ?AddTag@CRoomTemplate@@QAE_NPBD@Z 1000f690 f   RoomTemplate.obj
 0001:0000e730       ?LoadFromKeyValues@CRoomTemplate@@QAEXPBDPAVKeyValues@@@Z 1000f730 f   RoomTemplate.obj
 0001:0000e9f0       ?FindTag@CTagList@@QAEPBDPBD@Z 1000f9f0 f   TagList.obj
 0001:0000ea40       ?LoadTags@CTagList@@AAEXXZ 1000fa40 f   TagList.obj
 0001:0000ec70       ?TagList@@YAPAVCTagList@@XZ 1000fc70 f   TagList.obj
 0001:0000ecd0       ?GetPanelClassName@CKV_Combo_Leaf_Panel@@SAPBDXZ 1000fcd0 f i kv_combo_leaf_panel.obj
 0001:0000ece0       ?PerformLayout@CKV_Leaf_Panel@@UAEXXZ 1000fce0 f   kv_leaf_panel.obj
 0001:0000ece0       ?PerformLayout@CKV_Combo_Leaf_Panel@@UAEXXZ 1000fce0 f   kv_combo_leaf_panel.obj
 0001:0000ee00       ?ApplySchemeSettings@CKV_Combo_Leaf_Panel@@UAEXPAVIScheme@vgui@@@Z 1000fe00 f   kv_combo_leaf_panel.obj
 0001:0000ee50       ?UpdatePanel@CKV_Combo_Leaf_Panel@@UAEXXZ 1000fe50 f   kv_combo_leaf_panel.obj
 0001:0000f090       ?OnTextChanged@CKV_Combo_Leaf_Panel@@UAEXPAVPanel@vgui@@@Z 10010090 f   kv_combo_leaf_panel.obj
 0001:0000f150       ?OnCommand@CKV_Combo_Leaf_Panel@@UAEXPBD@Z 10010150 f   kv_combo_leaf_panel.obj
 0001:0000f1c0       ?Grow@?$CUtlMemory@URuleType_t@@H@@QAEXH@Z 100101c0 f i tilegen_rule.obj
 0001:0000f1c0       ?Grow@?$CUtlMemory@UMessageMapItem_t@vgui@@H@@QAEXH@Z 100101c0 f i kv_combo_leaf_panel.obj
 0001:0000f250       ?InitVar@PanelMessageFunc_OnTextChanged@CKV_Combo_Leaf_Panel@@SAXXZ 10010250 f i kv_combo_leaf_panel.obj
 0001:0000f2f0       ??0CKV_Combo_Leaf_Panel@@QAE@PAVPanel@vgui@@PBD@Z 100102f0 f   kv_combo_leaf_panel.obj
 0001:0000f470       ?GetMessageMap@CKV_Combo_Leaf_Panel@@UAEPAUPanelMessageMap@vgui@@XZ 10010470 f i kv_combo_leaf_panel.obj
 0001:0000f4a0       ?GetAnimMap@CKV_Combo_Leaf_Panel@@UAEPAUPanelAnimationMap@@XZ 100104a0 f i kv_combo_leaf_panel.obj
 0001:0000f4b0       ?GetKBMap@CKV_Combo_Leaf_Panel@@UAEPAUPanelKeyBindingMap@vgui@@XZ 100104b0 f i kv_combo_leaf_panel.obj
 0001:0000f500       ?GetPanelClassName@CKV_Editor@@SAPBDXZ 10010500 f i kv_editor.obj
 0001:0000f510       ?PerformLayout@CKV_Editor@@UAEXXZ 10010510 f   kv_editor.obj
 0001:0000f540       ?FindParentForKey@CKV_Editor@@IAEPAVKeyValues@@PAV2@0@Z 10010540 f   kv_editor.obj
 0001:0000f5b0       ?SetFileSpec@CKV_Editor@@UAEXPBD0@Z 100105b0 f   kv_editor.obj
 0001:0000f630       ?SetFileFilter@CKV_Editor@@QAEXPBD0@Z 10010630 f   kv_editor.obj
 0001:0000f670       ?SetFileDirectory@CKV_Editor@@QAEXPBD@Z 10010670 f   kv_editor.obj
 0001:0000f690       ?ApplySchemeSettings@CKV_Editor@@UAEXPAVIScheme@vgui@@@Z 10010690 f   kv_editor.obj
 0001:0000f6c0       ?FindParentForKey@CKV_Editor@@IAEPAVKeyValues@@PAV2@@Z 100106c0 f   kv_editor.obj
 0001:0000f740       ?DeleteAllPanels@CKV_Editor@@IAEXXZ 10010740 f   kv_editor.obj
 0001:0000f820       ??0CKV_Editor@@QAE@PAVPanel@vgui@@PBD@Z 10010820 f   kv_editor.obj
 0001:0000f9a0       ?GetMessageMap@CKV_Editor@@UAEPAUPanelMessageMap@vgui@@XZ 100109a0 f i kv_editor.obj
 0001:0000f9d0       ?GetAnimMap@CKV_Editor@@UAEPAUPanelAnimationMap@@XZ 100109d0 f i kv_editor.obj
 0001:0000f9e0       ?GetKBMap@CKV_Editor@@UAEPAUPanelKeyBindingMap@vgui@@XZ 100109e0 f i kv_editor.obj
 0001:0000fa10       ?CreatePanel@CKV_Editor@@IAEPAVCKV_Editor_Base_Panel@@PBDPAV2@PAVKeyValues@@2@Z 10010a10 f   kv_editor.obj
 0001:0000fb80       ?FindFileSpecNodeForKey@CKV_Editor@@IAEPAVKeyValues@@PAV2@@Z 10010b80 f   kv_editor.obj
 0001:0000fcf0       ?AddToKey@CKV_Editor@@UAEXPAVKeyValues@@0PBD@Z 10010cf0 f   kv_editor.obj
 0001:0000fef0       ??_GCKV_Editor@@UAEPAXI@Z  10010ef0 f i kv_editor.obj
 0001:0000fef0       ??_ECKV_Editor@@UAEPAXI@Z  10010ef0 f i kv_editor.obj
 0001:0000ff30       ?UpdatePanels@CKV_Editor@@IAEXPAVKeyValues@@PAVCKV_Editor_Base_Panel@@_N@Z 10010f30 f   kv_editor.obj
 0001:00010100       ?SetFileSpec@CKV_Editor@@UAEXPAVKeyValues@@@Z 10011100 f   kv_editor.obj
 0001:00010140       ?SetKeys@CKV_Editor@@UAEXPAVKeyValues@@@Z 10011140 f   kv_editor.obj
 0001:000101c0       ?OnKeyAdded@CKV_Editor@@UAEXXZ 100111c0 f   kv_editor.obj
 0001:000101c0       ?OnKeyDeleted@CKV_Editor@@UAEXXZ 100111c0 f   kv_editor.obj
 0001:00010230       ?GetPanelClassName@CKV_Editor_Base_Panel@@SAPBDXZ 10011230 f i kv_editor_base_panel.obj
 0001:00010240       ?PerformLayout@CKV_Editor_Base_Panel@@UAEXXZ 10011240 f   kv_editor_base_panel.obj
 0001:00010250       ?SetKey@CKV_Editor_Base_Panel@@QAEXPAVKeyValues@@@Z 10011250 f   kv_editor_base_panel.obj
 0001:00010280       ?SetKeyParent@CKV_Editor_Base_Panel@@QAEXPAVKeyValues@@@Z 10011280 f   kv_editor_base_panel.obj
 0001:000102a0       ?SetFileSpecNode@CKV_Editor_Base_Panel@@QAEXPAVKeyValues@@@Z 100112a0 f   kv_editor_base_panel.obj
 0001:000102c0       ??0CKV_Editor_Base_Panel@@QAE@PAVPanel@vgui@@PBD@Z 100112c0 f   kv_editor_base_panel.obj
 0001:000103b0       ?GetMessageMap@CKV_Editor_Base_Panel@@UAEPAUPanelMessageMap@vgui@@XZ 100113b0 f i kv_editor_base_panel.obj
 0001:000103e0       ?GetAnimMap@CKV_Editor_Base_Panel@@UAEPAUPanelAnimationMap@@XZ 100113e0 f i kv_editor_base_panel.obj
 0001:000103f0       ?GetKBMap@CKV_Editor_Base_Panel@@UAEPAUPanelKeyBindingMap@vgui@@XZ 100113f0 f i kv_editor_base_panel.obj
 0001:00010420       ?GetPanelClassName@CKV_Editor_Frame@@SAPBDXZ 10011420 f i kv_editor_frame.obj
 0001:00010430       ?OnClose@CLocation_Editor_Frame@@MAEXXZ 10011430 f   location_editor_frame.obj
 0001:00010430       ?OnClose@CKV_Editor_Frame@@MAEXXZ 10011430 f   kv_editor_frame.obj
 0001:00010430       ?OnClose@CTile_Check_Frame@@MAEXXZ 10011430 f   tile_check.obj
 0001:00010440       ?PerformLayout@CKV_Editor_Frame@@UAEXXZ 10011440 f   kv_editor_frame.obj
 0001:00010500       ?DoFileOpen@CKV_Editor_Frame@@QAEXXZ 10011500 f   kv_editor_frame.obj
 0001:00010590       ?DoFileSaveAs@CKV_Editor_Frame@@QAEXXZ 10011590 f   kv_editor_frame.obj
 0001:00010620       ?OnFileSelected@CKV_Editor_Frame@@QAEXPBD@Z 10011620 f   kv_editor_frame.obj
 0001:00010760       ?GetPanelMap@CKV_Editor_Frame@@UAEPAUPanelMap_t@vgui@@XZ 10011760 f   kv_editor_frame.obj
 0001:00010770       ?GetMessageMap@CKV_Editor_Frame@@UAEPAUPanelMessageMap@vgui@@XZ 10011770 f i kv_editor_frame.obj
 0001:000107a0       ?GetAnimMap@CKV_Editor_Frame@@UAEPAUPanelAnimationMap@@XZ 100117a0 f i kv_editor_frame.obj
 0001:000107b0       ?GetKBMap@CKV_Editor_Frame@@UAEPAUPanelKeyBindingMap@vgui@@XZ 100117b0 f i kv_editor_frame.obj
 0001:000107e0       ??0CKV_Editor_Frame@@QAE@PAVPanel@vgui@@PBD@Z 100117e0 f   kv_editor_frame.obj
 0001:00010ac0       ??_GCKV_Editor_Frame@@UAEPAXI@Z 10011ac0 f i kv_editor_frame.obj
 0001:00010ac0       ??_ECKV_Editor_Frame@@UAEPAXI@Z 10011ac0 f i kv_editor_frame.obj
 0001:00010af0       ?OnCommand@CKV_Editor_Frame@@MAEXPBD@Z 10011af0 f   kv_editor_frame.obj
 0001:00010ba0       ?GetPanelClassName@CKV_Fit_Children_Panel@@SAPBDXZ 10011ba0 f i kv_fit_children_panel.obj
 0001:00010bb0       ?GetVar_m_iBorder@CKV_Fit_Children_Panel@@SAPAXPAVPanel@vgui@@@Z 10011bb0 f i kv_fit_children_panel.obj
 0001:00010bc0       ?GetVar_m_iSpacing@CKV_Fit_Children_Panel@@SAPAXPAVPanel@vgui@@@Z 10011bc0 f i kv_fit_children_panel.obj
 0001:00010bd0       ?Grow@?$CUtlMemory@UPanelAnimationMapEntry@@H@@QAEXH@Z 10011bd0 f i kv_fit_children_panel.obj
 0001:00010bd0       ?Grow@?$CUtlMemory@U?$UtlRBTreeNode_t@UNode_t@?$CUtlMap@PBDPAXH@@H@@H@@QAEXH@Z 10011bd0 f i tilegen_expressions.obj
 0001:00010c70       ?PerformLayout@CKV_Fit_Children_Panel@@UAEXXZ 10011c70 f   kv_fit_children_panel.obj
 0001:00010df0       ?Find@?$CUtlSortVector@PAVCKV_Editor_Base_Panel@@VFitChildrenLessFunc@@@@QBEHABQAVCKV_Editor_Base_Panel@@@Z 10011df0 f i kv_fit_children_panel.obj
 0001:00010f40       ?FindLessOrEqual@?$CUtlSortVector@PAVCKV_Editor_Base_Panel@@VFitChildrenLessFunc@@@@QBEHABQAVCKV_Editor_Base_Panel@@@Z 10011f40 f i kv_fit_children_panel.obj
 0001:00011090       ?Remove@?$CUtlSortVector@PAVCKV_Editor_Base_Panel@@VFitChildrenLessFunc@@@@QAEXABQAVCKV_Editor_Base_Panel@@@Z 10012090 f i kv_fit_children_panel.obj
 0001:00011140       ?InsertBefore@?$CUtlVector@UPanelAnimationMapEntry@@V?$CUtlMemory@UPanelAnimationMapEntry@@H@@@@QAEHHABUPanelAnimationMapEntry@@@Z 10012140 f i kv_fit_children_panel.obj
 0001:000111d0       ?RemoveAutoPositionPanel@CKV_Fit_Children_Panel@@QAEXPAVCKV_Editor_Base_Panel@@@Z 100121d0 f   kv_fit_children_panel.obj
 0001:000111f0       ?Insert@?$CUtlSortVector@PAVCKV_Editor_Base_Panel@@VFitChildrenLessFunc@@@@QAEHABQAVCKV_Editor_Base_Panel@@@Z 100121f0 f i kv_fit_children_panel.obj
 0001:000112c0       ?InitVar@PanelAnimationVar_m_iBorder@CKV_Fit_Children_Panel@@SAXXZ 100122c0 f i kv_fit_children_panel.obj
 0001:00011320       ?InitVar@PanelAnimationVar_m_iSpacing@CKV_Fit_Children_Panel@@SAXXZ 10012320 f i kv_fit_children_panel.obj
 0001:00011380       ?AddAutoPositionPanel@CKV_Fit_Children_Panel@@QAEXPAVCKV_Editor_Base_Panel@@@Z 10012380 f   kv_fit_children_panel.obj
 0001:000113a0       ??0CKV_Fit_Children_Panel@@QAE@PAVPanel@vgui@@PBD@Z 100123a0 f   kv_fit_children_panel.obj
 0001:000114b0       ?GetMessageMap@CKV_Fit_Children_Panel@@UAEPAUPanelMessageMap@vgui@@XZ 100124b0 f i kv_fit_children_panel.obj
 0001:000114e0       ?GetAnimMap@CKV_Fit_Children_Panel@@UAEPAUPanelAnimationMap@@XZ 100124e0 f i kv_fit_children_panel.obj
 0001:000114f0       ?GetKBMap@CKV_Fit_Children_Panel@@UAEPAUPanelKeyBindingMap@vgui@@XZ 100124f0 f i kv_fit_children_panel.obj
 0001:00011520       ??_ECKV_Fit_Children_Panel@@UAEPAXI@Z 10012520 f i kv_fit_children_panel.obj
 0001:00011520       ??_GCKV_Fit_Children_Panel@@UAEPAXI@Z 10012520 f i kv_fit_children_panel.obj
 0001:00011550       ?GetPanelClassName@CKV_Leaf_Panel@@SAPBDXZ 10012550 f i kv_leaf_panel.obj
 0001:00011560       ?ApplySchemeSettings@CKV_Leaf_Panel@@UAEXPAVIScheme@vgui@@@Z 10012560 f   kv_leaf_panel.obj
 0001:000115b0       ?UpdatePanel@CKV_Leaf_Panel@@UAEXXZ 100125b0 f   kv_leaf_panel.obj
 0001:000116f0       ?TextEntryChanged@CKV_Leaf_Panel@@UAEXPAVPanel@vgui@@@Z 100126f0 f   kv_leaf_panel.obj
 0001:00011790       ?OnCommand@CKV_Node_Panel@@UAEXPBD@Z 10012790 f   kv_node_panel.obj
 0001:00011790       ?OnCommand@CKV_Leaf_Panel@@UAEXPBD@Z 10012790 f   kv_leaf_panel.obj
 0001:00011800       ?InitVar@PanelMessageFunc_TextEntryChanged@CKV_Leaf_Panel@@SAXXZ 10012800 f i kv_leaf_panel.obj
 0001:000118a0       ??0CKV_Leaf_Panel@@QAE@PAVPanel@vgui@@PBD@Z 100128a0 f   kv_leaf_panel.obj
 0001:00011a20       ?GetMessageMap@CKV_Leaf_Panel@@UAEPAUPanelMessageMap@vgui@@XZ 10012a20 f i kv_leaf_panel.obj
 0001:00011a50       ?GetAnimMap@CKV_Leaf_Panel@@UAEPAUPanelAnimationMap@@XZ 10012a50 f i kv_leaf_panel.obj
 0001:00011a60       ?GetKBMap@CKV_Leaf_Panel@@UAEPAUPanelKeyBindingMap@vgui@@XZ 10012a60 f i kv_leaf_panel.obj
 0001:00011ab0       ?GetPanelClassName@CKV_Node_Panel@@SAPBDXZ 10012ab0 f i kv_node_panel.obj
 0001:00011ac0       ?GetVar_m_iLabelInsetX@CKV_Node_Panel@@SAPAXPAVPanel@vgui@@@Z 10012ac0 f i kv_node_panel.obj
 0001:00011ad0       ?GetVar_m_iLabelInsetY@CKV_Node_Panel@@SAPAXPAVPanel@vgui@@@Z 10012ad0 f i kv_node_panel.obj
 0001:00011ae0       ?ApplySchemeSettings@CKV_Node_Panel@@UAEXPAVIScheme@vgui@@@Z 10012ae0 f   kv_node_panel.obj
 0001:00011b20       ?OnAddButtonPressed@CKV_Node_Panel@@UAEXPBD@Z 10012b20 f   kv_node_panel.obj
 0001:00011b50       ?PerformLayout@CKV_Node_Panel@@UAEXXZ 10012b50 f   kv_node_panel.obj
 0001:00011cc0       ?InitVar@PanelMessageFunc_OnAddButtonPressed@CKV_Node_Panel@@SAXXZ 10012cc0 f i kv_node_panel.obj
 0001:00011d60       ?InitVar@PanelAnimationVar_m_iLabelInsetX@CKV_Node_Panel@@SAXXZ 10012d60 f i kv_node_panel.obj
 0001:00011dc0       ?InitVar@PanelAnimationVar_m_iLabelInsetY@CKV_Node_Panel@@SAXXZ 10012dc0 f i kv_node_panel.obj
 0001:00011e20       ?UpdatePanel@CKV_Node_Panel@@UAEXXZ 10012e20 f   kv_node_panel.obj
 0001:000121e0       ??0CKV_Node_Panel@@QAE@PAVPanel@vgui@@PBD@Z 100131e0 f   kv_node_panel.obj
 0001:00012360       ?GetMessageMap@CKV_Node_Panel@@UAEPAUPanelMessageMap@vgui@@XZ 10013360 f i kv_node_panel.obj
 0001:00012390       ?GetAnimMap@CKV_Node_Panel@@UAEPAUPanelAnimationMap@@XZ 10013390 f i kv_node_panel.obj
 0001:000123a0       ?GetKBMap@CKV_Node_Panel@@UAEPAUPanelKeyBindingMap@vgui@@XZ 100133a0 f i kv_node_panel.obj
 0001:000123d0       ??_GCKV_Node_Panel@@UAEPAXI@Z 100133d0 f i kv_node_panel.obj
 0001:000123d0       ??_ECKV_Node_Panel@@UAEPAXI@Z 100133d0 f i kv_node_panel.obj
 0001:00012430       ?GetPanelClassName@CGroup_Edit_Page@@SAPBDXZ 10013430 f i location_editor_frame.obj
 0001:00012440       ?GetPanelClassName@CLocation_Editor_Frame@@SAPBDXZ 10013440 f i location_editor_frame.obj
 0001:00012450       ?KeyValuesChanged@CLocation_Editor_Frame@@UAEXPAVPanel@vgui@@@Z 10013450 f   location_editor_frame.obj
 0001:000124b0       ?PerformLayout@CLocation_Editor_Frame@@UAEXXZ 100134b0 f   location_editor_frame.obj
 0001:000124f0       ?SetGroup@CLocation_Editor_Frame@@QAEXPAVIASW_Location_Group@@@Z 100134f0 f   location_editor_frame.obj
 0001:00012550       ?PerformLayout@CGroup_Edit_Page@@UAEXXZ 10013550 f   location_editor_frame.obj
 0001:000125c0       ?OnCommand@CGroup_Edit_Page@@UAEXPBD@Z 100135c0 f   location_editor_frame.obj
 0001:000125d0       ?ApplySchemeSettings@CGroup_Edit_Page@@UAEXPAVIScheme@vgui@@@Z 100135d0 f   location_editor_frame.obj
 0001:000125d0       ?ApplySchemeSettings@CToggleExitsPanel@@UAEXPAVIScheme@vgui@@@Z 100135d0 f   ToggleExitsPanel.obj
 0001:000125e0       ??_9TextEntry@vgui@@$BEFM@AE 100135e0 f i RoomTemplateEditDialog.obj
 0001:000125e0       ??_9CLocation_Editor_Frame@@$BEFM@AE 100135e0 f i location_editor_frame.obj
 0001:000125e0       ??_9BuildModeDialog@vgui@@$BEFM@AE 100135e0 f i vgui_controls:BuildModeDialog.obj
 0001:000125e0       ??_9FileOpenDialog@vgui@@$BEFM@AE 100135e0 f i vgui_controls:FileOpenDialog.obj
 0001:000125f0       ?GetMessageMap@CGroup_Edit_Page@@UAEPAUPanelMessageMap@vgui@@XZ 100135f0 f i location_editor_frame.obj
 0001:00012620       ?GetAnimMap@CGroup_Edit_Page@@UAEPAUPanelAnimationMap@@XZ 10013620 f i location_editor_frame.obj
 0001:00012630       ?GetKBMap@CGroup_Edit_Page@@UAEPAUPanelKeyBindingMap@vgui@@XZ 10013630 f i location_editor_frame.obj
 0001:00012660       ?GetMessageMap@CLocation_Editor_Frame@@UAEPAUPanelMessageMap@vgui@@XZ 10013660 f i location_editor_frame.obj
 0001:00012690       ?GetAnimMap@CLocation_Editor_Frame@@UAEPAUPanelAnimationMap@@XZ 10013690 f i location_editor_frame.obj
 0001:000126a0       ?GetKBMap@CLocation_Editor_Frame@@UAEPAUPanelKeyBindingMap@vgui@@XZ 100136a0 f i location_editor_frame.obj
 0001:000126d0       ??_ECLocation_Editor_Frame@@UAEPAXI@Z 100136d0 f i location_editor_frame.obj
 0001:000126d0       ??_GCLocation_Editor_Frame@@UAEPAXI@Z 100136d0 f i location_editor_frame.obj
 0001:00012700       ?UpdateTree@CLocation_Editor_Frame@@IAEXXZ 10013700 f   location_editor_frame.obj
 0001:00012870       ?SetLocationID@CLocation_Editor_Frame@@IAEXH@Z 10013870 f   location_editor_frame.obj
 0001:00012920       ??0CGroup_Edit_Page@@QAE@PAVPanel@vgui@@PBD@Z 10013920 f   location_editor_frame.obj
 0001:00012a90       ??_GCGroup_Edit_Page@@UAEPAXI@Z 10013a90 f i location_editor_frame.obj
 0001:00012a90       ??_ECGroup_Edit_Page@@UAEPAXI@Z 10013a90 f i location_editor_frame.obj
 0001:00012ac0       ?OnCommand@CLocation_Editor_Frame@@MAEXPBD@Z 10013ac0 f   location_editor_frame.obj
 0001:00012b40       ?NewGroup@CLocation_Editor_Frame@@UAEXPAVPanel@vgui@@@Z 10013b40 f   location_editor_frame.obj
 0001:00012b60       ?DeleteGroup@CLocation_Editor_Frame@@UAEXPAVPanel@vgui@@@Z 10013b60 f   location_editor_frame.obj
 0001:00012b90       ?OnTreeViewItemSelected@CLocation_Editor_Frame@@MAEXH@Z 10013b90 f   location_editor_frame.obj
 0001:00012c60       ?InitVar@PanelMessageFunc_KeyValuesChanged@CLocation_Editor_Frame@@SAXXZ 10013c60 f i location_editor_frame.obj
 0001:00012d00       ?InitVar@PanelMessageFunc_NewGroup@CLocation_Editor_Frame@@SAXXZ 10013d00 f i location_editor_frame.obj
 0001:00012da0       ?InitVar@PanelMessageFunc_DeleteGroup@CLocation_Editor_Frame@@SAXXZ 10013da0 f i location_editor_frame.obj
 0001:00012e40       ?InitVar@PanelMessageFunc_OnTreeViewItemSelected@CLocation_Editor_Frame@@SAXXZ 10013e40 f i location_editor_frame.obj
 0001:00012ee0       ??0CLocation_Editor_Frame@@QAE@PAVPanel@vgui@@PBD@Z 10013ee0 f   location_editor_frame.obj
 0001:00013190       ?GetPanelClassName@CLocation_Panel@@SAPBDXZ 10014190 f i location_layout_panel.obj
 0001:000131a0       ?GetPanelClassName@CLocation_Layout_Panel@@SAPBDXZ 100141a0 f i location_layout_panel.obj
 0001:000131b0       ?PerformLayout@CLocation_Layout_Panel@@UAEXXZ 100141b0 f   location_layout_panel.obj
 0001:00013200       ?SetLocationID@CLocation_Panel@@QAEXH@Z 10014200 f   location_layout_panel.obj
 0001:00013290       ?IsCursorOverHex@CLocation_Panel@@AAE_NXZ 10014290 f   location_layout_panel.obj
 0001:00013340       ?PerformLayout@CLocation_Panel@@UAEXXZ 10014340 f   location_layout_panel.obj
 0001:00013450       ?GetMessageMap@CLocation_Panel@@UAEPAUPanelMessageMap@vgui@@XZ 10014450 f i location_layout_panel.obj
 0001:00013480       ?GetAnimMap@CLocation_Panel@@UAEPAUPanelAnimationMap@@XZ 10014480 f i location_layout_panel.obj
 0001:00013490       ?GetKBMap@CLocation_Panel@@UAEPAUPanelKeyBindingMap@vgui@@XZ 10014490 f i location_layout_panel.obj
 0001:000134c0       ?ApplySchemeSettings@CLocation_Layout_Panel@@UAEXPAVIScheme@vgui@@@Z 100144c0 f   location_layout_panel.obj
 0001:00013510       ??0CLocation_Panel@@QAE@PAVPanel@vgui@@PBD@Z 10014510 f   location_layout_panel.obj
 0001:000136a0       ??_GCLocation_Panel@@UAEPAXI@Z 100146a0 f i location_layout_panel.obj
 0001:000136a0       ??_ECLocation_Panel@@UAEPAXI@Z 100146a0 f i location_layout_panel.obj
 0001:000136e0       ?OnMousePressed@CLocation_Panel@@UAEXW4ButtonCode_t@@@Z 100146e0 f   location_layout_panel.obj
 0001:00013770       ?OnMouseReleased@CLocation_Panel@@UAEXW4ButtonCode_t@@@Z 10014770 f   location_layout_panel.obj
 0001:000137a0       ?UpdateHexColor@CLocation_Panel@@AAEXXZ 100147a0 f   location_layout_panel.obj
 0001:00013880       ?ApplySchemeSettings@CLocation_Panel@@UAEXPAVIScheme@vgui@@@Z 10014880 f   location_layout_panel.obj
 0001:00013920       ?OnThink@CLocation_Panel@@UAEXXZ 10014920 f   location_layout_panel.obj
 0001:00013b70       ??0CLocation_Layout_Panel@@QAE@PAVPanel@vgui@@0PBD@Z 10014b70 f   location_layout_panel.obj
 0001:00013cc0       ?GetMessageMap@CLocation_Layout_Panel@@UAEPAUPanelMessageMap@vgui@@XZ 10014cc0 f i location_layout_panel.obj
 0001:00013cf0       ?GetAnimMap@CLocation_Layout_Panel@@UAEPAUPanelAnimationMap@@XZ 10014cf0 f i location_layout_panel.obj
 0001:00013d00       ?GetKBMap@CLocation_Layout_Panel@@UAEPAUPanelKeyBindingMap@vgui@@XZ 10014d00 f i location_layout_panel.obj
 0001:00013d30       ??_ECLocation_Layout_Panel@@UAEPAXI@Z 10014d30 f i location_layout_panel.obj
 0001:00013d30       ??_GCLocation_Layout_Panel@@UAEPAXI@Z 10014d30 f i location_layout_panel.obj
 0001:00013d70       ?CreateLocationPanels@CLocation_Layout_Panel@@QAEXXZ 10014d70 f   location_layout_panel.obj
 0001:00013ef0       ?OnThink@CLocation_Layout_Panel@@UAEXXZ 10014ef0 f   location_layout_panel.obj
 0001:00013f00       ?GetPanelClassName@CMission_Txt_Panel@@SAPBDXZ 10014f00 f i mission_txt_leaf_panel.obj
 0001:00013f10       ?DoPick@CMission_Txt_Panel@@QAEXXZ 10014f10 f   mission_txt_leaf_panel.obj
 0001:00013fd0       ?GetPanelMap@CMission_Txt_Panel@@UAEPAUPanelMap_t@vgui@@XZ 10014fd0 f   mission_txt_leaf_panel.obj
 0001:00013fe0       ?OnFileSelected@CMission_Txt_Panel@@QAEXPBD@Z 10014fe0 f   mission_txt_leaf_panel.obj
 0001:00014070       ?PerformLayout@CMission_Txt_Panel@@UAEXXZ 10015070 f   mission_txt_leaf_panel.obj
 0001:000140e0       ?OnCommand@CMission_Txt_Panel@@UAEXPBD@Z 100150e0 f   mission_txt_leaf_panel.obj
 0001:00014120       ??0CMission_Txt_Panel@@QAE@PAVPanel@vgui@@PBD@Z 10015120 f   mission_txt_leaf_panel.obj
 0001:00014220       ?GetMessageMap@CMission_Txt_Panel@@UAEPAUPanelMessageMap@vgui@@XZ 10015220 f i mission_txt_leaf_panel.obj
 0001:00014250       ?GetAnimMap@CMission_Txt_Panel@@UAEPAUPanelAnimationMap@@XZ 10015250 f i mission_txt_leaf_panel.obj
 0001:00014260       ?GetKBMap@CMission_Txt_Panel@@UAEPAUPanelKeyBindingMap@vgui@@XZ 10015260 f i mission_txt_leaf_panel.obj
 0001:00014290       ??_GCMission_Txt_Panel@@UAEPAXI@Z 10015290 f i mission_txt_leaf_panel.obj
 0001:00014290       ??_ECNewElementPanel@@UAEPAXI@Z 10015290 f i node_panel.obj
 0001:00014290       ??_GCKV_Combo_Leaf_Panel@@UAEPAXI@Z 10015290 f i kv_combo_leaf_panel.obj
 0001:00014290       ??_GCKV_Leaf_Panel@@UAEPAXI@Z 10015290 f i kv_leaf_panel.obj
 0001:00014290       ??_ECMission_Txt_Panel@@UAEPAXI@Z 10015290 f i mission_txt_leaf_panel.obj
 0001:00014290       ??_ECTileGenLayoutPage@@UAEPAXI@Z 10015290 f i tilegen_pages.obj
 0001:00014290       ??_ECKV_Editor_Base_Panel@@UAEPAXI@Z 10015290 f i kv_editor_base_panel.obj
 0001:00014290       ??_GCKV_Editor_Base_Panel@@UAEPAXI@Z 10015290 f i kv_editor_base_panel.obj
 0001:00014290       ??_GCNewElementPanel@@UAEPAXI@Z 10015290 f i node_panel.obj
 0001:00014290       ??_GCTilegenKVEditorPage@@UAEPAXI@Z 10015290 f i tilegen_pages.obj
 0001:00014290       ??_GCTileGenLayoutPage@@UAEPAXI@Z 10015290 f i tilegen_pages.obj
 0001:00014290       ??_ECTilegenKVEditorPage@@UAEPAXI@Z 10015290 f i tilegen_pages.obj
 0001:00014290       ??_ECKV_Leaf_Panel@@UAEPAXI@Z 10015290 f i kv_leaf_panel.obj
 0001:00014290       ??_ECKV_Combo_Leaf_Panel@@UAEPAXI@Z 10015290 f i kv_combo_leaf_panel.obj
 0001:000142e0       ?GetPanelClassName@CThemeRoomPicker@@SAPBDXZ 100152e0 f i theme_room_picker.obj
 0001:000142f0       ?PopulateThemeList@CThemeRoomPicker@@UAEXXZ 100152f0 f   theme_room_picker.obj
 0001:00014330       ?ThemeClicked@CThemeRoomPicker@@UAEXPAVCThemeDetails@@@Z 10015330 f   theme_room_picker.obj
 0001:000143b0       ?ShouldHighlight@CThemeRoomPicker@@UAE_NPAVCThemeDetails@@@Z 100153b0 f   theme_room_picker.obj
 0001:000143e0       ?OnCommand@CThemeRoomPicker@@UAEXPBD@Z 100153e0 f   theme_room_picker.obj
 0001:00014470       ?GetMessageMap@CThemeRoomPicker@@UAEPAUPanelMessageMap@vgui@@XZ 10015470 f i theme_room_picker.obj
 0001:000144a0       ?GetAnimMap@CThemeRoomPicker@@UAEPAUPanelAnimationMap@@XZ 100154a0 f i theme_room_picker.obj
 0001:000144b0       ?GetKBMap@CThemeRoomPicker@@UAEPAUPanelKeyBindingMap@vgui@@XZ 100154b0 f i theme_room_picker.obj
 0001:000144e0       ??0CThemeRoomPicker@@QAE@PAVPanel@vgui@@PBDPAVKeyValues@@_N@Z 100154e0 f   theme_room_picker.obj
 0001:00014680       ??_GCThemeRoomPicker@@UAEPAXI@Z 10015680 f i theme_room_picker.obj
 0001:00014680       ??_ECThemeRoomPicker@@UAEPAXI@Z 10015680 f i theme_room_picker.obj
 0001:000146b0       ?ShouldStopProcessingActions@CLayoutSystem@@QBE_NXZ 100156b0 f i tilegen_actions.obj
 0001:000146d0       ??0CTilegenAction_AddRoomCandidates@@QAE@XZ 100156d0 f   tilegen_actions.obj
 0001:00014700       ??1CTilegenAction_AddRoomCandidates@@UAE@XZ 10015700 f   tilegen_actions.obj
 0001:00014770       ??0CTilegenAction_AddRoomCandidatesAtLocation@@QAE@PAV?$ITilegenExpression@PBD@@PAV?$ITilegenExpression@H@@1PAV?$ITilegenExpression@_N@@@Z 10015770 f   tilegen_actions.obj
 0001:000147a0       ?LoadFromKeyValues@CTilegenAction_ChooseCandidate@@UAE_NPAVKeyValues@@@Z 100157a0 f   tilegen_actions.obj
 0001:000147d0       ??0CTilegenAction_FilterCandidatesByDirection@@QAE@PAV?$ITilegenExpression@PBD@@PAV?$ITilegenExpression@H@@@Z 100157d0 f   tilegen_actions.obj
 0001:000147f0       ??0CTilegenAction_SwitchState@@QAE@XZ 100157f0 f   tilegen_actions.obj
 0001:00014800       ?Execute@CTilegenAction_SwitchState@@UAEXPAVCLayoutSystem@@@Z 10015800 f   tilegen_actions.obj
 0001:00014860       ?Execute@CTilegenAction_FinishGeneration@@UAEXPAVCLayoutSystem@@@Z 10015860 f   tilegen_actions.obj
 0001:00014870       ?Execute@CTilegenAction_EpicFail@@UAEXPAVCLayoutSystem@@@Z 10015870 f   tilegen_actions.obj
 0001:00014880       ?Execute@CTilegenAction_EnsureRoomExists@@UAEXPAVCLayoutSystem@@@Z 10015880 f   tilegen_actions.obj
 0001:000149c0       ??0CTilegenAction_AddConnectorRoomCandidates@@QAE@PAVITilegenAction@@@Z 100159c0 f   tilegen_actions.obj
 0001:000149f0       ??0CTilegenAction_LoadLayout@@QAE@XZ 100159f0 f   tilegen_actions.obj
 0001:00014a00       ?LoadFromKeyValues@CTilegenAction_LoadLayout@@UAE_NPAVKeyValues@@@Z 10015a00 f   tilegen_actions.obj
 0001:00014a70       ??_ECTilegenAction_AddRoomCandidates@@UAEPAXI@Z 10015a70 f i tilegen_actions.obj
 0001:00014a70       ??_GCTilegenAction_AddRoomCandidates@@UAEPAXI@Z 10015a70 f i tilegen_actions.obj
 0001:00014aa0       ??_ECTilegenAction_AddRoomCandidatesAtLocation@@UAEPAXI@Z 10015aa0 f i tilegen_actions.obj
 0001:00014aa0       ??_GCTilegenAction_AddRoomCandidatesAtLocation@@UAEPAXI@Z 10015aa0 f i tilegen_actions.obj
 0001:00014b10       ??_ECTilegenAction_FilterCandidatesByDirection@@UAEPAXI@Z 10015b10 f i tilegen_actions.obj
 0001:00014b10       ??_GCTilegenAction_FilterCandidatesByDirection@@UAEPAXI@Z 10015b10 f i tilegen_actions.obj
 0001:00014b60       ??_ECTilegenAction_SwitchState@@UAEPAXI@Z 10015b60 f i tilegen_actions.obj
 0001:00014b60       ??_GCTilegenAction_SwitchState@@UAEPAXI@Z 10015b60 f i tilegen_actions.obj
 0001:00014ba0       ??_ECTilegenAction_AddConnectorRoomCandidates@@UAEPAXI@Z 10015ba0 f i tilegen_actions.obj
 0001:00014ba0       ??_GCTilegenAction_AddConnectorRoomCandidates@@UAEPAXI@Z 10015ba0 f i tilegen_actions.obj
 0001:00014c00       ?Grow@?$CUtlMemory@URoomPlacementInstance_t@CTilegenAction_PlaceComponent@@H@@QAEXH@Z 10015c00 f i tilegen_actions.obj
 0001:00014ca0       ?Grow@?$CUtlMemory@VCExit@@H@@QAEXH@Z 10015ca0 f i tilegen_actions.obj
 0001:00014d30       ?Grow@?$CUtlMemory@UActionConditionPair_t@@H@@QAEXH@Z 10015d30 f i tilegen_actions.obj
 0001:00014d30       ?Grow@?$CUtlMemory@UMatchTuple@?3??Find@CASW_MissionTextDB@@QAEPBVCASW_MissionTextSpec@@PBD0@Z@H@@QAEXH@Z 10015d30 f i asw_mission_text_database.obj
 0001:00014d30       ?Grow@?$CUtlMemory@URoomPlacementInfo_t@CTilegenAction_PlaceComponent@@H@@QAEXH@Z 10015d30 f i tilegen_actions.obj
 0001:00014d30       ?Grow@?$CUtlMemory@UEnumEntry_t@@H@@QAEXH@Z 10015d30 f i tilegen_enum.obj
 0001:00014dd0       ?Grow@?$CUtlMemory@VCRoomCandidate@@H@@QAEXH@Z 10015dd0 f i tilegen_actions.obj
 0001:00014e70       ?OnBeginGeneration@CTilegenAction_NestedActions@@UAEXPAVCLayoutSystem@@@Z 10015e70 f   tilegen_actions.obj
 0001:00014ea0       ?OnStateChanged@CTilegenAction_NestedActions@@UAEXPAVCLayoutSystem@@@Z 10015ea0 f   tilegen_actions.obj
 0001:00014ed0       ?Execute@CTilegenAction_NestedActions@@UAEXPAVCLayoutSystem@@@Z 10015ed0 f   tilegen_actions.obj
 0001:00014f40       ?Execute@CTilegenAction_ChooseCandidate@@UAEXPAVCLayoutSystem@@@Z 10015f40 f   tilegen_actions.obj
 0001:00015090       ?Execute@CTilegenAction_FilterCandidatesByDirection@@UAEXPAVCLayoutSystem@@@Z 10016090 f   tilegen_actions.obj
 0001:00015230       ?Execute@CTilegenAction_FilterCandidatesForLinearGrowth@@UAEXPAVCLayoutSystem@@@Z 10016230 f   tilegen_actions.obj
 0001:00015310       ?Execute@CTilegenAction_LoadLayout@@UAEXPAVCLayoutSystem@@@Z 10016310 f   tilegen_actions.obj
 0001:00015470       ?CreateInstance@?$CTilegenClassRegistry@V?$ITilegenExpression@H@@@@SAPAV?$ITilegenExpression@H@@PBD@Z 10016470 f i tilegen_actions.obj
 0001:00015500       ?CreateInstance@?$CTilegenClassRegistry@V?$ITilegenExpression@_N@@@@SAPAV?$ITilegenExpression@_N@@PBD@Z 10016500 f i tilegen_actions.obj
 0001:00015590       ?FindLessOrEqual@?$CUtlSortVector@URoomPlacementInstance_t@CTilegenAction_PlaceComponent@@VCRoomPlacementInstanceLessFunc@2@@@QBEHABURoomPlacementInstance_t@CTilegenAction_PlaceComponent@@@Z 10016590 f i tilegen_actions.obj
 0001:00015640       ?CreateInstance@?$CTilegenClassRegistry@V?$ITilegenExpression@PBD@@@@SAPAV?$ITilegenExpression@PBD@@PBD@Z 10016640 f i tilegen_actions.obj
 0001:000156d0       ?CreateInstance@?$CTilegenClassRegistry@V?$ITilegenExpression@PBVCRoom@@@@@@SAPAV?$ITilegenExpression@PBVCRoom@@@@PBD@Z 100166d0 f i tilegen_actions.obj
 0001:00015880       ??$CreateFromKeyValuesBlock@V?$ITilegenExpression@_N@@@@YA_NPAVKeyValues@@PBD1PAPAV?$ITilegenExpression@_N@@_N3@Z 10016880 f i tilegen_actions.obj
 0001:00015940       ??$CreateFromKeyValuesBlock@V?$ITilegenExpression@H@@@@YA_NPAVKeyValues@@PBD1PAPAV?$ITilegenExpression@H@@_N3@Z 10016940 f i tilegen_actions.obj
 0001:00015b50       ?InsertMultipleBefore@?$CUtlVector@UKeyValue_t@@V?$CUtlMemory@UKeyValue_t@@H@@@@QAEHHH@Z 10016b50 f i tilegen_actions.obj
 0001:00015bc0       ??0CTilegenAction_NestedActions@@QAE@XZ 10016bc0 f   tilegen_actions.obj
 0001:00015be0       ??1CTilegenAction_NestedActions@@UAE@XZ 10016be0 f   tilegen_actions.obj
 0001:00015c90       ?Insert@?$CUtlSortVector@URoomPlacementInstance_t@CTilegenAction_PlaceComponent@@VCRoomPlacementInstanceLessFunc@2@@@QAEHABURoomPlacementInstance_t@CTilegenAction_PlaceComponent@@@Z 10016c90 f i tilegen_actions.obj
 0001:00015d70       ??$CreateFromKeyValuesBlock@V?$ITilegenExpression@PBD@@@@YA_NPAVKeyValues@@PBD1PAPAV?$ITilegenExpression@PBD@@_N3@Z 10016d70 f i tilegen_actions.obj
 0001:00015e30       ??$CreateFromKeyValuesBlock@V?$ITilegenExpression@PBVCRoom@@@@@@YA_NPAVKeyValues@@PBD1PAPAV?$ITilegenExpression@PBVCRoom@@@@_N3@Z 10016e30 f i tilegen_actions.obj
 0001:00015ef0       ??_GCTilegenAction_NestedActions@@UAEPAXI@Z 10016ef0 f i tilegen_actions.obj
 0001:00015ef0       ??_ECTilegenAction_NestedActions@@UAEPAXI@Z 10016ef0 f i tilegen_actions.obj
 0001:00015f30       ?LoadFromKeyValues@CTilegenAction_NestedActions@@UAE_NPAVKeyValues@@@Z 10016f30 f   tilegen_actions.obj
 0001:00016140       ?LoadFromKeyValues@CTilegenAction_FilterCandidatesForLinearGrowth@@UAE_NPAVKeyValues@@@Z 10017140 f   tilegen_actions.obj
 0001:00016170       ??1CTilegenAction_PlaceComponent@@UAE@XZ 10017170 f   tilegen_actions.obj
 0001:00016200       ?LoadRoomPlacementsFromKeyValues@CTilegenAction_PlaceComponent@@AAE_NPAVKeyValues@@PAV?$CUtlVector@URoomPlacementInfo_t@CTilegenAction_PlaceComponent@@V?$CUtlMemory@URoomPlacementInfo_t@CTilegenAction_PlaceComponent@@H@@@@@Z 10017200 f   tilegen_actions.obj
 0001:000163e0       ?LoadFromKeyValues@CTilegenAction_AddInstances@@UAE_NPAVKeyValues@@@Z 100173e0 f   tilegen_actions.obj
 0001:000165d0       ?LoadFromKeyValues@CTilegenAction_AddRoomCandidates@@UAE_NPAVKeyValues@@@Z 100175d0 f   tilegen_actions.obj
 0001:000167c0       ?LoadFromKeyValues@CTilegenAction_AddRoomCandidatesAtLocation@@UAE_NPAVKeyValues@@@Z 100177c0 f   tilegen_actions.obj
 0001:000168c0       ?LoadFromKeyValues@CTilegenAction_FilterCandidatesByDirection@@UAE_NPAVKeyValues@@@Z 100178c0 f   tilegen_actions.obj
 0001:00016920       ?LoadFromKeyValues@CTilegenAction_SwitchState@@UAE_NPAVKeyValues@@@Z 10017920 f   tilegen_actions.obj
 0001:000169a0       ?LoadFromKeyValues@CTilegenAction_EnsureRoomExists@@UAE_NPAVKeyValues@@@Z 100179a0 f   tilegen_actions.obj
 0001:000169d0       ?LoadFromKeyValues@CTilegenAction_AddConnectorRoomCandidates@@UAE_NPAVKeyValues@@@Z 100179d0 f   tilegen_actions.obj
 0001:00016ae0       ?Execute@CTilegenAction_AddConnectorRoomCandidates@@UAEXPAVCLayoutSystem@@@Z 10017ae0 f   tilegen_actions.obj
 0001:00016ea0       ??0CTilegenAction_PlaceComponent@@QAE@XZ 10017ea0 f   tilegen_actions.obj
 0001:00016f00       ??_ECTilegenAction_PlaceComponent@@UAEPAXI@Z 10017f00 f i tilegen_actions.obj
 0001:00016f00       ??_GCTilegenAction_PlaceComponent@@UAEPAXI@Z 10017f00 f i tilegen_actions.obj
 0001:00016f30       ?OnBeginGeneration@CTilegenAction_PlaceComponent@@UAEXPAVCLayoutSystem@@@Z 10017f30 f   tilegen_actions.obj
 0001:000170f0       ?LoadFromKeyValues@CTilegenAction_PlaceComponent@@UAE_NPAVKeyValues@@@Z 100180f0 f   tilegen_actions.obj
 0001:00017380       ??0CTilegenAction_AddInstanceToRoom@@QAE@XZ 10018380 f   tilegen_actions.obj
 0001:000173a0       ?LoadFromKeyValues@CTilegenAction_AddInstanceToRoom@@UAE_NPAVKeyValues@@@Z 100183a0 f   tilegen_actions.obj
 0001:00017730       ?Execute@CTilegenAction_AddRoomCandidates@@UAEXPAVCLayoutSystem@@@Z 10018730 f   tilegen_actions.obj
 0001:00017810       ?Execute@CTilegenAction_AddRoomCandidatesAtLocation@@UAEXPAVCLayoutSystem@@@Z 10018810 f   tilegen_actions.obj
 0001:000179d0       ?PlaceRoom@CTilegenAction_PlaceComponent@@AAE_NPAVCLayoutSystem@@PBVCRoomTemplate@@@Z 100189d0 f   tilegen_actions.obj
 0001:00017b20       ??0CTilegenAction_AddInstances@@QAE@XZ 10018b20 f   tilegen_actions.obj
 0001:00017b50       ??_GCTilegenAction_AddInstances@@UAEPAXI@Z 10018b50 f i tilegen_actions.obj
 0001:00017b50       ??_ECTilegenAction_AddInstances@@UAEPAXI@Z 10018b50 f i tilegen_actions.obj
 0001:00017bc0       ??_ECTilegenAction_AddInstanceToRoom@@UAEPAXI@Z 10018bc0 f i tilegen_actions.obj
 0001:00017bc0       ??_GCTilegenAction_AddInstanceToRoom@@UAEPAXI@Z 10018bc0 f i tilegen_actions.obj
 0001:00017c10       ?Execute@CTilegenAction_PlaceComponent@@UAEXPAVCLayoutSystem@@@Z 10018c10 f   tilegen_actions.obj
 0001:00017d30       ??0CInstanceSpawn@@QAE@ABV0@@Z 10018d30 f i tilegen_actions.obj
 0001:00017de0       ?InsertBefore@?$CUtlVector@VCInstanceSpawn@@V?$CUtlMemory@VCInstanceSpawn@@H@@@@QAEHHABVCInstanceSpawn@@@Z 10018de0 f i tilegen_actions.obj
 0001:00017e60       ?Execute@CTilegenAction_AddInstances@@UAEXPAVCLayoutSystem@@@Z 10018e60 f   tilegen_actions.obj
 0001:000180c0       ?Execute@CTilegenAction_AddInstanceToRoom@@UAEXPAVCLayoutSystem@@@Z 100190c0 f   tilegen_actions.obj
 0001:00018130       ?GetName@?$CTilegenClassFactory@V?$ITilegenExpression@H@@VCTilegenExpression_Add@@@@UAEPBDXZ 10019130 f   tilegen_class_factories.obj
 0001:00018140       ?GetTypeName@CTilegenExpression_Add@@UAEPBDXZ 10019140 f   tilegen_class_factories.obj
 0001:00018150       ?GetName@?$CTilegenClassFactory@V?$ITilegenExpression@H@@VCTilegenExpression_Subtract@@@@UAEPBDXZ 10019150 f   tilegen_class_factories.obj
 0001:00018160       ?GetTypeName@CTilegenExpression_Subtract@@UAEPBDXZ 10019160 f   tilegen_class_factories.obj
 0001:00018170       ?GetName@?$CTilegenClassFactory@V?$ITilegenExpression@M@@VCTilegenExpression_FloatMultiply@@@@UAEPBDXZ 10019170 f   tilegen_class_factories.obj
 0001:00018180       ?GetTypeName@CTilegenExpression_FloatMultiply@@UAEPBDXZ 10019180 f   tilegen_class_factories.obj
 0001:00018190       ?GetName@?$CTilegenClassFactory@V?$ITilegenExpression@_N@@VCTilegenExpression_And@@@@UAEPBDXZ 10019190 f   tilegen_class_factories.obj
 0001:000181a0       ?GetTypeName@CTilegenExpression_And@@UAEPBDXZ 100191a0 f   tilegen_class_factories.obj
 0001:000181b0       ?GetName@?$CTilegenClassFactory@V?$ITilegenExpression@_N@@VCTilegenExpression_Or@@@@UAEPBDXZ 100191b0 f   tilegen_class_factories.obj
 0001:000181c0       ?GetTypeName@CTilegenExpression_Or@@UAEPBDXZ 100191c0 f   tilegen_class_factories.obj
 0001:000181d0       ?GetName@?$CTilegenClassFactory@V?$ITilegenExpression@_N@@VCTilegenExpression_Not@@@@UAEPBDXZ 100191d0 f   tilegen_class_factories.obj
 0001:000181e0       ?GetTypeName@CTilegenExpression_Not@@UAEPBDXZ 100191e0 f   tilegen_class_factories.obj
 0001:000181f0       ?GetTypeName@CTilegenExpression_BoolToInt@@UAEPBDXZ 100191f0 f   tilegen_class_factories.obj
 0001:000181f0       ?GetName@?$CTilegenClassFactory@V?$ITilegenExpression@H@@VCTilegenExpression_BoolToInt@@@@UAEPBDXZ 100191f0 f   tilegen_class_factories.obj
 0001:00018200       ?GetName@?$CTilegenClassFactory@V?$ITilegenExpression@_N@@VCTilegenExpression_IntToBool@@@@UAEPBDXZ 10019200 f   tilegen_class_factories.obj
 0001:00018200       ?GetTypeName@CTilegenExpression_IntToBool@@UAEPBDXZ 10019200 f   tilegen_class_factories.obj
 0001:00018210       ?GetName@?$CTilegenClassFactory@V?$ITilegenExpression@H@@VCTilegenExpression_FloatToInt@@@@UAEPBDXZ 10019210 f   tilegen_class_factories.obj
 0001:00018210       ?GetTypeName@CTilegenExpression_FloatToInt@@UAEPBDXZ 10019210 f   tilegen_class_factories.obj
 0001:00018220       ?GetTypeName@CTilegenExpression_IntToFloat@@UAEPBDXZ 10019220 f   tilegen_class_factories.obj
 0001:00018220       ?GetName@?$CTilegenClassFactory@V?$ITilegenExpression@M@@VCTilegenExpression_IntToFloat@@@@UAEPBDXZ 10019220 f   tilegen_class_factories.obj
 0001:00018230       ?GetName@?$CTilegenClassFactory@V?$ITilegenExpression@_N@@VCTilegenExpression_Greater@@@@UAEPBDXZ 10019230 f   tilegen_class_factories.obj
 0001:00018240       ?GetTypeName@CTilegenExpression_Greater@@UAEPBDXZ 10019240 f   tilegen_class_factories.obj
 0001:00018250       ?GetName@?$CTilegenClassFactory@V?$ITilegenExpression@_N@@VCTilegenExpression_GreaterOrEqual@@@@UAEPBDXZ 10019250 f   tilegen_class_factories.obj
 0001:00018260       ?GetTypeName@CTilegenExpression_GreaterOrEqual@@UAEPBDXZ 10019260 f   tilegen_class_factories.obj
 0001:00018270       ?GetName@?$CTilegenClassFactory@V?$ITilegenExpression@_N@@VCTilegenExpression_Equal@@@@UAEPBDXZ 10019270 f   tilegen_class_factories.obj
 0001:00018280       ?GetTypeName@CTilegenExpression_Equal@@UAEPBDXZ 10019280 f   tilegen_class_factories.obj
 0001:00018290       ?GetName@?$CTilegenClassFactory@V?$ITilegenExpression@_N@@VCTilegenExpression_NotEqual@@@@UAEPBDXZ 10019290 f   tilegen_class_factories.obj
 0001:000182a0       ?GetTypeName@CTilegenExpression_NotEqual@@UAEPBDXZ 100192a0 f   tilegen_class_factories.obj
 0001:000182b0       ?GetName@?$CTilegenClassFactory@V?$ITilegenExpression@_N@@VCTilegenExpression_Less@@@@UAEPBDXZ 100192b0 f   tilegen_class_factories.obj
 0001:000182c0       ?GetTypeName@CTilegenExpression_Less@@UAEPBDXZ 100192c0 f   tilegen_class_factories.obj
 0001:000182d0       ?GetName@?$CTilegenClassFactory@V?$ITilegenExpression@_N@@VCTilegenExpression_LessOrEqual@@@@UAEPBDXZ 100192d0 f   tilegen_class_factories.obj
 0001:000182e0       ?GetTypeName@CTilegenExpression_LessOrEqual@@UAEPBDXZ 100192e0 f   tilegen_class_factories.obj
 0001:000182f0       ?GetTypeName@CTilegenExpression_LiteralInt@@UAEPBDXZ 100192f0 f   tilegen_class_factories.obj
 0001:000182f0       ?GetName@?$CTilegenClassFactory@V?$ITilegenExpression@H@@VCTilegenExpression_LiteralInt@@@@UAEPBDXZ 100192f0 f   tilegen_class_factories.obj
 0001:00018300       ?GetName@?$CTilegenClassFactory@V?$ITilegenExpression@_N@@VCTilegenExpression_LiteralBool@@@@UAEPBDXZ 10019300 f   tilegen_class_factories.obj
 0001:00018300       ?GetTypeName@CTilegenExpression_LiteralBool@@UAEPBDXZ 10019300 f   tilegen_class_factories.obj
 0001:00018310       ?GetTypeName@CTilegenExpression_LiteralFloat@@UAEPBDXZ 10019310 f   tilegen_class_factories.obj
 0001:00018310       ?GetName@?$CTilegenClassFactory@V?$ITilegenExpression@M@@VCTilegenExpression_LiteralFloat@@@@UAEPBDXZ 10019310 f   tilegen_class_factories.obj
 0001:00018320       ?GetName@?$CTilegenClassFactory@V?$ITilegenExpression@PBD@@VCTilegenExpression_LiteralString@@@@UAEPBDXZ 10019320 f   tilegen_class_factories.obj
 0001:00018320       ?GetTypeName@CTilegenExpression_LiteralString@@UAEPBDXZ 10019320 f   tilegen_class_factories.obj
 0001:00018330       ?GetName@?$CTilegenClassFactory@V?$ITilegenExpression@_N@@VCTilegenExpression_StringEqual@@@@UAEPBDXZ 10019330 f   tilegen_class_factories.obj
 0001:00018340       ?GetTypeName@CTilegenExpression_StringEqual@@UAEPBDXZ 10019340 f   tilegen_class_factories.obj
 0001:00018350       ?GetName@?$CTilegenClassFactory@V?$ITilegenExpression@_N@@VCTilegenExpression_StringNotEqual@@@@UAEPBDXZ 10019350 f   tilegen_class_factories.obj
 0001:00018360       ?GetTypeName@CTilegenExpression_StringNotEqual@@UAEPBDXZ 10019360 f   tilegen_class_factories.obj
 0001:00018370       ?GetName@?$CTilegenClassFactory@V?$ITilegenExpression@PBD@@VCTilegenExpression_StringConcatenate@@@@UAEPBDXZ 10019370 f   tilegen_class_factories.obj
 0001:00018380       ?GetTypeName@CTilegenExpression_StringConcatenate@@UAEPBDXZ 10019380 f   tilegen_class_factories.obj
 0001:00018390       ?GetName@?$CTilegenClassFactory@V?$ITilegenExpression@PBD@@VCTilegenExpression_RoomName@@@@UAEPBDXZ 10019390 f   tilegen_class_factories.obj
 0001:00018390       ?GetTypeName@CTilegenExpression_RoomName@@UAEPBDXZ 10019390 f   tilegen_class_factories.obj
 0001:000183a0       ?GetTypeName@CTilegenExpression_RoomArea@@UAEPBDXZ 100193a0 f   tilegen_class_factories.obj
 0001:000183a0       ?GetName@?$CTilegenClassFactory@V?$ITilegenExpression@H@@VCTilegenExpression_RoomArea@@@@UAEPBDXZ 100193a0 f   tilegen_class_factories.obj
 0001:000183b0       ?GetTypeName@CTilegenExpression_ExtractRoomName@@UAEPBDXZ 100193b0 f   tilegen_class_factories.obj
 0001:000183b0       ?GetName@?$CTilegenClassFactory@V?$ITilegenExpression@PBD@@VCTilegenExpression_ExtractRoomName@@@@UAEPBDXZ 100193b0 f   tilegen_class_factories.obj
 0001:000183c0       ?GetTypeName@CTilegenExpression_ExtractThemeName@@UAEPBDXZ 100193c0 f   tilegen_class_factories.obj
 0001:000183c0       ?GetName@?$CTilegenClassFactory@V?$ITilegenExpression@PBD@@VCTilegenExpression_ExtractThemeName@@@@UAEPBDXZ 100193c0 f   tilegen_class_factories.obj
 0001:000183d0       ?GetName@?$CTilegenClassFactory@V?$ITilegenExpression@PBVCRoom@@@@VCTilegenExpression_LastPlacedRoom@@@@UAEPBDXZ 100193d0 f   tilegen_class_factories.obj
 0001:000183d0       ?GetTypeName@CTilegenExpression_LastPlacedRoom@@UAEPBDXZ 100193d0 f   tilegen_class_factories.obj
 0001:000183e0       ?GetName@?$CTilegenClassFactory@V?$ITilegenExpression@PBVCRoom@@@@VCTilegenExpression_SourceRoomFromExit@@@@UAEPBDXZ 100193e0 f   tilegen_class_factories.obj
 0001:000183e0       ?GetTypeName@CTilegenExpression_SourceRoomFromExit@@UAEPBDXZ 100193e0 f   tilegen_class_factories.obj
 0001:000183f0       ?GetName@?$CTilegenClassFactory@V?$ITilegenExpression@PBVCRoomTemplate@@@@VCTilegenExpression_SourceRoomTemplateFromExit@@@@UAEPBDXZ 100193f0 f   tilegen_class_factories.obj
 0001:000183f0       ?GetTypeName@CTilegenExpression_SourceRoomTemplateFromExit@@UAEPBDXZ 100193f0 f   tilegen_class_factories.obj
 0001:00018400       ?GetTypeName@CTilegenExpression_ChokepointGrowSource@@UAEPBDXZ 10019400 f   tilegen_class_factories.obj
 0001:00018400       ?GetName@?$CTilegenClassFactory@V?$ITilegenExpression@_N@@VCTilegenExpression_ChokepointGrowSource@@@@UAEPBDXZ 10019400 f   tilegen_class_factories.obj
 0001:00018410       ?GetName@?$CTilegenClassFactory@V?$ITilegenExpression@H@@VCTilegenExpression_RoomChildCount@@@@UAEPBDXZ 10019410 f   tilegen_class_factories.obj
 0001:00018410       ?GetTypeName@CTilegenExpression_RoomChildCount@@UAEPBDXZ 10019410 f   tilegen_class_factories.obj
 0001:00018420       ?GetName@?$CTilegenClassFactory@V?$ITilegenExpression@PBVCRoomTemplate@@@@VCTilegenExpression_RoomTemplateFromName@@@@UAEPBDXZ 10019420 f   tilegen_class_factories.obj
 0001:00018420       ?GetTypeName@CTilegenExpression_RoomTemplateFromName@@UAEPBDXZ 10019420 f   tilegen_class_factories.obj
 0001:00018430       ?GetName@?$CTilegenClassFactory@V?$ITilegenExpression@H@@VCTilegenExpression_XPosition@@@@UAEPBDXZ 10019430 f   tilegen_class_factories.obj
 0001:00018430       ?GetTypeName@CTilegenExpression_XPosition@@UAEPBDXZ 10019430 f   tilegen_class_factories.obj
 0001:00018440       ?GetName@?$CTilegenClassFactory@V?$ITilegenExpression@H@@VCTilegenExpression_YPosition@@@@UAEPBDXZ 10019440 f   tilegen_class_factories.obj
 0001:00018440       ?GetTypeName@CTilegenExpression_YPosition@@UAEPBDXZ 10019440 f   tilegen_class_factories.obj
 0001:00018450       ?GetTypeName@CTilegenExpression_HasTag@@UAEPBDXZ 10019450 f   tilegen_class_factories.obj
 0001:00018450       ?GetName@?$CTilegenClassFactory@V?$ITilegenExpression@_N@@VCTilegenExpression_HasTag@@@@UAEPBDXZ 10019450 f   tilegen_class_factories.obj
 0001:00018460       ?GetTypeName@CTilegenExpression_CanPlaceRandomly@@UAEPBDXZ 10019460 f   tilegen_class_factories.obj
 0001:00018460       ?GetName@?$CTilegenClassFactory@V?$ITilegenExpression@_N@@VCTilegenExpression_CanPlaceRandomly@@@@UAEPBDXZ 10019460 f   tilegen_class_factories.obj
 0001:00018470       ?GetTypeName@CTilegenExpression_NumTimesPlaced@@UAEPBDXZ 10019470 f   tilegen_class_factories.obj
 0001:00018470       ?GetName@?$CTilegenClassFactory@V?$ITilegenExpression@H@@VCTilegenExpression_NumTimesPlaced@@@@UAEPBDXZ 10019470 f   tilegen_class_factories.obj
 0001:00018480       ?GetName@?$CTilegenClassFactory@V?$ITilegenExpression@PBD@@VCTilegenExpression_ExitTag@@@@UAEPBDXZ 10019480 f   tilegen_class_factories.obj
 0001:00018480       ?GetTypeName@CTilegenExpression_ExitTag@@UAEPBDXZ 10019480 f   tilegen_class_factories.obj
 0001:00018490       ?GetTypeName@CTilegenExpression_ExitDirection@@UAEPBDXZ 10019490 f   tilegen_class_factories.obj
 0001:00018490       ?GetName@?$CTilegenClassFactory@V?$ITilegenExpression@H@@VCTilegenExpression_ExitDirection@@@@UAEPBDXZ 10019490 f   tilegen_class_factories.obj
 0001:000184a0       ?GetTypeName@CTilegenExpression_ParentState@@UAEPBDXZ 100194a0 f   tilegen_class_factories.obj
 0001:000184a0       ?GetName@?$CTilegenClassFactory@V?$ITilegenExpression@PBVCTilegenState@@@@VCTilegenExpression_ParentState@@@@UAEPBDXZ 100194a0 f   tilegen_class_factories.obj
 0001:000184b0       ?GetName@?$CTilegenClassFactory@V?$ITilegenExpression@PBD@@VCTilegenExpression_StateName@@@@UAEPBDXZ 100194b0 f   tilegen_class_factories.obj
 0001:000184b0       ?GetTypeName@CTilegenExpression_StateName@@UAEPBDXZ 100194b0 f   tilegen_class_factories.obj
 0001:000184c0       ?GetName@?$CTilegenClassFactory@V?$ITilegenExpression@H@@VCTilegenExpression_MapReduceExits@@@@UAEPBDXZ 100194c0 f   tilegen_class_factories.obj
 0001:000184c0       ?GetTypeName@CTilegenExpression_MapReduceExits@@UAEPBDXZ 100194c0 f   tilegen_class_factories.obj
 0001:000184d0       ?GetTypeName@CTilegenExpression_CountExits@@UAEPBDXZ 100194d0 f   tilegen_class_factories.obj
 0001:000184d0       ?GetName@?$CTilegenClassFactory@V?$ITilegenExpression@H@@VCTilegenExpression_CountExits@@@@UAEPBDXZ 100194d0 f   tilegen_class_factories.obj
 0001:000184e0       ?GetName@?$CTilegenClassFactory@V?$ITilegenExpression@H@@VCTilegenExpression_VariableInt@@@@UAEPBDXZ 100194e0 f   tilegen_class_factories.obj
 0001:000184f0       ?GetTypeName@CTilegenExpression_VariableInt@@UAEPBDXZ 100194f0 f   tilegen_class_factories.obj
 0001:00018500       ?GetName@?$CTilegenClassFactory@V?$ITilegenExpression@PBD@@VCTilegenExpression_VariableString@@@@UAEPBDXZ 10019500 f   tilegen_class_factories.obj
 0001:00018510       ?GetTypeName@CTilegenExpression_VariableString@@UAEPBDXZ 10019510 f   tilegen_class_factories.obj
 0001:00018520       ?GetName@?$CTilegenClassFactory@V?$ITilegenExpression@PBVCExit@@@@VCTilegenExpression_VariableExit@@@@UAEPBDXZ 10019520 f   tilegen_class_factories.obj
 0001:00018530       ?GetTypeName@CTilegenExpression_VariableExit@@UAEPBDXZ 10019530 f   tilegen_class_factories.obj
 0001:00018540       ?GetName@?$CTilegenClassFactory@V?$ITilegenExpression@PBVCRoomCandidate@@@@VCTilegenExpression_VariableRoomCandidate@@@@UAEPBDXZ 10019540 f   tilegen_class_factories.obj
 0001:00018550       ?GetTypeName@CTilegenExpression_VariableRoomCandidate@@UAEPBDXZ 10019550 f   tilegen_class_factories.obj
 0001:00018560       ?GetName@?$CTilegenClassFactory@V?$ITilegenExpression@PBVCRoomTemplate@@@@VCTilegenExpression_VariableRoomTemplate@@@@UAEPBDXZ 10019560 f   tilegen_class_factories.obj
 0001:00018570       ?GetTypeName@CTilegenExpression_VariableRoomTemplate@@UAEPBDXZ 10019570 f   tilegen_class_factories.obj
 0001:00018580       ?GetName@?$CTilegenClassFactory@V?$ITilegenExpression@PBVCTilegenState@@@@VCTilegenExpression_VariableState@@@@UAEPBDXZ 10019580 f   tilegen_class_factories.obj
 0001:00018590       ?GetTypeName@CTilegenExpression_VariableState@@UAEPBDXZ 10019590 f   tilegen_class_factories.obj
 0001:000185a0       ?GetTypeName@CTilegenAction_NestedActions@@UAEPBDXZ 100195a0 f   tilegen_class_factories.obj
 0001:000185a0       ?GetName@?$CTilegenClassFactory@VITilegenAction@@VCTilegenAction_NestedActions@@@@UAEPBDXZ 100195a0 f   tilegen_class_factories.obj
 0001:000185b0       ?GetTypeName@CTilegenAction_SetVariableInt@@UAEPBDXZ 100195b0 f   tilegen_class_factories.obj
 0001:000185b0       ?GetName@?$CTilegenClassFactory@VITilegenAction@@VCTilegenAction_SetVariableInt@@@@UAEPBDXZ 100195b0 f   tilegen_class_factories.obj
 0001:000185c0       ?OnBeginGeneration@CTilegenAction_SetVariable@@UAEXPAVCLayoutSystem@@@Z 100195c0 f i tilegen_class_factories.obj
 0001:000185e0       ?OnStateChanged@CTilegenAction_SetVariable@@UAEXPAVCLayoutSystem@@@Z 100195e0 f i tilegen_class_factories.obj
 0001:00018600       ?Execute@CTilegenAction_SetVariable@@UAEXPAVCLayoutSystem@@@Z 10019600 f i tilegen_class_factories.obj
 0001:00018620       ??_ECTilegenAction_SetVariable@@UAEPAXI@Z 10019620 f i tilegen_class_factories.obj
 0001:00018620       ??_GCTilegenAction_SetVariable@@UAEPAXI@Z 10019620 f i tilegen_class_factories.obj
 0001:00018660       ?GetName@?$CTilegenClassFactory@VITilegenAction@@VCTilegenAction_SetVariableString@@@@UAEPBDXZ 10019660 f   tilegen_class_factories.obj
 0001:00018660       ?GetTypeName@CTilegenAction_SetVariableString@@UAEPBDXZ 10019660 f   tilegen_class_factories.obj
 0001:00018670       ?GetTypeName@CTilegenAction_SetVariableBoolExpression@@UAEPBDXZ 10019670 f   tilegen_class_factories.obj
 0001:00018670       ?GetName@?$CTilegenClassFactory@VITilegenAction@@VCTilegenAction_SetVariableBoolExpression@@@@UAEPBDXZ 10019670 f   tilegen_class_factories.obj
 0001:00018680       ?GetName@?$CTilegenClassFactory@VITilegenAction@@VCTilegenAction_SetVariableAction@@@@UAEPBDXZ 10019680 f   tilegen_class_factories.obj
 0001:00018680       ?GetTypeName@CTilegenAction_SetVariableAction@@UAEPBDXZ 10019680 f   tilegen_class_factories.obj
 0001:00018690       ?GetName@?$CTilegenClassFactory@VITilegenAction@@VCTilegenAction_AddRoomCandidates@@@@UAEPBDXZ 10019690 f   tilegen_class_factories.obj
 0001:00018690       ?GetTypeName@CTilegenAction_AddRoomCandidates@@UAEPBDXZ 10019690 f   tilegen_class_factories.obj
 0001:000186a0       ?GetName@?$CTilegenClassFactory@VITilegenAction@@VCTilegenAction_AddRoomCandidatesAtLocation@@@@UAEPBDXZ 100196a0 f   tilegen_class_factories.obj
 0001:000186a0       ?GetTypeName@CTilegenAction_AddRoomCandidatesAtLocation@@UAEPBDXZ 100196a0 f   tilegen_class_factories.obj
 0001:000186b0       ?GetName@?$CTilegenClassFactory@VITilegenAction@@VCTilegenAction_ChooseCandidate@@@@UAEPBDXZ 100196b0 f   tilegen_class_factories.obj
 0001:000186b0       ?GetTypeName@CTilegenAction_ChooseCandidate@@UAEPBDXZ 100196b0 f   tilegen_class_factories.obj
 0001:000186c0       ?GetTypeName@CTilegenAction_FilterCandidatesByDirection@@UAEPBDXZ 100196c0 f   tilegen_class_factories.obj
 0001:000186c0       ?GetName@?$CTilegenClassFactory@VITilegenAction@@VCTilegenAction_FilterCandidatesByDirection@@@@UAEPBDXZ 100196c0 f   tilegen_class_factories.obj
 0001:000186d0       ?GetTypeName@CTilegenAction_FilterCandidatesForLinearGrowth@@UAEPBDXZ 100196d0 f   tilegen_class_factories.obj
 0001:000186d0       ?GetName@?$CTilegenClassFactory@VITilegenAction@@VCTilegenAction_FilterCandidatesForLinearGrowth@@@@UAEPBDXZ 100196d0 f   tilegen_class_factories.obj
 0001:000186e0       ??_ECTilegenAction_FilterCandidatesForLinearGrowth@@UAEPAXI@Z 100196e0 f i tilegen_class_factories.obj
 0001:000186e0       ??_ECTilegenAction_FinishGeneration@@UAEPAXI@Z 100196e0 f i tilegen_class_factories.obj
 0001:000186e0       ??_ECTilegenAction_EpicFail@@UAEPAXI@Z 100196e0 f i tilegen_class_factories.obj
 0001:000186e0       ??_GCTilegenAction_EnsureRoomExists@@UAEPAXI@Z 100196e0 f i tilegen_class_factories.obj
 0001:000186e0       ??_ECTilegenAction_ChooseCandidate@@UAEPAXI@Z 100196e0 f i tilegen_actions.obj
 0001:000186e0       ??_ECTilegenAction_EnsureRoomExists@@UAEPAXI@Z 100196e0 f i tilegen_class_factories.obj
 0001:000186e0       ??_GCTilegenAction_EpicFail@@UAEPAXI@Z 100196e0 f i tilegen_class_factories.obj
 0001:000186e0       ??_GCTilegenAction_LoadLayout@@UAEPAXI@Z 100196e0 f i tilegen_actions.obj
 0001:000186e0       ??_GCTilegenAction_FilterCandidatesForLinearGrowth@@UAEPAXI@Z 100196e0 f i tilegen_class_factories.obj
 0001:000186e0       ??_GCTilegenAction_ChooseCandidate@@UAEPAXI@Z 100196e0 f i tilegen_actions.obj
 0001:000186e0       ??_GITilegenAction@@UAEPAXI@Z 100196e0 f i tilegen_actions.obj
 0001:000186e0       ??_EITilegenAction@@UAEPAXI@Z 100196e0 f i tilegen_actions.obj
 0001:000186e0       ??_GCTilegenAction_FinishGeneration@@UAEPAXI@Z 100196e0 f i tilegen_class_factories.obj
 0001:000186e0       ??_ECTilegenAction_LoadLayout@@UAEPAXI@Z 100196e0 f i tilegen_actions.obj
 0001:00018710       ?GetName@?$CTilegenClassFactory@VITilegenAction@@VCTilegenAction_SwitchState@@@@UAEPBDXZ 10019710 f   tilegen_class_factories.obj
 0001:00018710       ?GetTypeName@CTilegenAction_SwitchState@@UAEPBDXZ 10019710 f   tilegen_class_factories.obj
 0001:00018720       ?GetTypeName@CTilegenAction_FinishGeneration@@UAEPBDXZ 10019720 f   tilegen_class_factories.obj
 0001:00018720       ?GetName@?$CTilegenClassFactory@VITilegenAction@@VCTilegenAction_FinishGeneration@@@@UAEPBDXZ 10019720 f   tilegen_class_factories.obj
 0001:00018730       ?GetTypeName@CTilegenAction_EpicFail@@UAEPBDXZ 10019730 f   tilegen_class_factories.obj
 0001:00018730       ?GetName@?$CTilegenClassFactory@VITilegenAction@@VCTilegenAction_EpicFail@@@@UAEPBDXZ 10019730 f   tilegen_class_factories.obj
 0001:00018740       ?GetTypeName@CTilegenAction_EnsureRoomExists@@UAEPBDXZ 10019740 f   tilegen_class_factories.obj
 0001:00018740       ?GetName@?$CTilegenClassFactory@VITilegenAction@@VCTilegenAction_EnsureRoomExists@@@@UAEPBDXZ 10019740 f   tilegen_class_factories.obj
 0001:00018750       ?GetName@?$CTilegenClassFactory@VITilegenAction@@VCTilegenAction_AddConnectorRoomCandidates@@@@UAEPBDXZ 10019750 f   tilegen_class_factories.obj
 0001:00018750       ?GetTypeName@CTilegenAction_AddConnectorRoomCandidates@@UAEPBDXZ 10019750 f   tilegen_class_factories.obj
 0001:00018760       ?GetName@?$CTilegenClassFactory@VITilegenAction@@VCTilegenAction_PlaceComponent@@@@UAEPBDXZ 10019760 f   tilegen_class_factories.obj
 0001:00018760       ?GetTypeName@CTilegenAction_PlaceComponent@@UAEPBDXZ 10019760 f   tilegen_class_factories.obj
 0001:00018770       ?GetName@?$CTilegenClassFactory@VITilegenAction@@VCTilegenAction_AddInstances@@@@UAEPBDXZ 10019770 f   tilegen_class_factories.obj
 0001:00018770       ?GetTypeName@CTilegenAction_AddInstances@@UAEPBDXZ 10019770 f   tilegen_class_factories.obj
 0001:00018780       ?GetTypeName@CTilegenAction_AddInstanceToRoom@@UAEPBDXZ 10019780 f   tilegen_class_factories.obj
 0001:00018780       ?GetName@?$CTilegenClassFactory@VITilegenAction@@VCTilegenAction_AddInstanceToRoom@@@@UAEPBDXZ 10019780 f   tilegen_class_factories.obj
 0001:00018790       ?GetTypeName@CTilegenAction_LoadLayout@@UAEPBDXZ 10019790 f   tilegen_class_factories.obj
 0001:00018790       ?GetName@?$CTilegenClassFactory@VITilegenAction@@VCTilegenAction_LoadLayout@@@@UAEPBDXZ 10019790 f   tilegen_class_factories.obj
 0001:000187a0       ?GetName@?$CTilegenClassFactory@V?$ITilegenRange@PBVCExit@@@@VCTilegenRange_NewOpenExits@@@@UAEPBDXZ 100197a0 f   tilegen_class_factories.obj
 0001:000187b0       ?GetName@?$CTilegenClassFactory@V?$ITilegenRange@PBVCExit@@@@VCTilegenRange_ClosedExits@@@@UAEPBDXZ 100197b0 f   tilegen_class_factories.obj
 0001:000187c0       ?Evaluate@?$CTilegenExpression_Unary@_N_N@@UAE_NPAVCFreeVariableMap@@@Z 100197c0 f i tilegen_class_factories.obj
 0001:000187c0       ?Evaluate@?$CTilegenExpression_Unary@H_N@@UAEHPAVCFreeVariableMap@@@Z 100197c0 f i tilegen_class_factories.obj
 0001:000187f0       ?Evaluate@?$CTilegenExpression_Unary@HM@@UAEHPAVCFreeVariableMap@@@Z 100197f0 f i tilegen_class_factories.obj
 0001:00018820       ?Evaluate@?$CTilegenExpression_MapReduce@HPBVCExit@@@@UAEHPAVCFreeVariableMap@@@Z 10019820 f i tilegen_class_factories.obj
 0001:000188d0       ?InternalExecute@?$CTilegenAction_SetVariableT@PBD@@MAEXPAVCLayoutSystem@@@Z 100198d0 f i tilegen_class_factories.obj
 0001:000188d0       ?InternalExecute@?$CTilegenAction_SetVariableT@H@@MAEXPAVCLayoutSystem@@@Z 100198d0 f i tilegen_class_factories.obj
 0001:00018910       ?InternalExecute@?$CTilegenAction_SetVariableT@_N@@MAEXPAVCLayoutSystem@@@Z 10019910 f i tilegen_class_factories.obj
 0001:00018950       ?CreateInstance@?$CTilegenClassFactory@V?$ITilegenExpression@_N@@VCTilegenExpression_HasTag@@@@UAEPAV?$ITilegenExpression@_N@@XZ 10019950 f i tilegen_class_factories.obj
 0001:00018970       ?CreateInstance@?$CTilegenClassFactory@V?$ITilegenExpression@_N@@VCTilegenExpression_CanPlaceRandomly@@@@UAEPAV?$ITilegenExpression@_N@@XZ 10019970 f i tilegen_class_factories.obj
 0001:00018990       ?CreateInstance@?$CTilegenClassFactory@VITilegenAction@@VCTilegenAction_AddRoomCandidates@@@@UAEPAVITilegenAction@@XZ 10019990 f i tilegen_class_factories.obj
 0001:000189b0       ?CreateInstance@?$CTilegenClassFactory@VITilegenAction@@VCTilegenAction_AddRoomCandidatesAtLocation@@@@UAEPAVITilegenAction@@XZ 100199b0 f i tilegen_class_factories.obj
 0001:000189e0       ?CreateInstance@?$CTilegenClassFactory@VITilegenAction@@VCTilegenAction_ChooseCandidate@@@@UAEPAVITilegenAction@@XZ 100199e0 f i tilegen_class_factories.obj
 0001:00018a00       ?CreateInstance@?$CTilegenClassFactory@VITilegenAction@@VCTilegenAction_FilterCandidatesByDirection@@@@UAEPAVITilegenAction@@XZ 10019a00 f i tilegen_class_factories.obj
 0001:00018a20       ?CreateInstance@?$CTilegenClassFactory@VITilegenAction@@VCTilegenAction_FilterCandidatesForLinearGrowth@@@@UAEPAVITilegenAction@@XZ 10019a20 f i tilegen_class_factories.obj
 0001:00018a40       ?CreateInstance@?$CTilegenClassFactory@VITilegenAction@@VCTilegenAction_SwitchState@@@@UAEPAVITilegenAction@@XZ 10019a40 f i tilegen_class_factories.obj
 0001:00018a60       ?CreateInstance@?$CTilegenClassFactory@VITilegenAction@@VCTilegenAction_FinishGeneration@@@@UAEPAVITilegenAction@@XZ 10019a60 f i tilegen_class_factories.obj
 0001:00018a80       ?CreateInstance@?$CTilegenClassFactory@VITilegenAction@@VCTilegenAction_EpicFail@@@@UAEPAVITilegenAction@@XZ 10019a80 f i tilegen_class_factories.obj
 0001:00018aa0       ?CreateInstance@?$CTilegenClassFactory@VITilegenAction@@VCTilegenAction_EnsureRoomExists@@@@UAEPAVITilegenAction@@XZ 10019aa0 f i tilegen_class_factories.obj
 0001:00018ac0       ?CreateInstance@?$CTilegenClassFactory@VITilegenAction@@VCTilegenAction_AddConnectorRoomCandidates@@@@UAEPAVITilegenAction@@XZ 10019ac0 f i tilegen_class_factories.obj
 0001:00018ae0       ?CreateInstance@?$CTilegenClassFactory@VITilegenAction@@VCTilegenAction_PlaceComponent@@@@UAEPAVITilegenAction@@XZ 10019ae0 f i tilegen_class_factories.obj
 0001:00018b00       ?CreateInstance@?$CTilegenClassFactory@VITilegenAction@@VCTilegenAction_AddInstances@@@@UAEPAVITilegenAction@@XZ 10019b00 f i tilegen_class_factories.obj
 0001:00018b20       ?CreateInstance@?$CTilegenClassFactory@VITilegenAction@@VCTilegenAction_AddInstanceToRoom@@@@UAEPAVITilegenAction@@XZ 10019b20 f i tilegen_class_factories.obj
 0001:00018b40       ?CreateInstance@?$CTilegenClassFactory@VITilegenAction@@VCTilegenAction_LoadLayout@@@@UAEPAVITilegenAction@@XZ 10019b40 f i tilegen_class_factories.obj
 0001:00018b60       ?CreateInstance@?$CTilegenClassFactory@V?$ITilegenRange@PBVCExit@@@@VCTilegenRange_ClosedExits@@@@UAEPAV?$ITilegenRange@PBVCExit@@@@XZ 10019b60 f i tilegen_class_factories.obj
 0001:00018b80       ??_ECTilegenExpression_LiteralInt@@UAEPAXI@Z 10019b80 f i tilegen_class_factories.obj
 0001:00018b80       ??_ECTilegenExpression_VariableInt@@UAEPAXI@Z 10019b80 f i tilegen_class_factories.obj
 0001:00018b80       ??_GCTilegenExpression_LiteralInt@@UAEPAXI@Z 10019b80 f i tilegen_class_factories.obj
 0001:00018b80       ??_G?$ITilegenExpression@H@@UAEPAXI@Z 10019b80 f i tilegen_class_factories.obj
 0001:00018b80       ??_E?$ITilegenExpression@H@@UAEPAXI@Z 10019b80 f i tilegen_class_factories.obj
 0001:00018b80       ??_GCTilegenExpression_VariableInt@@UAEPAXI@Z 10019b80 f i tilegen_class_factories.obj
 0001:00018bb0       ??_ECTilegenExpression_Subtract@@UAEPAXI@Z 10019bb0 f i tilegen_class_factories.obj
 0001:00018bb0       ??_E?$CTilegenExpression_Binary@HH@@UAEPAXI@Z 10019bb0 f i tilegen_class_factories.obj
 0001:00018bb0       ??_GCTilegenExpression_Subtract@@UAEPAXI@Z 10019bb0 f i tilegen_class_factories.obj
 0001:00018bb0       ??_G?$CTilegenExpression_Binary@HH@@UAEPAXI@Z 10019bb0 f i tilegen_class_factories.obj
 0001:00018c00       ??_E?$CTilegenExpression_Unary@HM@@UAEPAXI@Z 10019c00 f i tilegen_class_factories.obj
 0001:00018c00       ??_ECTilegenExpression_FloatToInt@@UAEPAXI@Z 10019c00 f i tilegen_class_factories.obj
 0001:00018c00       ??_G?$CTilegenExpression_Unary@HM@@UAEPAXI@Z 10019c00 f i tilegen_class_factories.obj
 0001:00018c00       ??_GCTilegenExpression_FloatToInt@@UAEPAXI@Z 10019c00 f i tilegen_class_factories.obj
 0001:00018c40       ??_E?$CTilegenExpression_Unary@PBDPBVCRoomTemplate@@@@UAEPAXI@Z 10019c40 f i tilegen_class_factories.obj
 0001:00018c40       ??_GCTilegenExpression_RoomName@@UAEPAXI@Z 10019c40 f i tilegen_class_factories.obj
 0001:00018c40       ??_ECTilegenExpression_RoomName@@UAEPAXI@Z 10019c40 f i tilegen_class_factories.obj
 0001:00018c40       ??_G?$CTilegenExpression_Unary@PBDPBVCRoomTemplate@@@@UAEPAXI@Z 10019c40 f i tilegen_class_factories.obj
 0001:00018c80       ??_G?$CTilegenExpression_Unary@PBVCRoom@@PBVCExit@@@@UAEPAXI@Z 10019c80 f i tilegen_class_factories.obj
 0001:00018c80       ??_ECTilegenExpression_SourceRoomFromExit@@UAEPAXI@Z 10019c80 f i tilegen_class_factories.obj
 0001:00018c80       ??_E?$CTilegenExpression_Unary@PBVCRoom@@PBVCExit@@@@UAEPAXI@Z 10019c80 f i tilegen_class_factories.obj
 0001:00018c80       ??_GCTilegenExpression_SourceRoomFromExit@@UAEPAXI@Z 10019c80 f i tilegen_class_factories.obj
 0001:00018cc0       ??_ECTilegenExpression_VariableRoomTemplate@@UAEPAXI@Z 10019cc0 f i tilegen_class_factories.obj
 0001:00018cc0       ??_GCTilegenExpression_VariableRoomTemplate@@UAEPAXI@Z 10019cc0 f i tilegen_class_factories.obj
 0001:00018cc0       ??_E?$ITilegenExpression@PBVCRoomTemplate@@@@UAEPAXI@Z 10019cc0 f i tilegen_class_factories.obj
 0001:00018cc0       ??_G?$ITilegenExpression@PBVCRoomTemplate@@@@UAEPAXI@Z 10019cc0 f i tilegen_class_factories.obj
 0001:00018cf0       ??_G?$CTilegenExpression_Unary@_NPBVCExit@@@@UAEPAXI@Z 10019cf0 f i tilegen_class_factories.obj
 0001:00018cf0       ??_ECTilegenExpression_ChokepointGrowSource@@UAEPAXI@Z 10019cf0 f i tilegen_class_factories.obj
 0001:00018cf0       ??_GCTilegenExpression_ChokepointGrowSource@@UAEPAXI@Z 10019cf0 f i tilegen_class_factories.obj
 0001:00018cf0       ??_E?$CTilegenExpression_Unary@_NPBVCExit@@@@UAEPAXI@Z 10019cf0 f i tilegen_class_factories.obj
 0001:00018d30       ??_E?$CTilegenExpression_Unary@HPBVCExit@@@@UAEPAXI@Z 10019d30 f i tilegen_class_factories.obj
 0001:00018d30       ??_G?$CTilegenExpression_Unary@HPBVCExit@@@@UAEPAXI@Z 10019d30 f i tilegen_class_factories.obj
 0001:00018d30       ??_ECTilegenExpression_ExitDirection@@UAEPAXI@Z 10019d30 f i tilegen_class_factories.obj
 0001:00018d30       ??_GCTilegenExpression_ExitDirection@@UAEPAXI@Z 10019d30 f i tilegen_class_factories.obj
 0001:00018d70       ??_ECTilegenExpression_VariableState@@UAEPAXI@Z 10019d70 f i tilegen_class_factories.obj
 0001:00018d70       ??_G?$ITilegenExpression@PBVCTilegenState@@@@UAEPAXI@Z 10019d70 f i tilegen_class_factories.obj
 0001:00018d70       ??_E?$ITilegenExpression@PBVCTilegenState@@@@UAEPAXI@Z 10019d70 f i tilegen_class_factories.obj
 0001:00018d70       ??_GCTilegenExpression_VariableState@@UAEPAXI@Z 10019d70 f i tilegen_class_factories.obj
 0001:00018da0       ??_ECTilegenExpression_CountExits@@UAEPAXI@Z 10019da0 f i tilegen_class_factories.obj
 0001:00018da0       ??_E?$CTilegenExpression_MapReduce@HPBVCExit@@@@UAEPAXI@Z 10019da0 f i tilegen_class_factories.obj
 0001:00018da0       ??_GCTilegenExpression_MapReduceExits@@UAEPAXI@Z 10019da0 f i tilegen_class_factories.obj
 0001:00018da0       ??_GCTilegenExpression_CountExits@@UAEPAXI@Z 10019da0 f i tilegen_class_factories.obj
 0001:00018da0       ??_G?$CTilegenExpression_CountRange@PBVCExit@@@@UAEPAXI@Z 10019da0 f i tilegen_class_factories.obj
 0001:00018da0       ??_E?$CTilegenExpression_CountRange@PBVCExit@@@@UAEPAXI@Z 10019da0 f i tilegen_class_factories.obj
 0001:00018da0       ??_ECTilegenExpression_MapReduceExits@@UAEPAXI@Z 10019da0 f i tilegen_class_factories.obj
 0001:00018da0       ??_G?$CTilegenExpression_MapReduce@HPBVCExit@@@@UAEPAXI@Z 10019da0 f i tilegen_class_factories.obj
 0001:00018e10       ??_ECTilegenAction_SetVariableString@@UAEPAXI@Z 10019e10 f i tilegen_class_factories.obj
 0001:00018e10       ??_GCTilegenAction_SetVariableString@@UAEPAXI@Z 10019e10 f i tilegen_class_factories.obj
 0001:00018e10       ??_E?$CTilegenAction_SetVariableT@PBD@@UAEPAXI@Z 10019e10 f i tilegen_class_factories.obj
 0001:00018e10       ??_G?$CTilegenAction_SetVariableT@PBD@@UAEPAXI@Z 10019e10 f i tilegen_class_factories.obj
 0001:00018e60       ??_GCTilegenAction_SetVariableBoolExpression@@UAEPAXI@Z 10019e60 f i tilegen_class_factories.obj
 0001:00018e60       ??_G?$CTilegenAction_SetVariableT@_N@@UAEPAXI@Z 10019e60 f i tilegen_class_factories.obj
 0001:00018e60       ??_E?$CTilegenAction_SetVariableT@_N@@UAEPAXI@Z 10019e60 f i tilegen_class_factories.obj
 0001:00018e60       ??_ECTilegenAction_SetVariableBoolExpression@@UAEPAXI@Z 10019e60 f i tilegen_class_factories.obj
 0001:00018eb0       ?InternalExecute@CTilegenAction_SetVariableAction@@MAEXPAVCLayoutSystem@@@Z 10019eb0 f i tilegen_class_factories.obj
 0001:00018eb0       ?InternalExecute@CTilegenAction_SetVariableBoolExpression@@MAEXPAVCLayoutSystem@@@Z 10019eb0 f i tilegen_class_factories.obj
 0001:00018ee0       ??_ECTilegenAction_SetVariableAction@@UAEPAXI@Z 10019ee0 f i tilegen_class_factories.obj
 0001:00018ee0       ??_GCTilegenAction_SetVariableAction@@UAEPAXI@Z 10019ee0 f i tilegen_class_factories.obj
 0001:00018f30       ??_GCTilegenExpression_VariableExit@@UAEPAXI@Z 10019f30 f i tilegen_class_factories.obj
 0001:00018f30       ??_E?$ITilegenExpression@PBVCExit@@@@UAEPAXI@Z 10019f30 f i tilegen_class_factories.obj
 0001:00018f30       ??_G?$ITilegenExpression@PBVCExit@@@@UAEPAXI@Z 10019f30 f i tilegen_class_factories.obj
 0001:00018f30       ??_ECTilegenExpression_VariableExit@@UAEPAXI@Z 10019f30 f i tilegen_class_factories.obj
 0001:00018f60       ?CreateInstance@?$CTilegenClassFactory@VITilegenAction@@VCTilegenAction_NestedActions@@@@UAEPAVITilegenAction@@XZ 10019f60 f i tilegen_class_factories.obj
 0001:00018f80       ?CreateInstance@?$CTilegenClassFactory@V?$ITilegenRange@PBVCExit@@@@VCTilegenRange_NewOpenExits@@@@UAEPAV?$ITilegenRange@PBVCExit@@@@XZ 10019f80 f i tilegen_class_factories.obj
 0001:00018fa0       ?Evaluate@?$CTilegenExpression_Binary@PBDPBD@@UAEPBDPAVCFreeVariableMap@@@Z 10019fa0 f i tilegen_class_factories.obj
 0001:00018fa0       ?Evaluate@?$CTilegenExpression_Binary@HH@@UAEHPAVCFreeVariableMap@@@Z 10019fa0 f i tilegen_class_factories.obj
 0001:00018fa0       ?Evaluate@?$CTilegenExpression_Binary@_NPBD@@UAE_NPAVCFreeVariableMap@@@Z 10019fa0 f i tilegen_class_factories.obj
 0001:00018fa0       ?Evaluate@?$CTilegenExpression_Binary@_NH@@UAE_NPAVCFreeVariableMap@@@Z 10019fa0 f i tilegen_class_factories.obj
 0001:00018ff0       ?Evaluate@?$CTilegenExpression_Unary@HPBVCExit@@@@UAEHPAVCFreeVariableMap@@@Z 10019ff0 f i tilegen_class_factories.obj
 0001:00018ff0       ?Evaluate@?$CTilegenExpression_Unary@PBDPBVCTilegenState@@@@UAEPBDPAVCFreeVariableMap@@@Z 10019ff0 f i tilegen_class_factories.obj
 0001:00018ff0       ?Evaluate@?$CTilegenExpression_Unary@HPBVCRoomTemplate@@@@UAEHPAVCFreeVariableMap@@@Z 10019ff0 f i tilegen_class_factories.obj
 0001:00018ff0       ?Evaluate@?$CTilegenExpression_Unary@_NPBVCExit@@@@UAE_NPAVCFreeVariableMap@@@Z 10019ff0 f i tilegen_class_factories.obj
 0001:00018ff0       ?Evaluate@?$CTilegenExpression_Unary@PBVCRoomTemplate@@PBVCExit@@@@UAEPBVCRoomTemplate@@PAVCFreeVariableMap@@@Z 10019ff0 f i tilegen_class_factories.obj
 0001:00018ff0       ?Evaluate@?$CTilegenExpression_Unary@PBVCRoomTemplate@@PBD@@UAEPBVCRoomTemplate@@PAVCFreeVariableMap@@@Z 10019ff0 f i tilegen_class_factories.obj
 0001:00018ff0       ?Evaluate@?$CTilegenExpression_Unary@HPBVCRoom@@@@UAEHPAVCFreeVariableMap@@@Z 10019ff0 f i tilegen_class_factories.obj
 0001:00018ff0       ?Evaluate@?$CTilegenExpression_Unary@PBVCRoom@@PBVCExit@@@@UAEPBVCRoom@@PAVCFreeVariableMap@@@Z 10019ff0 f i tilegen_class_factories.obj
 0001:00018ff0       ?Evaluate@?$CTilegenExpression_Unary@HPBVCRoomCandidate@@@@UAEHPAVCFreeVariableMap@@@Z 10019ff0 f i tilegen_class_factories.obj
 0001:00018ff0       ?Evaluate@?$CTilegenExpression_Unary@PBDPBVCExit@@@@UAEPBDPAVCFreeVariableMap@@@Z 10019ff0 f i tilegen_class_factories.obj
 0001:00018ff0       ?Evaluate@?$CTilegenExpression_Unary@PBDPBD@@UAEPBDPAVCFreeVariableMap@@@Z 10019ff0 f i tilegen_class_factories.obj
 0001:00018ff0       ?Evaluate@?$CTilegenExpression_Unary@_NH@@UAE_NPAVCFreeVariableMap@@@Z 10019ff0 f i tilegen_class_factories.obj
 0001:00018ff0       ?Evaluate@?$CTilegenExpression_Unary@PBDPBVCRoomTemplate@@@@UAEPBDPAVCFreeVariableMap@@@Z 10019ff0 f i tilegen_class_factories.obj
 0001:00018ff0       ?Evaluate@?$CTilegenExpression_Unary@MH@@UAEMPAVCFreeVariableMap@@@Z 10019ff0 f i tilegen_class_factories.obj
 0001:00018ff0       ?Evaluate@?$CTilegenExpression_Unary@PBVCTilegenState@@PBV1@@@UAEPBVCTilegenState@@PAVCFreeVariableMap@@@Z 10019ff0 f i tilegen_class_factories.obj
 0001:00019020       ?Evaluate@?$CTilegenExpression_Literal@H@@UAEHPAVCFreeVariableMap@@@Z 1001a020 f i tilegen_class_factories.obj
 0001:00019020       ?Evaluate@?$CTilegenExpression_Literal@PBD@@UAEPBDPAVCFreeVariableMap@@@Z 1001a020 f i tilegen_class_factories.obj
 0001:00019030       ?Evaluate@?$CTilegenExpression_Literal@_N@@UAE_NPAVCFreeVariableMap@@@Z 1001a030 f i tilegen_class_factories.obj
 0001:00019040       ?Evaluate@?$CTilegenExpression_Literal@M@@UAEMPAVCFreeVariableMap@@@Z 1001a040 f i tilegen_class_factories.obj
 0001:00019050       ?Evaluate@?$CTilegenExpression_Variable@PBVCExit@@@@UAEPBVCExit@@PAVCFreeVariableMap@@@Z 1001a050 f i tilegen_class_factories.obj
 0001:00019050       ?Evaluate@?$CTilegenExpression_Variable@PBD@@UAEPBDPAVCFreeVariableMap@@@Z 1001a050 f i tilegen_class_factories.obj
 0001:00019050       ?Evaluate@?$CTilegenExpression_Variable@H@@UAEHPAVCFreeVariableMap@@@Z 1001a050 f i tilegen_class_factories.obj
 0001:00019050       ?Evaluate@?$CTilegenExpression_Variable@PBVCTilegenState@@@@UAEPBVCTilegenState@@PAVCFreeVariableMap@@@Z 1001a050 f i tilegen_class_factories.obj
 0001:00019050       ?Evaluate@?$CTilegenExpression_Variable@PBVCRoomTemplate@@@@UAEPBVCRoomTemplate@@PAVCFreeVariableMap@@@Z 1001a050 f i tilegen_class_factories.obj
 0001:00019050       ?Evaluate@?$CTilegenExpression_Variable@PBVCRoomCandidate@@@@UAEPBVCRoomCandidate@@PAVCFreeVariableMap@@@Z 1001a050 f i tilegen_class_factories.obj
 0001:00019090       ?CreateInstance@?$CTilegenClassFactory@V?$ITilegenExpression@PBVCRoom@@@@VCTilegenExpression_LastPlacedRoom@@@@UAEPAV?$ITilegenExpression@PBVCRoom@@@@XZ 1001a090 f i tilegen_class_factories.obj
 0001:000190b0       ?CreateInstance@?$CTilegenClassFactory@V?$ITilegenExpression@PBVCRoom@@@@VCTilegenExpression_SourceRoomFromExit@@@@UAEPAV?$ITilegenExpression@PBVCRoom@@@@XZ 1001a0b0 f i tilegen_class_factories.obj
 0001:000190d0       ?CreateInstance@?$CTilegenClassFactory@VITilegenAction@@VCTilegenAction_SetVariableAction@@@@UAEPAVITilegenAction@@XZ 1001a0d0 f i tilegen_class_factories.obj
 0001:00019100       ??_E?$CTilegenExpression_Unary@PBVCTilegenState@@PBV1@@@UAEPAXI@Z 1001a100 f i tilegen_class_factories.obj
 0001:00019100       ??_G?$CTilegenExpression_Unary@PBVCTilegenState@@PBV1@@@UAEPAXI@Z 1001a100 f i tilegen_class_factories.obj
 0001:00019100       ??_ECTilegenExpression_ParentState@@UAEPAXI@Z 1001a100 f i tilegen_class_factories.obj
 0001:00019100       ??_GCTilegenExpression_ParentState@@UAEPAXI@Z 1001a100 f i tilegen_class_factories.obj
 0001:00019140       ?Evaluate@CTilegenExpression_Greater@@UAE_NPAVCFreeVariableMap@@@Z 1001a140 f i tilegen_class_factories.obj
 0001:00019180       ?DirectEvaluate@CTilegenExpression_Greater@@UAE_NPAVCFreeVariableMap@@ABH1@Z 1001a180 f i tilegen_class_factories.obj
 0001:000191a0       ?Evaluate@CTilegenExpression_GreaterOrEqual@@UAE_NPAVCFreeVariableMap@@@Z 1001a1a0 f i tilegen_class_factories.obj
 0001:000191e0       ?DirectEvaluate@CTilegenExpression_GreaterOrEqual@@UAE_NPAVCFreeVariableMap@@ABH1@Z 1001a1e0 f i tilegen_class_factories.obj
 0001:00019200       ?Evaluate@CTilegenExpression_Equal@@UAE_NPAVCFreeVariableMap@@@Z 1001a200 f i tilegen_class_factories.obj
 0001:00019240       ?DirectEvaluate@CTilegenExpression_Equal@@UAE_NPAVCFreeVariableMap@@ABH1@Z 1001a240 f i tilegen_class_factories.obj
 0001:00019260       ?Evaluate@CTilegenExpression_NotEqual@@UAE_NPAVCFreeVariableMap@@@Z 1001a260 f i tilegen_class_factories.obj
 0001:000192a0       ?DirectEvaluate@CTilegenExpression_NotEqual@@UAE_NPAVCFreeVariableMap@@ABH1@Z 1001a2a0 f i tilegen_class_factories.obj
 0001:000192c0       ?Evaluate@CTilegenExpression_Less@@UAE_NPAVCFreeVariableMap@@@Z 1001a2c0 f i tilegen_class_factories.obj
 0001:00019300       ?DirectEvaluate@CTilegenExpression_Less@@UAE_NPAVCFreeVariableMap@@ABH1@Z 1001a300 f i tilegen_class_factories.obj
 0001:00019320       ?Evaluate@CTilegenExpression_LessOrEqual@@UAE_NPAVCFreeVariableMap@@@Z 1001a320 f i tilegen_class_factories.obj
 0001:00019360       ?DirectEvaluate@CTilegenExpression_LessOrEqual@@UAE_NPAVCFreeVariableMap@@ABH1@Z 1001a360 f i tilegen_class_factories.obj
 0001:00019380       ?Evaluate@CTilegenExpression_Subtract@@UAEHPAVCFreeVariableMap@@@Z 1001a380 f i tilegen_class_factories.obj
 0001:000193b0       ?DirectEvaluate@CTilegenExpression_Subtract@@UAEHPAVCFreeVariableMap@@ABH1@Z 1001a3b0 f i tilegen_class_factories.obj
 0001:000193d0       ?DirectEvaluate@CTilegenExpression_StringEqual@@UAE_NPAVCFreeVariableMap@@ABQBD1@Z 1001a3d0 f i tilegen_class_factories.obj
 0001:000193f0       ?DirectEvaluate@CTilegenExpression_StringNotEqual@@UAE_NPAVCFreeVariableMap@@ABQBD1@Z 1001a3f0 f i tilegen_class_factories.obj
 0001:00019420       ??_GCTilegenExpression_StringEqual@@UAEPAXI@Z 1001a420 f i tilegen_class_factories.obj
 0001:00019420       ??_ECTilegenExpression_StringNotEqual@@UAEPAXI@Z 1001a420 f i tilegen_class_factories.obj
 0001:00019420       ??_GCTilegenExpression_StringNotEqual@@UAEPAXI@Z 1001a420 f i tilegen_class_factories.obj
 0001:00019420       ??_G?$CTilegenExpression_Binary@_NPBD@@UAEPAXI@Z 1001a420 f i tilegen_class_factories.obj
 0001:00019420       ??_ECTilegenExpression_StringEqual@@UAEPAXI@Z 1001a420 f i tilegen_class_factories.obj
 0001:00019420       ??_E?$CTilegenExpression_Binary@_NPBD@@UAEPAXI@Z 1001a420 f i tilegen_class_factories.obj
 0001:00019470       ?DirectEvaluate@CTilegenExpression_Not@@UAE_NPAVCFreeVariableMap@@AB_N@Z 1001a470 f i tilegen_class_factories.obj
 0001:00019490       ??_GCTilegenExpression_Not@@UAEPAXI@Z 1001a490 f i tilegen_class_factories.obj
 0001:00019490       ??_G?$CTilegenExpression_Unary@_N_N@@UAEPAXI@Z 1001a490 f i tilegen_class_factories.obj
 0001:00019490       ??_ECTilegenExpression_Not@@UAEPAXI@Z 1001a490 f i tilegen_class_factories.obj
 0001:00019490       ??_E?$CTilegenExpression_Unary@_N_N@@UAEPAXI@Z 1001a490 f i tilegen_class_factories.obj
 0001:000194d0       ?DirectEvaluate@CTilegenExpression_BoolToInt@@UAEHPAVCFreeVariableMap@@AB_N@Z 1001a4d0 f i tilegen_class_factories.obj
 0001:000194e0       ??_G?$CTilegenExpression_Unary@H_N@@UAEPAXI@Z 1001a4e0 f i tilegen_class_factories.obj
 0001:000194e0       ??_GCTilegenExpression_BoolToInt@@UAEPAXI@Z 1001a4e0 f i tilegen_class_factories.obj
 0001:000194e0       ??_ECTilegenExpression_BoolToInt@@UAEPAXI@Z 1001a4e0 f i tilegen_class_factories.obj
 0001:000194e0       ??_E?$CTilegenExpression_Unary@H_N@@UAEPAXI@Z 1001a4e0 f i tilegen_class_factories.obj
 0001:00019520       ?DirectEvaluate@CTilegenExpression_IntToBool@@UAE_NPAVCFreeVariableMap@@ABH@Z 1001a520 f i tilegen_class_factories.obj
 0001:00019540       ??_G?$CTilegenExpression_Unary@_NH@@UAEPAXI@Z 1001a540 f i tilegen_class_factories.obj
 0001:00019540       ??_ECTilegenExpression_IntToBool@@UAEPAXI@Z 1001a540 f i tilegen_class_factories.obj
 0001:00019540       ??_GCTilegenExpression_IntToBool@@UAEPAXI@Z 1001a540 f i tilegen_class_factories.obj
 0001:00019540       ??_E?$CTilegenExpression_Unary@_NH@@UAEPAXI@Z 1001a540 f i tilegen_class_factories.obj
 0001:00019580       ?DirectEvaluate@CTilegenExpression_FloatToInt@@UAEHPAVCFreeVariableMap@@ABM@Z 1001a580 f i tilegen_class_factories.obj
 0001:00019590       ?DirectEvaluate@CTilegenExpression_IntToFloat@@UAEMPAVCFreeVariableMap@@ABH@Z 1001a590 f i tilegen_class_factories.obj
 0001:000195a0       ??_G?$CTilegenExpression_Unary@MH@@UAEPAXI@Z 1001a5a0 f i tilegen_class_factories.obj
 0001:000195a0       ??_ECTilegenExpression_IntToFloat@@UAEPAXI@Z 1001a5a0 f i tilegen_class_factories.obj
 0001:000195a0       ??_E?$CTilegenExpression_Unary@MH@@UAEPAXI@Z 1001a5a0 f i tilegen_class_factories.obj
 0001:000195a0       ??_GCTilegenExpression_IntToFloat@@UAEPAXI@Z 1001a5a0 f i tilegen_class_factories.obj
 0001:000195e0       ??_ECTilegenExpression_ExtractThemeName@@UAEPAXI@Z 1001a5e0 f i tilegen_class_factories.obj
 0001:000195e0       ??_G?$CTilegenExpression_Unary@PBDPBD@@UAEPAXI@Z 1001a5e0 f i tilegen_class_factories.obj
 0001:000195e0       ??_E?$CTilegenExpression_Unary@PBDPBD@@UAEPAXI@Z 1001a5e0 f i tilegen_class_factories.obj
 0001:000195e0       ??_ECTilegenExpression_ExtractRoomName@@UAEPAXI@Z 1001a5e0 f i tilegen_class_factories.obj
 0001:000195e0       ??_GCTilegenExpression_ExtractRoomName@@UAEPAXI@Z 1001a5e0 f i tilegen_class_factories.obj
 0001:000195e0       ??_GCTilegenExpression_ExtractThemeName@@UAEPAXI@Z 1001a5e0 f i tilegen_class_factories.obj
 0001:00019620       ??_G?$ITilegenExpression@PBVCRoom@@@@UAEPAXI@Z 1001a620 f i tilegen_class_factories.obj
 0001:00019620       ??_GCTilegenExpression_LastPlacedRoom@@UAEPAXI@Z 1001a620 f i tilegen_class_factories.obj
 0001:00019620       ??_ECTilegenExpression_LastPlacedRoom@@UAEPAXI@Z 1001a620 f i tilegen_class_factories.obj
 0001:00019620       ??_E?$ITilegenExpression@PBVCRoom@@@@UAEPAXI@Z 1001a620 f i tilegen_class_factories.obj
 0001:00019650       ??_GCTilegenExpression_RoomChildCount@@UAEPAXI@Z 1001a650 f i tilegen_class_factories.obj
 0001:00019650       ??_E?$CTilegenExpression_Unary@HPBVCRoom@@@@UAEPAXI@Z 1001a650 f i tilegen_class_factories.obj
 0001:00019650       ??_G?$CTilegenExpression_Unary@HPBVCRoom@@@@UAEPAXI@Z 1001a650 f i tilegen_class_factories.obj
 0001:00019650       ??_ECTilegenExpression_RoomChildCount@@UAEPAXI@Z 1001a650 f i tilegen_class_factories.obj
 0001:00019690       ??_ECTilegenExpression_RoomTemplateFromName@@UAEPAXI@Z 1001a690 f i tilegen_class_factories.obj
 0001:00019690       ??_GCTilegenExpression_RoomTemplateFromName@@UAEPAXI@Z 1001a690 f i tilegen_class_factories.obj
 0001:00019690       ??_E?$CTilegenExpression_Unary@PBVCRoomTemplate@@PBD@@UAEPAXI@Z 1001a690 f i tilegen_class_factories.obj
 0001:00019690       ??_G?$CTilegenExpression_Unary@PBVCRoomTemplate@@PBD@@UAEPAXI@Z 1001a690 f i tilegen_class_factories.obj
 0001:000196d0       ??_GCTilegenExpression_YPosition@@UAEPAXI@Z 1001a6d0 f i tilegen_class_factories.obj
 0001:000196d0       ??_G?$CTilegenExpression_Unary@HPBVCRoomCandidate@@@@UAEPAXI@Z 1001a6d0 f i tilegen_class_factories.obj
 0001:000196d0       ??_GCTilegenExpression_XPosition@@UAEPAXI@Z 1001a6d0 f i tilegen_class_factories.obj
 0001:000196d0       ??_ECTilegenExpression_XPosition@@UAEPAXI@Z 1001a6d0 f i tilegen_class_factories.obj
 0001:000196d0       ??_E?$CTilegenExpression_Unary@HPBVCRoomCandidate@@@@UAEPAXI@Z 1001a6d0 f i tilegen_class_factories.obj
 0001:000196d0       ??_ECTilegenExpression_YPosition@@UAEPAXI@Z 1001a6d0 f i tilegen_class_factories.obj
 0001:00019710       ??_E?$CTilegenExpression_Unary@HPBVCRoomTemplate@@@@UAEPAXI@Z 1001a710 f i tilegen_class_factories.obj
 0001:00019710       ??_GCTilegenExpression_RoomArea@@UAEPAXI@Z 1001a710 f i tilegen_class_factories.obj
 0001:00019710       ??_ECTilegenExpression_RoomArea@@UAEPAXI@Z 1001a710 f i tilegen_class_factories.obj
 0001:00019710       ??_GCTilegenExpression_NumTimesPlaced@@UAEPAXI@Z 1001a710 f i tilegen_class_factories.obj
 0001:00019710       ??_ECTilegenExpression_NumTimesPlaced@@UAEPAXI@Z 1001a710 f i tilegen_class_factories.obj
 0001:00019710       ??_G?$CTilegenExpression_Unary@HPBVCRoomTemplate@@@@UAEPAXI@Z 1001a710 f i tilegen_class_factories.obj
 0001:00019750       ??_GCTilegenExpression_ExitTag@@UAEPAXI@Z 1001a750 f i tilegen_class_factories.obj
 0001:00019750       ??_ECTilegenExpression_ExitTag@@UAEPAXI@Z 1001a750 f i tilegen_class_factories.obj
 0001:00019750       ??_G?$CTilegenExpression_Unary@PBDPBVCExit@@@@UAEPAXI@Z 1001a750 f i tilegen_class_factories.obj
 0001:00019750       ??_E?$CTilegenExpression_Unary@PBDPBVCExit@@@@UAEPAXI@Z 1001a750 f i tilegen_class_factories.obj
 0001:00019790       ??_ECTilegenExpression_StateName@@UAEPAXI@Z 1001a790 f i tilegen_class_factories.obj
 0001:00019790       ??_E?$CTilegenExpression_Unary@PBDPBVCTilegenState@@@@UAEPAXI@Z 1001a790 f i tilegen_class_factories.obj
 0001:00019790       ??_GCTilegenExpression_StateName@@UAEPAXI@Z 1001a790 f i tilegen_class_factories.obj
 0001:00019790       ??_G?$CTilegenExpression_Unary@PBDPBVCTilegenState@@@@UAEPAXI@Z 1001a790 f i tilegen_class_factories.obj
 0001:000197d0       ?LoadFromKeyValues@CTilegenExpression_LiteralInt@@UAE_NPAVKeyValues@@@Z 1001a7d0 f i tilegen_class_factories.obj
 0001:000197f0       ?LoadFromKeyValues@CTilegenExpression_LiteralBool@@UAE_NPAVKeyValues@@@Z 1001a7f0 f i tilegen_class_factories.obj
 0001:00019820       ?LoadFromKeyValues@CTilegenExpression_LiteralFloat@@UAE_NPAVKeyValues@@@Z 1001a820 f i tilegen_class_factories.obj
 0001:00019850       ??_E?$ITilegenExpression@M@@UAEPAXI@Z 1001a850 f i tilegen_class_factories.obj
 0001:00019850       ??_G?$ITilegenExpression@M@@UAEPAXI@Z 1001a850 f i tilegen_class_factories.obj
 0001:00019850       ??_ECTilegenExpression_LiteralFloat@@UAEPAXI@Z 1001a850 f i tilegen_class_factories.obj
 0001:00019850       ??_GCTilegenExpression_LiteralFloat@@UAEPAXI@Z 1001a850 f i tilegen_class_factories.obj
 0001:00019880       ?LoadFromKeyValues@CTilegenExpression_LiteralString@@UAE_NPAVKeyValues@@@Z 1001a880 f i tilegen_class_factories.obj
 0001:000198f0       ??_E?$ITilegenExpression@PBD@@UAEPAXI@Z 1001a8f0 f i tilegen_class_factories.obj
 0001:000198f0       ??_GCTilegenExpression_VariableString@@UAEPAXI@Z 1001a8f0 f i tilegen_class_factories.obj
 0001:000198f0       ??_ECTilegenExpression_LiteralString@@UAEPAXI@Z 1001a8f0 f i tilegen_class_factories.obj
 0001:000198f0       ??_GCTilegenExpression_LiteralString@@UAEPAXI@Z 1001a8f0 f i tilegen_class_factories.obj
 0001:000198f0       ??_G?$ITilegenExpression@PBD@@UAEPAXI@Z 1001a8f0 f i tilegen_class_factories.obj
 0001:000198f0       ??_ECTilegenExpression_VariableString@@UAEPAXI@Z 1001a8f0 f i tilegen_class_factories.obj
 0001:00019920       ??_GCTilegenExpression_VariableRoomCandidate@@UAEPAXI@Z 1001a920 f i tilegen_class_factories.obj
 0001:00019920       ??_E?$ITilegenExpression@PBVCRoomCandidate@@@@UAEPAXI@Z 1001a920 f i tilegen_class_factories.obj
 0001:00019920       ??_ECTilegenExpression_VariableRoomCandidate@@UAEPAXI@Z 1001a920 f i tilegen_class_factories.obj
 0001:00019920       ??_G?$ITilegenExpression@PBVCRoomCandidate@@@@UAEPAXI@Z 1001a920 f i tilegen_class_factories.obj
 0001:00019950       ?CreateInstance@?$CTilegenClassFactory@V?$ITilegenExpression@H@@VCTilegenExpression_Subtract@@@@UAEPAV?$ITilegenExpression@H@@XZ 1001a950 f i tilegen_class_factories.obj
 0001:00019970       ?CreateInstance@?$CTilegenClassFactory@V?$ITilegenExpression@_N@@VCTilegenExpression_Not@@@@UAEPAV?$ITilegenExpression@_N@@XZ 1001a970 f i tilegen_class_factories.obj
 0001:00019990       ?CreateInstance@?$CTilegenClassFactory@V?$ITilegenExpression@H@@VCTilegenExpression_BoolToInt@@@@UAEPAV?$ITilegenExpression@H@@XZ 1001a990 f i tilegen_class_factories.obj
 0001:000199b0       ?CreateInstance@?$CTilegenClassFactory@V?$ITilegenExpression@_N@@VCTilegenExpression_IntToBool@@@@UAEPAV?$ITilegenExpression@_N@@XZ 1001a9b0 f i tilegen_class_factories.obj
 0001:000199d0       ?CreateInstance@?$CTilegenClassFactory@V?$ITilegenExpression@H@@VCTilegenExpression_FloatToInt@@@@UAEPAV?$ITilegenExpression@H@@XZ 1001a9d0 f i tilegen_class_factories.obj
 0001:000199f0       ?CreateInstance@?$CTilegenClassFactory@V?$ITilegenExpression@M@@VCTilegenExpression_IntToFloat@@@@UAEPAV?$ITilegenExpression@M@@XZ 1001a9f0 f i tilegen_class_factories.obj
 0001:00019a10       ?CreateInstance@?$CTilegenClassFactory@V?$ITilegenExpression@_N@@VCTilegenExpression_Greater@@@@UAEPAV?$ITilegenExpression@_N@@XZ 1001aa10 f i tilegen_class_factories.obj
 0001:00019a30       ?CreateInstance@?$CTilegenClassFactory@V?$ITilegenExpression@_N@@VCTilegenExpression_GreaterOrEqual@@@@UAEPAV?$ITilegenExpression@_N@@XZ 1001aa30 f i tilegen_class_factories.obj
 0001:00019a50       ?CreateInstance@?$CTilegenClassFactory@V?$ITilegenExpression@_N@@VCTilegenExpression_Equal@@@@UAEPAV?$ITilegenExpression@_N@@XZ 1001aa50 f i tilegen_class_factories.obj
 0001:00019a70       ?CreateInstance@?$CTilegenClassFactory@V?$ITilegenExpression@_N@@VCTilegenExpression_NotEqual@@@@UAEPAV?$ITilegenExpression@_N@@XZ 1001aa70 f i tilegen_class_factories.obj
 0001:00019a90       ?CreateInstance@?$CTilegenClassFactory@V?$ITilegenExpression@_N@@VCTilegenExpression_Less@@@@UAEPAV?$ITilegenExpression@_N@@XZ 1001aa90 f i tilegen_class_factories.obj
 0001:00019ab0       ?CreateInstance@?$CTilegenClassFactory@V?$ITilegenExpression@_N@@VCTilegenExpression_LessOrEqual@@@@UAEPAV?$ITilegenExpression@_N@@XZ 1001aab0 f i tilegen_class_factories.obj
 0001:00019ad0       ?CreateInstance@?$CTilegenClassFactory@V?$ITilegenExpression@H@@VCTilegenExpression_LiteralInt@@@@UAEPAV?$ITilegenExpression@H@@XZ 1001aad0 f i tilegen_class_factories.obj
 0001:00019af0       ?CreateInstance@?$CTilegenClassFactory@V?$ITilegenExpression@_N@@VCTilegenExpression_LiteralBool@@@@UAEPAV?$ITilegenExpression@_N@@XZ 1001aaf0 f i tilegen_class_factories.obj
 0001:00019b10       ?CreateInstance@?$CTilegenClassFactory@V?$ITilegenExpression@M@@VCTilegenExpression_LiteralFloat@@@@UAEPAV?$ITilegenExpression@M@@XZ 1001ab10 f i tilegen_class_factories.obj
 0001:00019b30       ?CreateInstance@?$CTilegenClassFactory@V?$ITilegenExpression@PBD@@VCTilegenExpression_LiteralString@@@@UAEPAV?$ITilegenExpression@PBD@@XZ 1001ab30 f i tilegen_class_factories.obj
 0001:00019b70       ?CreateInstance@?$CTilegenClassFactory@V?$ITilegenExpression@_N@@VCTilegenExpression_StringEqual@@@@UAEPAV?$ITilegenExpression@_N@@XZ 1001ab70 f i tilegen_class_factories.obj
 0001:00019b90       ?CreateInstance@?$CTilegenClassFactory@V?$ITilegenExpression@_N@@VCTilegenExpression_StringNotEqual@@@@UAEPAV?$ITilegenExpression@_N@@XZ 1001ab90 f i tilegen_class_factories.obj
 0001:00019bb0       ?CreateInstance@?$CTilegenClassFactory@V?$ITilegenExpression@PBD@@VCTilegenExpression_StringConcatenate@@@@UAEPAV?$ITilegenExpression@PBD@@XZ 1001abb0 f i tilegen_class_factories.obj
 0001:00019bd0       ?CreateInstance@?$CTilegenClassFactory@V?$ITilegenExpression@PBD@@VCTilegenExpression_RoomName@@@@UAEPAV?$ITilegenExpression@PBD@@XZ 1001abd0 f i tilegen_class_factories.obj
 0001:00019bf0       ?CreateInstance@?$CTilegenClassFactory@V?$ITilegenExpression@H@@VCTilegenExpression_RoomArea@@@@UAEPAV?$ITilegenExpression@H@@XZ 1001abf0 f i tilegen_class_factories.obj
 0001:00019c10       ?CreateInstance@?$CTilegenClassFactory@V?$ITilegenExpression@PBD@@VCTilegenExpression_ExtractRoomName@@@@UAEPAV?$ITilegenExpression@PBD@@XZ 1001ac10 f i tilegen_class_factories.obj
 0001:00019c30       ?CreateInstance@?$CTilegenClassFactory@V?$ITilegenExpression@PBD@@VCTilegenExpression_ExtractThemeName@@@@UAEPAV?$ITilegenExpression@PBD@@XZ 1001ac30 f i tilegen_class_factories.obj
 0001:00019c50       ?CreateInstance@?$CTilegenClassFactory@V?$ITilegenExpression@PBVCRoomTemplate@@@@VCTilegenExpression_SourceRoomTemplateFromExit@@@@UAEPAV?$ITilegenExpression@PBVCRoomTemplate@@@@XZ 1001ac50 f i tilegen_class_factories.obj
 0001:00019c70       ?CreateInstance@?$CTilegenClassFactory@V?$ITilegenExpression@_N@@VCTilegenExpression_ChokepointGrowSource@@@@UAEPAV?$ITilegenExpression@_N@@XZ 1001ac70 f i tilegen_class_factories.obj
 0001:00019c90       ?CreateInstance@?$CTilegenClassFactory@V?$ITilegenExpression@H@@VCTilegenExpression_RoomChildCount@@@@UAEPAV?$ITilegenExpression@H@@XZ 1001ac90 f i tilegen_class_factories.obj
 0001:00019cb0       ?CreateInstance@?$CTilegenClassFactory@V?$ITilegenExpression@PBVCRoomTemplate@@@@VCTilegenExpression_RoomTemplateFromName@@@@UAEPAV?$ITilegenExpression@PBVCRoomTemplate@@@@XZ 1001acb0 f i tilegen_class_factories.obj
 0001:00019cd0       ?CreateInstance@?$CTilegenClassFactory@V?$ITilegenExpression@H@@VCTilegenExpression_XPosition@@@@UAEPAV?$ITilegenExpression@H@@XZ 1001acd0 f i tilegen_class_factories.obj
 0001:00019cf0       ?CreateInstance@?$CTilegenClassFactory@V?$ITilegenExpression@H@@VCTilegenExpression_YPosition@@@@UAEPAV?$ITilegenExpression@H@@XZ 1001acf0 f i tilegen_class_factories.obj
 0001:00019d10       ?CreateInstance@?$CTilegenClassFactory@V?$ITilegenExpression@H@@VCTilegenExpression_NumTimesPlaced@@@@UAEPAV?$ITilegenExpression@H@@XZ 1001ad10 f i tilegen_class_factories.obj
 0001:00019d30       ?CreateInstance@?$CTilegenClassFactory@V?$ITilegenExpression@PBD@@VCTilegenExpression_ExitTag@@@@UAEPAV?$ITilegenExpression@PBD@@XZ 1001ad30 f i tilegen_class_factories.obj
 0001:00019d50       ?CreateInstance@?$CTilegenClassFactory@V?$ITilegenExpression@H@@VCTilegenExpression_ExitDirection@@@@UAEPAV?$ITilegenExpression@H@@XZ 1001ad50 f i tilegen_class_factories.obj
 0001:00019d70       ?CreateInstance@?$CTilegenClassFactory@V?$ITilegenExpression@PBVCTilegenState@@@@VCTilegenExpression_ParentState@@@@UAEPAV?$ITilegenExpression@PBVCTilegenState@@@@XZ 1001ad70 f i tilegen_class_factories.obj
 0001:00019d90       ?CreateInstance@?$CTilegenClassFactory@V?$ITilegenExpression@PBD@@VCTilegenExpression_StateName@@@@UAEPAV?$ITilegenExpression@PBD@@XZ 1001ad90 f i tilegen_class_factories.obj
 0001:00019db0       ?CreateInstance@?$CTilegenClassFactory@V?$ITilegenExpression@H@@VCTilegenExpression_MapReduceExits@@@@UAEPAV?$ITilegenExpression@H@@XZ 1001adb0 f i tilegen_class_factories.obj
 0001:00019e00       ?CreateInstance@?$CTilegenClassFactory@V?$ITilegenExpression@H@@VCTilegenExpression_VariableInt@@@@UAEPAV?$ITilegenExpression@H@@XZ 1001ae00 f i tilegen_class_factories.obj
 0001:00019e30       ?CreateInstance@?$CTilegenClassFactory@V?$ITilegenExpression@PBD@@VCTilegenExpression_VariableString@@@@UAEPAV?$ITilegenExpression@PBD@@XZ 1001ae30 f i tilegen_class_factories.obj
 0001:00019e60       ?CreateInstance@?$CTilegenClassFactory@V?$ITilegenExpression@PBVCExit@@@@VCTilegenExpression_VariableExit@@@@UAEPAV?$ITilegenExpression@PBVCExit@@@@XZ 1001ae60 f i tilegen_class_factories.obj
 0001:00019e90       ?CreateInstance@?$CTilegenClassFactory@V?$ITilegenExpression@PBVCRoomCandidate@@@@VCTilegenExpression_VariableRoomCandidate@@@@UAEPAV?$ITilegenExpression@PBVCRoomCandidate@@@@XZ 1001ae90 f i tilegen_class_factories.obj
 0001:00019ec0       ?CreateInstance@?$CTilegenClassFactory@V?$ITilegenExpression@PBVCRoomTemplate@@@@VCTilegenExpression_VariableRoomTemplate@@@@UAEPAV?$ITilegenExpression@PBVCRoomTemplate@@@@XZ 1001aec0 f i tilegen_class_factories.obj
 0001:00019ef0       ?CreateInstance@?$CTilegenClassFactory@V?$ITilegenExpression@PBVCTilegenState@@@@VCTilegenExpression_VariableState@@@@UAEPAV?$ITilegenExpression@PBVCTilegenState@@@@XZ 1001aef0 f i tilegen_class_factories.obj
 0001:00019f20       ??_ECTilegenAction_SetVariableInt@@UAEPAXI@Z 1001af20 f i tilegen_class_factories.obj
 0001:00019f20       ??_GCTilegenAction_SetVariableInt@@UAEPAXI@Z 1001af20 f i tilegen_class_factories.obj
 0001:00019f20       ??_G?$CTilegenAction_SetVariableT@H@@UAEPAXI@Z 1001af20 f i tilegen_class_factories.obj
 0001:00019f20       ??_E?$CTilegenAction_SetVariableT@H@@UAEPAXI@Z 1001af20 f i tilegen_class_factories.obj
 0001:00019f70       ?CreateInstance@?$CTilegenClassRegistry@V?$ITilegenExpression@M@@@@SAPAV?$ITilegenExpression@M@@PBD@Z 1001af70 f i tilegen_class_factories.obj
 0001:0001a000       ?CreateInstance@?$CTilegenClassRegistry@VITilegenAction@@@@SAPAVITilegenAction@@PBD@Z 1001b000 f i tilegen_class_factories.obj
 0001:0001a090       ?CreateInstance@?$CTilegenClassRegistry@V?$ITilegenExpression@PBVCExit@@@@@@SAPAV?$ITilegenExpression@PBVCExit@@@@PBD@Z 1001b090 f i tilegen_class_factories.obj
 0001:0001a120       ?CreateInstance@?$CTilegenClassRegistry@V?$ITilegenExpression@PBVCRoomTemplate@@@@@@SAPAV?$ITilegenExpression@PBVCRoomTemplate@@@@PBD@Z 1001b120 f i tilegen_class_factories.obj
 0001:0001a1b0       ?CreateInstance@?$CTilegenClassRegistry@V?$ITilegenExpression@PBVCRoomCandidate@@@@@@SAPAV?$ITilegenExpression@PBVCRoomCandidate@@@@PBD@Z 1001b1b0 f i tilegen_class_factories.obj
 0001:0001a240       ?CreateInstance@?$CTilegenClassRegistry@V?$ITilegenExpression@PAV?$ITilegenRange@PBVCExit@@@@@@@@SAPAV?$ITilegenExpression@PAV?$ITilegenRange@PBVCExit@@@@@@PBD@Z 1001b240 f i tilegen_class_factories.obj
 0001:0001a2d0       ?CreateInstance@?$CTilegenClassRegistry@V?$ITilegenExpression@PBVCTilegenState@@@@@@SAPAV?$ITilegenExpression@PBVCTilegenState@@@@PBD@Z 1001b2d0 f i tilegen_class_factories.obj
 0001:0001a360       ?CreateInstance@?$CTilegenClassRegistry@V?$ITilegenRange@PBVCExit@@@@@@SAPAV?$ITilegenRange@PBVCExit@@@@PBD@Z 1001b360 f i tilegen_class_factories.obj
 0001:0001a3f0       ??_GCTilegenExpression_LessOrEqual@@UAEPAXI@Z 1001b3f0 f i tilegen_class_factories.obj
 0001:0001a3f0       ??_GCTilegenExpression_Less@@UAEPAXI@Z 1001b3f0 f i tilegen_class_factories.obj
 0001:0001a3f0       ??_G?$CTilegenExpression_Binary@_NH@@UAEPAXI@Z 1001b3f0 f i tilegen_class_factories.obj
 0001:0001a3f0       ??_ECTilegenExpression_Less@@UAEPAXI@Z 1001b3f0 f i tilegen_class_factories.obj
 0001:0001a3f0       ??_GCTilegenExpression_Equal@@UAEPAXI@Z 1001b3f0 f i tilegen_class_factories.obj
 0001:0001a3f0       ??_ECTilegenExpression_GreaterOrEqual@@UAEPAXI@Z 1001b3f0 f i tilegen_class_factories.obj
 0001:0001a3f0       ??_E?$CTilegenExpression_Binary@_NH@@UAEPAXI@Z 1001b3f0 f i tilegen_class_factories.obj
 0001:0001a3f0       ??_GCTilegenExpression_Greater@@UAEPAXI@Z 1001b3f0 f i tilegen_class_factories.obj
 0001:0001a3f0       ??_ECTilegenExpression_Greater@@UAEPAXI@Z 1001b3f0 f i tilegen_class_factories.obj
 0001:0001a3f0       ??_ECTilegenExpression_NotEqual@@UAEPAXI@Z 1001b3f0 f i tilegen_class_factories.obj
 0001:0001a3f0       ??_GCTilegenExpression_GreaterOrEqual@@UAEPAXI@Z 1001b3f0 f i tilegen_class_factories.obj
 0001:0001a3f0       ??_ECTilegenExpression_Equal@@UAEPAXI@Z 1001b3f0 f i tilegen_class_factories.obj
 0001:0001a3f0       ??_ECTilegenExpression_LessOrEqual@@UAEPAXI@Z 1001b3f0 f i tilegen_class_factories.obj
 0001:0001a3f0       ??_GCTilegenExpression_NotEqual@@UAEPAXI@Z 1001b3f0 f i tilegen_class_factories.obj
 0001:0001a440       ??_G?$CTilegenExpression_Binary@PBDPBD@@UAEPAXI@Z 1001b440 f i tilegen_class_factories.obj
 0001:0001a440       ??_GCTilegenExpression_StringConcatenate@@UAEPAXI@Z 1001b440 f i tilegen_class_factories.obj
 0001:0001a440       ??_ECTilegenExpression_StringConcatenate@@UAEPAXI@Z 1001b440 f i tilegen_class_factories.obj
 0001:0001a440       ??_E?$CTilegenExpression_Binary@PBDPBD@@UAEPAXI@Z 1001b440 f i tilegen_class_factories.obj
 0001:0001a490       ??_ECTilegenExpression_SourceRoomTemplateFromExit@@UAEPAXI@Z 1001b490 f i tilegen_class_factories.obj
 0001:0001a490       ??_E?$CTilegenExpression_Unary@PBVCRoomTemplate@@PBVCExit@@@@UAEPAXI@Z 1001b490 f i tilegen_class_factories.obj
 0001:0001a490       ??_G?$CTilegenExpression_Unary@PBVCRoomTemplate@@PBVCExit@@@@UAEPAXI@Z 1001b490 f i tilegen_class_factories.obj
 0001:0001a490       ??_GCTilegenExpression_SourceRoomTemplateFromExit@@UAEPAXI@Z 1001b490 f i tilegen_class_factories.obj
 0001:0001a4d0       ?CreateInstance@?$CTilegenClassFactory@VITilegenAction@@VCTilegenAction_SetVariableInt@@@@UAEPAVITilegenAction@@XZ 1001b4d0 f i tilegen_class_factories.obj
 0001:0001a500       ?CreateInstance@?$CTilegenClassFactory@VITilegenAction@@VCTilegenAction_SetVariableString@@@@UAEPAVITilegenAction@@XZ 1001b500 f i tilegen_class_factories.obj
 0001:0001a530       ?CreateInstance@?$CTilegenClassFactory@VITilegenAction@@VCTilegenAction_SetVariableBoolExpression@@@@UAEPAVITilegenAction@@XZ 1001b530 f i tilegen_class_factories.obj
 0001:0001a6b0       ??$CreateFromKeyValuesBlock@V?$ITilegenExpression@M@@@@YA_NPAVKeyValues@@PBD1PAPAV?$ITilegenExpression@M@@_N3@Z 1001b6b0 f i tilegen_class_factories.obj
 0001:0001abf0       ?CreateActionAndCondition@@YA_NPAVKeyValues@@PAPAVITilegenAction@@PAPAV?$ITilegenExpression@_N@@@Z 1001bbf0 f   tilegen_class_factories.obj
 0001:0001ac50       ?CreateActionAndConditionFromKeyValuesBlock@@YA_NPAVKeyValues@@PBD1PAPAVITilegenAction@@PAPAV?$ITilegenExpression@_N@@@Z 1001bc50 f   tilegen_class_factories.obj
 0001:0001ad00       ?Evaluate@?$CTilegenExpression_Multi@H@@UAEHPAVCFreeVariableMap@@@Z 1001bd00 f i tilegen_class_factories.obj
 0001:0001adc0       ?Evaluate@?$CTilegenExpression_Multi@M@@UAEMPAVCFreeVariableMap@@@Z 1001bdc0 f i tilegen_class_factories.obj
 0001:0001ae80       ?Evaluate@?$CTilegenExpression_Multi@_N@@UAE_NPAVCFreeVariableMap@@@Z 1001be80 f i tilegen_class_factories.obj
 0001:0001af40       ??_E?$CTilegenExpression_Multi@M@@UAEPAXI@Z 1001bf40 f i tilegen_class_factories.obj
 0001:0001af40       ??_GCTilegenExpression_FloatMultiply@@UAEPAXI@Z 1001bf40 f i tilegen_class_factories.obj
 0001:0001af40       ??_G?$CTilegenExpression_Multi@M@@UAEPAXI@Z 1001bf40 f i tilegen_class_factories.obj
 0001:0001af40       ??_ECTilegenExpression_FloatMultiply@@UAEPAXI@Z 1001bf40 f i tilegen_class_factories.obj
 0001:0001af80       ??$CreateFromKeyValuesBlock@V?$ITilegenExpression@PBVCRoomTemplate@@@@@@YA_NPAVKeyValues@@PBD1PAPAV?$ITilegenExpression@PBVCRoomTemplate@@@@_N3@Z 1001bf80 f i tilegen_class_factories.obj
 0001:0001b040       ??$CreateFromKeyValuesBlock@V?$ITilegenExpression@PBVCExit@@@@@@YA_NPAVKeyValues@@PBD1PAPAV?$ITilegenExpression@PBVCExit@@@@_N3@Z 1001c040 f i tilegen_class_factories.obj
 0001:0001b100       ??$CreateFromKeyValuesBlock@V?$ITilegenExpression@PBVCRoomCandidate@@@@@@YA_NPAVKeyValues@@PBD1PAPAV?$ITilegenExpression@PBVCRoomCandidate@@@@_N3@Z 1001c100 f i tilegen_class_factories.obj
 0001:0001b1c0       ??$CreateFromKeyValuesBlock@V?$ITilegenExpression@PBVCTilegenState@@@@@@YA_NPAVKeyValues@@PBD1PAPAV?$ITilegenExpression@PBVCTilegenState@@@@_N3@Z 1001c1c0 f i tilegen_class_factories.obj
 0001:0001b280       ??$CreateFromKeyValuesBlock@V?$ITilegenExpression@PAV?$ITilegenRange@PBVCExit@@@@@@@@YA_NPAVKeyValues@@PBD1PAPAV?$ITilegenExpression@PAV?$ITilegenRange@PBVCExit@@@@@@_N3@Z 1001c280 f i tilegen_class_factories.obj
 0001:0001b340       ??$CreateFromKeyValuesBlock@V?$ITilegenRange@PBVCExit@@@@@@YA_NPAVKeyValues@@PBD1PAPAV?$ITilegenRange@PBVCExit@@@@_N3@Z 1001c340 f i tilegen_class_factories.obj
 0001:0001b400       ?DirectEvaluate@CTilegenExpression_Add@@UAEHPAVCFreeVariableMap@@ABH1@Z 1001c400 f i tilegen_class_factories.obj
 0001:0001b420       ?DirectEvaluate@CTilegenExpression_FloatMultiply@@UAEMPAVCFreeVariableMap@@ABM1@Z 1001c420 f i tilegen_class_factories.obj
 0001:0001b440       ?GetIdentityValue@CTilegenExpression_FloatMultiply@@UAEMXZ 1001c440 f i tilegen_class_factories.obj
 0001:0001b450       ?DirectEvaluate@CTilegenExpression_And@@UAE_NPAVCFreeVariableMap@@AB_N1@Z 1001c450 f i tilegen_class_factories.obj
 0001:0001b480       ?DirectEvaluate@CTilegenExpression_Or@@UAE_NPAVCFreeVariableMap@@AB_N1@Z 1001c480 f i tilegen_class_factories.obj
 0001:0001b4b0       ?LoadFromKeyValues@?$CTilegenExpression_Binary@HH@@UAE_NPAVKeyValues@@@Z 1001c4b0 f i tilegen_class_factories.obj
 0001:0001b4b0       ?LoadFromKeyValues@?$CTilegenExpression_Binary@_NH@@UAE_NPAVKeyValues@@@Z 1001c4b0 f i tilegen_class_factories.obj
 0001:0001b510       ?LoadFromKeyValues@?$CTilegenExpression_Multi@H@@UAE_NPAVKeyValues@@@Z 1001c510 f i tilegen_class_factories.obj
 0001:0001b660       ?LoadFromKeyValues@?$CTilegenExpression_Multi@M@@UAE_NPAVKeyValues@@@Z 1001c660 f i tilegen_class_factories.obj
 0001:0001b7b0       ?LoadFromKeyValues@?$CTilegenExpression_Multi@_N@@UAE_NPAVKeyValues@@@Z 1001c7b0 f i tilegen_class_factories.obj
 0001:0001b900       ?LoadFromKeyValues@?$CTilegenExpression_Unary@_N_N@@UAE_NPAVKeyValues@@@Z 1001c900 f i tilegen_class_factories.obj
 0001:0001b900       ?LoadFromKeyValues@?$CTilegenExpression_Unary@H_N@@UAE_NPAVKeyValues@@@Z 1001c900 f i tilegen_class_factories.obj
 0001:0001b930       ?LoadFromKeyValues@?$CTilegenExpression_Unary@_NH@@UAE_NPAVKeyValues@@@Z 1001c930 f i tilegen_class_factories.obj
 0001:0001b930       ?LoadFromKeyValues@?$CTilegenExpression_Unary@MH@@UAE_NPAVKeyValues@@@Z 1001c930 f i tilegen_class_factories.obj
 0001:0001b960       ?LoadFromKeyValues@?$CTilegenExpression_Unary@HM@@UAE_NPAVKeyValues@@@Z 1001c960 f i tilegen_class_factories.obj
 0001:0001b990       ??0?$CTilegenExpression_CountRange@PBVCExit@@@@QAE@PAV?$ITilegenRange@PBVCExit@@@@@Z 1001c990 f i tilegen_class_factories.obj
 0001:0001ba20       ?AddFactory@?$CTilegenClassRegistry@V?$ITilegenExpression@_N@@@@SAXPAV?$ITilegenClassFactory@V?$ITilegenExpression@_N@@@@@Z 1001ca20 f i tilegen_class_factories.obj
 0001:0001ba90       ?AddFactory@?$CTilegenClassRegistry@V?$ITilegenExpression@H@@@@SAXPAV?$ITilegenClassFactory@V?$ITilegenExpression@H@@@@@Z 1001ca90 f i tilegen_class_factories.obj
 0001:0001bb00       ?AddFactory@?$CTilegenClassRegistry@V?$ITilegenExpression@M@@@@SAXPAV?$ITilegenClassFactory@V?$ITilegenExpression@M@@@@@Z 1001cb00 f i tilegen_class_factories.obj
 0001:0001bb70       ?AddFactory@?$CTilegenClassRegistry@V?$ITilegenExpression@PBD@@@@SAXPAV?$ITilegenClassFactory@V?$ITilegenExpression@PBD@@@@@Z 1001cb70 f i tilegen_class_factories.obj
 0001:0001bbe0       ?AddFactory@?$CTilegenClassRegistry@V?$ITilegenExpression@PBVCExit@@@@@@SAXPAV?$ITilegenClassFactory@V?$ITilegenExpression@PBVCExit@@@@@@@Z 1001cbe0 f i tilegen_class_factories.obj
 0001:0001bc50       ?AddFactory@?$CTilegenClassRegistry@V?$ITilegenExpression@PBVCRoomTemplate@@@@@@SAXPAV?$ITilegenClassFactory@V?$ITilegenExpression@PBVCRoomTemplate@@@@@@@Z 1001cc50 f i tilegen_class_factories.obj
 0001:0001bcc0       ?AddFactory@?$CTilegenClassRegistry@V?$ITilegenExpression@PBVCRoom@@@@@@SAXPAV?$ITilegenClassFactory@V?$ITilegenExpression@PBVCRoom@@@@@@@Z 1001ccc0 f i tilegen_class_factories.obj
 0001:0001bd30       ?AddFactory@?$CTilegenClassRegistry@V?$ITilegenExpression@PBVCRoomCandidate@@@@@@SAXPAV?$ITilegenClassFactory@V?$ITilegenExpression@PBVCRoomCandidate@@@@@@@Z 1001cd30 f i tilegen_class_factories.obj
 0001:0001bda0       ?AddFactory@?$CTilegenClassRegistry@V?$ITilegenExpression@PBVCTilegenState@@@@@@SAXPAV?$ITilegenClassFactory@V?$ITilegenExpression@PBVCTilegenState@@@@@@@Z 1001cda0 f i tilegen_class_factories.obj
 0001:0001be10       ?AddFactory@?$CTilegenClassRegistry@VITilegenAction@@@@SAXPAV?$ITilegenClassFactory@VITilegenAction@@@@@Z 1001ce10 f i tilegen_class_factories.obj
 0001:0001be80       ?AddFactory@?$CTilegenClassRegistry@V?$ITilegenRange@PBVCExit@@@@@@SAXPAV?$ITilegenClassFactory@V?$ITilegenRange@PBVCExit@@@@@@@Z 1001ce80 f i tilegen_class_factories.obj
 0001:0001bef0       ?CreateInstance@?$CTilegenClassFactory@V?$ITilegenExpression@H@@VCTilegenExpression_Add@@@@UAEPAV?$ITilegenExpression@H@@XZ 1001cef0 f i tilegen_class_factories.obj
 0001:0001bf20       ?CreateInstance@?$CTilegenClassFactory@V?$ITilegenExpression@M@@VCTilegenExpression_FloatMultiply@@@@UAEPAV?$ITilegenExpression@M@@XZ 1001cf20 f i tilegen_class_factories.obj
 0001:0001bf50       ?CreateInstance@?$CTilegenClassFactory@V?$ITilegenExpression@_N@@VCTilegenExpression_And@@@@UAEPAV?$ITilegenExpression@_N@@XZ 1001cf50 f i tilegen_class_factories.obj
 0001:0001bf80       ?CreateInstance@?$CTilegenClassFactory@V?$ITilegenExpression@_N@@VCTilegenExpression_Or@@@@UAEPAV?$ITilegenExpression@_N@@XZ 1001cf80 f i tilegen_class_factories.obj
 0001:0001bfb0       ??_G?$CTilegenExpression_Multi@H@@UAEPAXI@Z 1001cfb0 f i tilegen_class_factories.obj
 0001:0001bfb0       ??_GCTilegenExpression_Add@@UAEPAXI@Z 1001cfb0 f i tilegen_class_factories.obj
 0001:0001bfb0       ??_ECTilegenExpression_Add@@UAEPAXI@Z 1001cfb0 f i tilegen_class_factories.obj
 0001:0001bfb0       ??_E?$CTilegenExpression_Multi@H@@UAEPAXI@Z 1001cfb0 f i tilegen_class_factories.obj
 0001:0001bff0       ??_G?$CTilegenExpression_Multi@_N@@UAEPAXI@Z 1001cff0 f i tilegen_class_factories.obj
 0001:0001bff0       ??_E?$CTilegenExpression_Multi@_N@@UAEPAXI@Z 1001cff0 f i tilegen_class_factories.obj
 0001:0001bff0       ??_GCTilegenExpression_And@@UAEPAXI@Z 1001cff0 f i tilegen_class_factories.obj
 0001:0001bff0       ??_ECTilegenExpression_And@@UAEPAXI@Z 1001cff0 f i tilegen_class_factories.obj
 0001:0001bff0       ??_GCTilegenExpression_Or@@UAEPAXI@Z 1001cff0 f i tilegen_class_factories.obj
 0001:0001bff0       ??_ECTilegenExpression_Or@@UAEPAXI@Z 1001cff0 f i tilegen_class_factories.obj
 0001:0001c030       ?LoadFromKeyValues@CTilegenAction_SetVariable@@UAE_NPAVKeyValues@@@Z 1001d030 f i tilegen_class_factories.obj
 0001:0001c0a0       ?LoadFromKeyValues@CTilegenAction_SetVariableAction@@UAE_NPAVKeyValues@@@Z 1001d0a0 f i tilegen_class_factories.obj
 0001:0001c110       ?RegisterAllTilegenClasses@@YAXXZ 1001d110 f   tilegen_class_factories.obj
 0001:0001c400       ?LoadFromKeyValues@?$CTilegenExpression_Binary@_NPBD@@UAE_NPAVKeyValues@@@Z 1001d400 f i tilegen_class_factories.obj
 0001:0001c400       ?LoadFromKeyValues@?$CTilegenExpression_Binary@PBDPBD@@UAE_NPAVKeyValues@@@Z 1001d400 f i tilegen_class_factories.obj
 0001:0001c460       ?LoadFromKeyValues@?$CTilegenExpression_Unary@PBDPBVCRoomTemplate@@@@UAE_NPAVKeyValues@@@Z 1001d460 f i tilegen_class_factories.obj
 0001:0001c460       ?LoadFromKeyValues@?$CTilegenExpression_Unary@HPBVCRoomTemplate@@@@UAE_NPAVKeyValues@@@Z 1001d460 f i tilegen_class_factories.obj
 0001:0001c490       ?LoadFromKeyValues@?$CTilegenExpression_Unary@_NPBVCExit@@@@UAE_NPAVKeyValues@@@Z 1001d490 f i tilegen_class_factories.obj
 0001:0001c490       ?LoadFromKeyValues@?$CTilegenExpression_Unary@PBDPBVCExit@@@@UAE_NPAVKeyValues@@@Z 1001d490 f i tilegen_class_factories.obj
 0001:0001c490       ?LoadFromKeyValues@?$CTilegenExpression_Unary@PBVCRoomTemplate@@PBVCExit@@@@UAE_NPAVKeyValues@@@Z 1001d490 f i tilegen_class_factories.obj
 0001:0001c490       ?LoadFromKeyValues@?$CTilegenExpression_Unary@HPBVCExit@@@@UAE_NPAVKeyValues@@@Z 1001d490 f i tilegen_class_factories.obj
 0001:0001c490       ?LoadFromKeyValues@?$CTilegenExpression_Unary@PBVCRoom@@PBVCExit@@@@UAE_NPAVKeyValues@@@Z 1001d490 f i tilegen_class_factories.obj
 0001:0001c4c0       ?LoadFromKeyValues@?$CTilegenExpression_Unary@HPBVCRoom@@@@UAE_NPAVKeyValues@@@Z 1001d4c0 f i tilegen_class_factories.obj
 0001:0001c4f0       ?LoadFromKeyValues@?$CTilegenExpression_Unary@PBVCRoomTemplate@@PBD@@UAE_NPAVKeyValues@@@Z 1001d4f0 f i tilegen_class_factories.obj
 0001:0001c4f0       ?LoadFromKeyValues@?$CTilegenExpression_Unary@PBDPBD@@UAE_NPAVKeyValues@@@Z 1001d4f0 f i tilegen_class_factories.obj
 0001:0001c520       ?LoadFromKeyValues@?$CTilegenExpression_Unary@HPBVCRoomCandidate@@@@UAE_NPAVKeyValues@@@Z 1001d520 f i tilegen_class_factories.obj
 0001:0001c550       ?LoadFromKeyValues@?$CTilegenExpression_Unary@PBDPBVCTilegenState@@@@UAE_NPAVKeyValues@@@Z 1001d550 f i tilegen_class_factories.obj
 0001:0001c550       ?LoadFromKeyValues@?$CTilegenExpression_Unary@PBVCTilegenState@@PBV1@@@UAE_NPAVKeyValues@@@Z 1001d550 f i tilegen_class_factories.obj
 0001:0001c580       ?LoadFromKeyValues@?$CTilegenExpression_Variable@PBVCRoomCandidate@@@@UAE_NPAVKeyValues@@@Z 1001d580 f i tilegen_class_factories.obj
 0001:0001c580       ?LoadFromKeyValues@?$CTilegenExpression_Variable@PBD@@UAE_NPAVKeyValues@@@Z 1001d580 f i tilegen_class_factories.obj
 0001:0001c580       ?LoadFromKeyValues@?$CTilegenExpression_Variable@H@@UAE_NPAVKeyValues@@@Z 1001d580 f i tilegen_class_factories.obj
 0001:0001c580       ?LoadFromKeyValues@?$CTilegenExpression_Variable@PBVCRoomTemplate@@@@UAE_NPAVKeyValues@@@Z 1001d580 f i tilegen_class_factories.obj
 0001:0001c580       ?LoadFromKeyValues@?$CTilegenExpression_Variable@PBVCExit@@@@UAE_NPAVKeyValues@@@Z 1001d580 f i tilegen_class_factories.obj
 0001:0001c580       ?LoadFromKeyValues@?$CTilegenExpression_Variable@PBVCTilegenState@@@@UAE_NPAVKeyValues@@@Z 1001d580 f i tilegen_class_factories.obj
 0001:0001c600       ?LoadFromKeyValues@?$CTilegenExpression_MapReduce@HPBVCExit@@@@UAE_NPAVKeyValues@@@Z 1001d600 f i tilegen_class_factories.obj
 0001:0001c7e0       ?LoadFromKeyValues@?$CTilegenAction_SetVariableT@H@@UAE_NPAVKeyValues@@@Z 1001d7e0 f i tilegen_class_factories.obj
 0001:0001c820       ?LoadFromKeyValues@?$CTilegenAction_SetVariableT@PBD@@UAE_NPAVKeyValues@@@Z 1001d820 f i tilegen_class_factories.obj
 0001:0001c860       ?LoadFromKeyValues@?$CTilegenAction_SetVariableT@_N@@UAE_NPAVKeyValues@@@Z 1001d860 f i tilegen_class_factories.obj
 0001:0001c8a0       ?CreateInstance@?$CTilegenClassFactory@V?$ITilegenExpression@H@@VCTilegenExpression_CountExits@@@@UAEPAV?$ITilegenExpression@H@@XZ 1001d8a0 f i tilegen_class_factories.obj
 0001:0001c8d0       ?FindEntry@CTilegenEnum@@QBEHH@Z 1001d8d0 f   tilegen_enum.obj
 0001:0001c900       ??0CTilegenEnum@@QAE@XZ    1001d900 f   tilegen_enum.obj
 0001:0001c920       ?LoadFromKeyValues@CTilegenEnum@@QAE_NPAVKeyValues@@@Z 1001d920 f   tilegen_enum.obj
 0001:0001cae0       ?MemAlloc_StrDup@@YAPADPBD@Z 1001dae0 f i tilegen_expressions.obj
 0001:0001cb30       ?DirectEvaluate@CTilegenExpression_StringConcatenate@@UAEPBDPAVCFreeVariableMap@@ABQBD1@Z 1001db30 f   tilegen_expressions.obj
 0001:0001cb80       ?DirectEvaluate@CTilegenExpression_RoomName@@UAEPBDPAVCFreeVariableMap@@ABQBVCRoomTemplate@@@Z 1001db80 f   tilegen_expressions.obj
 0001:0001cba0       ?DirectEvaluate@CTilegenExpression_RoomArea@@UAEHPAVCFreeVariableMap@@ABQBVCRoomTemplate@@@Z 1001dba0 f   tilegen_expressions.obj
 0001:0001cbd0       ?DirectEvaluate@CTilegenExpression_ExtractRoomName@@UAEPBDPAVCFreeVariableMap@@ABQBD@Z 1001dbd0 f   tilegen_expressions.obj
 0001:0001cc50       ?DirectEvaluate@CTilegenExpression_ExtractThemeName@@UAEPBDPAVCFreeVariableMap@@ABQBD@Z 1001dc50 f   tilegen_expressions.obj
 0001:0001ccd0       ?DirectEvaluate@CTilegenExpression_SourceRoomFromExit@@UAEPBVCRoom@@PAVCFreeVariableMap@@ABQBVCExit@@@Z 1001dcd0 f   tilegen_expressions.obj
 0001:0001ccf0       ?DirectEvaluate@CTilegenExpression_SourceRoomTemplateFromExit@@UAEPBVCRoomTemplate@@PAVCFreeVariableMap@@ABQBVCExit@@@Z 1001dcf0 f   tilegen_expressions.obj
 0001:0001cd10       ?DirectEvaluate@CTilegenExpression_ChokepointGrowSource@@UAE_NPAVCFreeVariableMap@@ABQBVCExit@@@Z 1001dd10 f   tilegen_expressions.obj
 0001:0001cd30       ?DirectEvaluate@CTilegenExpression_RoomChildCount@@UAEHPAVCFreeVariableMap@@ABQBVCRoom@@@Z 1001dd30 f   tilegen_expressions.obj
 0001:0001cd50       ?DirectEvaluate@CTilegenExpression_RoomTemplateFromName@@UAEPBVCRoomTemplate@@PAVCFreeVariableMap@@ABQBD@Z 1001dd50 f   tilegen_expressions.obj
 0001:0001ce10       ?DirectEvaluate@CTilegenExpression_XPosition@@UAEHPAVCFreeVariableMap@@ABQBVCRoomCandidate@@@Z 1001de10 f   tilegen_expressions.obj
 0001:0001ce30       ?DirectEvaluate@CTilegenExpression_YPosition@@UAEHPAVCFreeVariableMap@@ABQBVCRoomCandidate@@@Z 1001de30 f   tilegen_expressions.obj
 0001:0001ce30       ?DirectEvaluate@CTilegenExpression_ExitDirection@@UAEHPAVCFreeVariableMap@@ABQBVCExit@@@Z 1001de30 f   tilegen_expressions.obj
 0001:0001ce50       ?Evaluate@CTilegenExpression_HasTag@@UAE_NPAVCFreeVariableMap@@@Z 1001de50 f   tilegen_expressions.obj
 0001:0001ce90       ?Evaluate@CTilegenExpression_CanPlaceRandomly@@UAE_NPAVCFreeVariableMap@@@Z 1001de90 f   tilegen_expressions.obj
 0001:0001cec0       ?DirectEvaluate@CTilegenExpression_ExitTag@@UAEPBDPAVCFreeVariableMap@@ABQBVCExit@@@Z 1001dec0 f   tilegen_expressions.obj
 0001:0001cee0       ?DirectEvaluate@CTilegenExpression_ParentState@@UAEPBVCTilegenState@@PAVCFreeVariableMap@@ABQBV2@@Z 1001dee0 f   tilegen_expressions.obj
 0001:0001cef0       ?DirectEvaluate@CTilegenExpression_StateName@@UAEPBDPAVCFreeVariableMap@@ABQBVCTilegenState@@@Z 1001def0 f   tilegen_expressions.obj
 0001:0001cf00       ??0CTilegenExpression_HasTag@@QAE@PAV?$ITilegenExpression@PBVCRoomTemplate@@@@PAV?$ITilegenExpression@PBD@@@Z 1001df00 f   tilegen_expressions.obj
 0001:0001cf20       ??0CTilegenExpression_CanPlaceRandomly@@QAE@PAV?$ITilegenExpression@PBVCRoomTemplate@@@@@Z 1001df20 f   tilegen_expressions.obj
 0001:0001cf40       ?Parent@?$CUtlRBTree@UNode_t@?$CUtlMap@PBDPAXH@@HVCKeyLess@2@V?$CUtlMemory@U?$UtlRBTreeNode_t@UNode_t@?$CUtlMap@PBDPAXH@@H@@H@@@@QBEHH@Z 1001df40 f i tilegen_expressions.obj
 0001:0001cfa0       ??_E?$ITilegenExpression@_N@@UAEPAXI@Z 1001dfa0 f i tilegen_class_factories.obj
 0001:0001cfa0       ??_ECTilegenExpression_HasTag@@UAEPAXI@Z 1001dfa0 f i tilegen_expressions.obj
 0001:0001cfa0       ??_ECTilegenExpression_CanPlaceRandomly@@UAEPAXI@Z 1001dfa0 f i tilegen_expressions.obj
 0001:0001cfa0       ??_G?$ITilegenExpression@_N@@UAEPAXI@Z 1001dfa0 f i tilegen_class_factories.obj
 0001:0001cfa0       ??_ECTilegenExpression_LiteralBool@@UAEPAXI@Z 1001dfa0 f i tilegen_class_factories.obj
 0001:0001cfa0       ??_GCTilegenExpression_CanPlaceRandomly@@UAEPAXI@Z 1001dfa0 f i tilegen_expressions.obj
 0001:0001cfa0       ??_GCTilegenExpression_HasTag@@UAEPAXI@Z 1001dfa0 f i tilegen_expressions.obj
 0001:0001cfa0       ??_GCTilegenExpression_LiteralBool@@UAEPAXI@Z 1001dfa0 f i tilegen_class_factories.obj
 0001:0001cfd0       ?ReadLiteralIntValue@@YAPAV?$ITilegenExpression@H@@PAVKeyValues@@@Z 1001dfd0 f   tilegen_expressions.obj
 0001:0001d010       ?ReadLiteralBoolValue@@YAPAV?$ITilegenExpression@_N@@PAVKeyValues@@@Z 1001e010 f   tilegen_expressions.obj
 0001:0001d050       ?ReadLiteralFloatValue@@YAPAV?$ITilegenExpression@M@@PAVKeyValues@@@Z 1001e050 f   tilegen_expressions.obj
 0001:0001d090       ?ReadLiteralStringValue@@YAPAV?$ITilegenExpression@PBD@@PAVKeyValues@@@Z 1001e090 f   tilegen_expressions.obj
 0001:0001d0f0       ?RightChild@?$CUtlRBTree@UNode_t@?$CUtlMap@PBDPAXH@@HVCKeyLess@2@V?$CUtlMemory@U?$UtlRBTreeNode_t@UNode_t@?$CUtlMap@PBDPAXH@@H@@H@@@@QBEHH@Z 1001e0f0 f i tilegen_expressions.obj
 0001:0001d150       ?FindInsertionPosition@?$CUtlRBTree@UNode_t@?$CUtlMap@PBDPAXH@@HVCKeyLess@2@V?$CUtlMemory@U?$UtlRBTreeNode_t@UNode_t@?$CUtlMap@PBDPAXH@@H@@H@@@@IAEXABUNode_t@?$CUtlMap@PBDPAXH@@AAHAA_N@Z 1001e150 f i tilegen_expressions.obj
 0001:0001d240       ?NewNode@?$CUtlRBTree@UNode_t@?$CUtlMap@PBDPAXH@@HVCKeyLess@2@V?$CUtlMemory@U?$UtlRBTreeNode_t@UNode_t@?$CUtlMap@PBDPAXH@@H@@H@@@@QAEHXZ 1001e240 f i tilegen_expressions.obj
 0001:0001d300       ?IsLeftChild@?$CUtlRBTree@UNode_t@?$CUtlMap@PBDPAXH@@HVCKeyLess@2@V?$CUtlMemory@U?$UtlRBTreeNode_t@UNode_t@?$CUtlMap@PBDPAXH@@H@@H@@@@QBE_NH@Z 1001e300 f i tilegen_expressions.obj
 0001:0001d3b0       ?IsRightChild@?$CUtlRBTree@UNode_t@?$CUtlMap@PBDPAXH@@HVCKeyLess@2@V?$CUtlMemory@U?$UtlRBTreeNode_t@UNode_t@?$CUtlMap@PBDPAXH@@H@@H@@@@QBE_NH@Z 1001e3b0 f i tilegen_expressions.obj
 0001:0001d460       ?RotateLeft@?$CUtlRBTree@UNode_t@?$CUtlMap@PBDPAXH@@HVCKeyLess@2@V?$CUtlMemory@U?$UtlRBTreeNode_t@UNode_t@?$CUtlMap@PBDPAXH@@H@@H@@@@IAEXH@Z 1001e460 f i tilegen_expressions.obj
 0001:0001d610       ?RotateRight@?$CUtlRBTree@UNode_t@?$CUtlMap@PBDPAXH@@HVCKeyLess@2@V?$CUtlMemory@U?$UtlRBTreeNode_t@UNode_t@?$CUtlMap@PBDPAXH@@H@@H@@@@IAEXH@Z 1001e610 f i tilegen_expressions.obj
 0001:0001d780       ?Find@?$CUtlRBTree@UNode_t@?$CUtlMap@PBDPAXH@@HVCKeyLess@2@V?$CUtlMemory@U?$UtlRBTreeNode_t@UNode_t@?$CUtlMap@PBDPAXH@@H@@H@@@@QBEHABUNode_t@?$CUtlMap@PBDPAXH@@@Z 1001e780 f i tilegen_expressions.obj
 0001:0001d870       ?InsertRebalance@?$CUtlRBTree@UNode_t@?$CUtlMap@PBDPAXH@@HVCKeyLess@2@V?$CUtlMemory@U?$UtlRBTreeNode_t@UNode_t@?$CUtlMap@PBDPAXH@@H@@H@@@@IAEXH@Z 1001e870 f i tilegen_expressions.obj
 0001:0001dcd0       ?LinkToParent@?$CUtlRBTree@UNode_t@?$CUtlMap@PBDPAXH@@HVCKeyLess@2@V?$CUtlMemory@U?$UtlRBTreeNode_t@UNode_t@?$CUtlMap@PBDPAXH@@H@@H@@@@IAEXHH_N@Z 1001ecd0 f i tilegen_expressions.obj
 0001:0001dd40       ?GetFreeVariableOrNULL@CFreeVariableMap@@QBEPAXPBD@Z 1001ed40 f   tilegen_expressions.obj
 0001:0001dd80       ?GetFreeVariableDisallowNULL@CFreeVariableMap@@QBEPAXPBD@Z 1001ed80 f   tilegen_expressions.obj
 0001:0001de80       ?Evaluate@CTilegenExpression_LastPlacedRoom@@UAEPBVCRoom@@PAVCFreeVariableMap@@@Z 1001ee80 f   tilegen_expressions.obj
 0001:0001deb0       ?LoadFromKeyValues@CTilegenExpression_HasTag@@UAE_NPAVKeyValues@@@Z 1001eeb0 f   tilegen_expressions.obj
 0001:0001df10       ?LoadFromKeyValues@CTilegenExpression_CanPlaceRandomly@@UAE_NPAVKeyValues@@@Z 1001ef10 f   tilegen_expressions.obj
 0001:0001df40       ?DirectEvaluate@CTilegenExpression_NumTimesPlaced@@UAEHPAVCFreeVariableMap@@ABQBVCRoomTemplate@@@Z 1001ef40 f   tilegen_expressions.obj
 0001:0001df80       ?Insert@?$CUtlDict@PAXH@@QAEHPBDABQAX@Z 1001ef80 f i tilegen_expressions.obj
 0001:0001e030       ?SetOrCreateFreeVariable@CFreeVariableMap@@QAEXPBDPAX@Z 1001f030 f   tilegen_expressions.obj
 0001:0001e080       ?StringLessThan@@YA_NABQBD0@Z 1001f080 f i tilegen_layout_system.obj
 0001:0001e0d0       ??_GCTilegenListener_NumTilesPlaced@@UAEPAXI@Z 1001f0d0 f i tilegen_layout_system.obj
 0001:0001e0d0       ??_EITilegenListener@@UAEPAXI@Z 1001f0d0 f i tilegen_layout_system.obj
 0001:0001e0d0       ??_GITilegenListener@@UAEPAXI@Z 1001f0d0 f i tilegen_layout_system.obj
 0001:0001e0d0       ??_ECTilegenListener_NumTilesPlaced@@UAEPAXI@Z 1001f0d0 f i tilegen_layout_system.obj
 0001:0001e100       ?GetParentStateList@CTilegenStateList@@QAEPAV1@XZ 1001f100 f   tilegen_layout_system.obj
 0001:0001e120       ?OnError@CLayoutSystem@@QAEXXZ 1001f120 f   tilegen_layout_system.obj
 0001:0001e160       ?OnFinished@CLayoutSystem@@QAEXXZ 1001f160 f   tilegen_layout_system.obj
 0001:0001e1b0       ?LessFunc@?$CDefOps@PAVITilegenAction@@@@SA_NABQAVITilegenAction@@0@Z 1001f1b0 f i tilegen_layout_system.obj
 0001:0001e1d0       ?Grow@?$CUtlMemory@U?$UtlRBTreeNode_t@UNode_t@?$CUtlMap@PAVITilegenAction@@UActionData_t@CLayoutSystem@@G@@G@@G@@QAEXH@Z 1001f1d0 f i tilegen_layout_system.obj
 0001:0001e280       ?Parent@?$CUtlRBTree@UNode_t@?$CUtlMap@PAVITilegenAction@@UActionData_t@CLayoutSystem@@G@@GVCKeyLess@2@V?$CUtlMemory@U?$UtlRBTreeNode_t@UNode_t@?$CUtlMap@PAVITilegenAction@@UActionData_t@CLayoutSystem@@G@@G@@G@@@@QBEGG@Z 1001f280 f i tilegen_layout_system.obj
 0001:0001e2e0       ?FindState@CTilegenStateList@@QAEPAVCTilegenState@@PBD@Z 1001f2e0 f   tilegen_layout_system.obj
 0001:0001e340       ?GetNextState@CTilegenStateList@@QAEPAVCTilegenState@@PAV2@@Z 1001f340 f   tilegen_layout_system.obj
 0001:0001e420       ?OnActionExecuted@CLayoutSystem@@AAEXPBVITilegenAction@@@Z 1001f420 f   tilegen_layout_system.obj
 0001:0001e470       ?OnStateChanged@CLayoutSystem@@AAEXPBVCTilegenState@@@Z 1001f470 f   tilegen_layout_system.obj
 0001:0001e4e0       ?LeftChild@?$CUtlRBTree@UNode_t@?$CUtlMap@PAVITilegenAction@@UActionData_t@CLayoutSystem@@G@@GVCKeyLess@2@V?$CUtlMemory@U?$UtlRBTreeNode_t@UNode_t@?$CUtlMap@PAVITilegenAction@@UActionData_t@CLayoutSystem@@G@@G@@G@@@@QBEGG@Z 1001f4e0 f i tilegen_layout_system.obj
 0001:0001e540       ?RightChild@?$CUtlRBTree@UNode_t@?$CUtlMap@PAVITilegenAction@@UActionData_t@CLayoutSystem@@G@@GVCKeyLess@2@V?$CUtlMemory@U?$UtlRBTreeNode_t@UNode_t@?$CUtlMap@PAVITilegenAction@@UActionData_t@CLayoutSystem@@G@@G@@G@@@@QBEGG@Z 1001f540 f i tilegen_layout_system.obj
 0001:0001e5a0       ?FindInsertionPosition@?$CUtlRBTree@UNode_t@?$CUtlMap@PAVITilegenAction@@UActionData_t@CLayoutSystem@@G@@GVCKeyLess@2@V?$CUtlMemory@U?$UtlRBTreeNode_t@UNode_t@?$CUtlMap@PAVITilegenAction@@UActionData_t@CLayoutSystem@@G@@G@@G@@@@IAEXABUNode_t@?$CUtlMap@PAVITilegenAction@@UActionData_t@CLayoutSystem@@G@@AAGAA_N@Z 1001f5a0 f i tilegen_layout_system.obj
 0001:0001e690       ?NewNode@?$CUtlRBTree@UNode_t@?$CUtlMap@PAVITilegenAction@@UActionData_t@CLayoutSystem@@G@@GVCKeyLess@2@V?$CUtlMemory@U?$UtlRBTreeNode_t@UNode_t@?$CUtlMap@PAVITilegenAction@@UActionData_t@CLayoutSystem@@G@@G@@G@@@@QAEGXZ 1001f690 f i tilegen_layout_system.obj
 0001:0001e790       ?RotateLeft@?$CUtlRBTree@UNode_t@?$CUtlMap@PAVITilegenAction@@UActionData_t@CLayoutSystem@@G@@GVCKeyLess@2@V?$CUtlMemory@U?$UtlRBTreeNode_t@UNode_t@?$CUtlMap@PAVITilegenAction@@UActionData_t@CLayoutSystem@@G@@G@@G@@@@IAEXG@Z 1001f790 f i tilegen_layout_system.obj
 0001:0001e880       ?RotateRight@?$CUtlRBTree@UNode_t@?$CUtlMap@PAVITilegenAction@@UActionData_t@CLayoutSystem@@G@@GVCKeyLess@2@V?$CUtlMemory@U?$UtlRBTreeNode_t@UNode_t@?$CUtlMap@PAVITilegenAction@@UActionData_t@CLayoutSystem@@G@@G@@G@@@@IAEXG@Z 1001f880 f i tilegen_layout_system.obj
 0001:0001e970       ?OnBeginGeneration@CTilegenStateList@@QAEXXZ 1001f970 f   tilegen_layout_system.obj
 0001:0001e9e0       ?TransitionToState@CLayoutSystem@@QAEXPAVCTilegenState@@@Z 1001f9e0 f   tilegen_layout_system.obj
 0001:0001ea40       ?PurgeAndDeleteElements@?$CUtlVector@PAV?$ITilegenExpression@H@@V?$CUtlMemory@PAV?$ITilegenExpression@H@@H@@@@QAEXXZ 1001fa40 f i tilegen_class_factories.obj
 0001:0001ea40       ?PurgeAndDeleteElements@?$CUtlVector@PAV?$ITilegenExpression@_N@@V?$CUtlMemory@PAV?$ITilegenExpression@_N@@H@@@@QAEXXZ 1001fa40 f i tilegen_class_factories.obj
 0001:0001ea40       ?PurgeAndDeleteElements@?$CUtlVector@PAV?$ITilegenExpression@M@@V?$CUtlMemory@PAV?$ITilegenExpression@M@@H@@@@QAEXXZ 1001fa40 f i tilegen_class_factories.obj
 0001:0001ea40       ?PurgeAndDeleteElements@?$CUtlVector@PAVITilegenListener@@V?$CUtlMemory@PAVITilegenListener@@H@@@@QAEXXZ 1001fa40 f i tilegen_layout_system.obj
 0001:0001eab0       ?Find@?$CUtlRBTree@UNode_t@?$CUtlMap@PAVITilegenAction@@UActionData_t@CLayoutSystem@@G@@GVCKeyLess@2@V?$CUtlMemory@U?$UtlRBTreeNode_t@UNode_t@?$CUtlMap@PAVITilegenAction@@UActionData_t@CLayoutSystem@@G@@G@@G@@@@QBEGABUNode_t@?$CUtlMap@PAVITilegenAction@@UActionData_t@CLayoutSystem@@G@@@Z 1001fab0 f i tilegen_layout_system.obj
 0001:0001ebb0       ?RemoveAll@?$CUtlRBTree@UNode_t@?$CUtlMap@PAVITilegenAction@@UActionData_t@CLayoutSystem@@G@@GVCKeyLess@2@V?$CUtlMemory@U?$UtlRBTreeNode_t@UNode_t@?$CUtlMap@PAVITilegenAction@@UActionData_t@CLayoutSystem@@G@@G@@G@@@@QAEXXZ 1001fbb0 f i tilegen_layout_system.obj
 0001:0001ec60       ?RemoveAll@?$CUtlRBTree@UNode_t@?$CUtlMap@PBDPAXH@@HVCKeyLess@2@V?$CUtlMemory@U?$UtlRBTreeNode_t@UNode_t@?$CUtlMap@PBDPAXH@@H@@H@@@@QAEXXZ 1001fc60 f i tilegen_layout_system.obj
 0001:0001ed20       ?FirstInorder@?$CUtlRBTree@UNode_t@?$CUtlMap@PBDPAXH@@HVCKeyLess@2@V?$CUtlMemory@U?$UtlRBTreeNode_t@UNode_t@?$CUtlMap@PBDPAXH@@H@@H@@@@QBEHXZ 1001fd20 f i tilegen_layout_system.obj
 0001:0001edc0       ?NextInorder@?$CUtlRBTree@UNode_t@?$CUtlMap@PBDPAXH@@HVCKeyLess@2@V?$CUtlMemory@U?$UtlRBTreeNode_t@UNode_t@?$CUtlMap@PBDPAXH@@H@@H@@@@QBEHH@Z 1001fdc0 f i tilegen_layout_system.obj
 0001:0001ef30       ?InsertRebalance@?$CUtlRBTree@UNode_t@?$CUtlMap@PAVITilegenAction@@UActionData_t@CLayoutSystem@@G@@GVCKeyLess@2@V?$CUtlMemory@U?$UtlRBTreeNode_t@UNode_t@?$CUtlMap@PAVITilegenAction@@UActionData_t@CLayoutSystem@@G@@G@@G@@@@IAEXG@Z 1001ff30 f i tilegen_layout_system.obj
 0001:0001f520       ??1CTilegenState@@QAE@XZ   10020520 f   tilegen_layout_system.obj
 0001:0001f600       ?TransitionToState@CLayoutSystem@@QAEXPBD@Z 10020600 f   tilegen_layout_system.obj
 0001:0001f690       ?PurgeAndDeleteElements@?$CUtlVector@PAVCTilegenState@@V?$CUtlMemory@PAVCTilegenState@@H@@@@QAEXXZ 10020690 f i tilegen_layout_system.obj
 0001:0001f700       ??1?$CUtlRBTree@UNode_t@?$CUtlMap@PAVITilegenAction@@UActionData_t@CLayoutSystem@@G@@GVCKeyLess@2@V?$CUtlMemory@U?$UtlRBTreeNode_t@UNode_t@?$CUtlMap@PAVITilegenAction@@UActionData_t@CLayoutSystem@@G@@G@@G@@@@QAE@XZ 10020700 f i tilegen_layout_system.obj
 0001:0001f770       ??1?$CUtlRBTree@UNode_t@?$CUtlMap@PBDPAXH@@HVCKeyLess@2@V?$CUtlMemory@U?$UtlRBTreeNode_t@UNode_t@?$CUtlMap@PBDPAXH@@H@@H@@@@QAE@XZ 10020770 f i tilegen_layout_system.obj
 0001:0001f7d0       ?LinkToParent@?$CUtlRBTree@UNode_t@?$CUtlMap@PAVITilegenAction@@UActionData_t@CLayoutSystem@@G@@GVCKeyLess@2@V?$CUtlMemory@U?$UtlRBTreeNode_t@UNode_t@?$CUtlMap@PAVITilegenAction@@UActionData_t@CLayoutSystem@@G@@G@@G@@@@IAEXGG_N@Z 100207d0 f i tilegen_layout_system.obj
 0001:0001f850       ?AddState@CTilegenStateList@@QAEXPAVCTilegenState@@@Z 10020850 f i tilegen_layout_system.obj
 0001:0001f8b0       ?AddListeners@@YAXPAVCLayoutSystem@@@Z 100208b0 f   tilegen_layout_system.obj
 0001:0001f960       ?AddOpenExit@CLayoutSystem@@AAEXPAVCRoom@@HHW4ExitDirection_t@@PBD_N@Z 10020960 f   tilegen_layout_system.obj
 0001:0001fa50       ?RemoveAll@?$CUtlDict@PAXH@@QAEXXZ 10020a50 f i tilegen_layout_system.obj
 0001:0001faa0       ?LoadFromKeyValues@CTilegenState@@QAE_NPAVKeyValues@@@Z 10020aa0 f   tilegen_layout_system.obj
 0001:0001fc20       ?LoadFromKeyValues@CLayoutSystem@@QAE_NPAVKeyValues@@@Z 10020c20 f   tilegen_layout_system.obj
 0001:0001fe50       ?AddOpenExitsFromRoom@CLayoutSystem@@AAEXPAVCRoom@@@Z 10020e50 f   tilegen_layout_system.obj
 0001:0001fef0       ??1CLayoutSystem@@QAE@XZ   10020ef0 f   tilegen_layout_system.obj
 0001:0001ff80       ?TryPlaceRoom@CLayoutSystem@@QAE_NPBVCRoomCandidate@@@Z 10020f80 f   tilegen_layout_system.obj
 0001:00020100       ?Insert@?$CUtlMap@PAVITilegenAction@@UActionData_t@CLayoutSystem@@G@@QAEGABQAVITilegenAction@@ABUActionData_t@CLayoutSystem@@@Z 10021100 f i tilegen_layout_system.obj
 0001:00020170       ??0CLayoutSystem@@QAE@XZ   10021170 f   tilegen_layout_system.obj
 0001:000202c0       ?ExecuteAction@CLayoutSystem@@QAEXPAVITilegenAction@@PAV?$ITilegenExpression@_N@@@Z 100212c0 f   tilegen_layout_system.obj
 0001:000203d0       ?BeginGeneration@CLayoutSystem@@QAEXPAVCMapLayout@@@Z 100213d0 f   tilegen_layout_system.obj
 0001:000205f0       ?ExecuteIteration@CTilegenState@@QAEXPAVCLayoutSystem@@@Z 100215f0 f   tilegen_layout_system.obj
 0001:00020750       ?ExecuteIteration@CLayoutSystem@@QAEXXZ 10021750 f   tilegen_layout_system.obj
 0001:00020890       ?OnBeginGeneration@CTilegenListener_NumTilesPlaced@@UAEXPBVCLayoutSystem@@PAVCFreeVariableMap@@@Z 10021890 f   tilegen_listeners.obj
 0001:000208d0       ?OnStateChanged@CTilegenListener_NumTilesPlaced@@UAEXPBVCLayoutSystem@@PBVCTilegenState@@PAVCFreeVariableMap@@@Z 100218d0 f   tilegen_listeners.obj
 0001:000208f0       ?OnRoomPlaced@CTilegenListener_NumTilesPlaced@@UAEXPBVCLayoutSystem@@PAVCFreeVariableMap@@@Z 100218f0 f   tilegen_listeners.obj
 0001:00020950       ?EvaluateMetaVariables@CTilegenMissionPreprocessor@@AAEXPAVKeyValues@@@Z 10021950 f   tilegen_mission_preprocessor.obj
 0001:000209d0       ?FindRule@CTilegenMissionPreprocessor@@QBEPBVCTilegenRule@@PBD@Z 100219d0 f   tilegen_mission_preprocessor.obj
 0001:00020a20       ?FindEnum@CTilegenMissionPreprocessor@@QBEPBVCTilegenEnum@@PBD@Z 10021a20 f   tilegen_mission_preprocessor.obj
 0001:00020a70       ?SubstituteRules_Recursive@CTilegenMissionPreprocessor@@AAE_NPAVKeyValues@@0@Z 10021a70 f   tilegen_mission_preprocessor.obj
 0001:00020c00       ?SubstituteRules@CTilegenMissionPreprocessor@@QAE_NPAVKeyValues@@@Z 10021c00 f   tilegen_mission_preprocessor.obj
 0001:00020df0       ?PurgeAndDeleteElements@?$CUtlVector@PAVCTilegenRule@@V?$CUtlMemory@PAVCTilegenRule@@H@@@@QAEXXZ 10021df0 f i tilegen_mission_preprocessor.obj
 0001:00020e60       ??1CTilegenMissionPreprocessor@@QAE@XZ 10021e60 f   tilegen_mission_preprocessor.obj
 0001:00020e80       ?ParseAndStripRules@CTilegenMissionPreprocessor@@QAE_NPAVKeyValues@@@Z 10021e80 f   tilegen_mission_preprocessor.obj
 0001:00021080       ?Reset@CTilegenRange_ClosedExits@@UAEXXZ 10022080 f   tilegen_ranges.obj
 0001:00021080       ?Reset@CTilegenRange_NewOpenExits@@UAEXXZ 10022080 f   tilegen_ranges.obj
 0001:00021090       ??_G?$ITilegenRange@PBVCExit@@@@UAEPAXI@Z 10022090 f i tilegen_ranges.obj
 0001:00021090       ??_E?$ITilegenRange@PBVCExit@@@@UAEPAXI@Z 10022090 f i tilegen_ranges.obj
 0001:000210c0       ?MoveNext@CTilegenRange_NewOpenExits@@UAE_NXZ 100220c0 f   tilegen_ranges.obj
 0001:000210c0       ?MoveNext@CTilegenRange_ClosedExits@@UAE_NXZ 100220c0 f   tilegen_ranges.obj
 0001:000210d0       ?GetExitPosition@@YA_NPBVCRoomTemplate@@HHHPAH1@Z 100220d0 f   tilegen_ranges.obj
 0001:00021150       ?GetCurrent@CTilegenRange_ClosedExits@@UAEPBVCExit@@XZ 10022150 f   tilegen_ranges.obj
 0001:00021150       ?GetCurrent@CTilegenRange_NewOpenExits@@UAEPBVCExit@@XZ 10022150 f   tilegen_ranges.obj
 0001:00021160       ??0CTilegenRange_NewOpenExits@@QAE@PAV?$ITilegenExpression@PBVCRoomCandidate@@@@@Z 10022160 f   tilegen_ranges.obj
 0001:00021190       ??0CTilegenRange_ClosedExits@@QAE@PAV?$ITilegenExpression@PBVCRoomCandidate@@@@@Z 10022190 f   tilegen_ranges.obj
 0001:000211c0       ?BuildOpenExitList@@YAXABVCRoomCandidate@@PBVCMapLayout@@PAV?$CUtlVector@VCExit@@V?$CUtlMemory@VCExit@@H@@@@@Z 100221c0 f   tilegen_ranges.obj
 0001:00021320       ??_ECTilegenRange_NewOpenExits@@UAEPAXI@Z 10022320 f i tilegen_ranges.obj
 0001:00021320       ??_GCTilegenRange_NewOpenExits@@UAEPAXI@Z 10022320 f i tilegen_ranges.obj
 0001:00021360       ?Initialize@CTilegenRange_NewOpenExits@@UAEXPAVCFreeVariableMap@@@Z 10022360 f   tilegen_ranges.obj
 0001:000213c0       ??_ECTilegenRange_ClosedExits@@UAEPAXI@Z 100223c0 f i tilegen_ranges.obj
 0001:000213c0       ??_GCTilegenRange_ClosedExits@@UAEPAXI@Z 100223c0 f i tilegen_ranges.obj
 0001:00021400       ?Initialize@CTilegenRange_ClosedExits@@UAEXPAVCFreeVariableMap@@@Z 10022400 f   tilegen_ranges.obj
 0001:000215d0       ?LoadFromKeyValues@CTilegenRange_NewOpenExits@@UAE_NPAVKeyValues@@@Z 100225d0 f   tilegen_ranges.obj
 0001:00021600       ?LoadFromKeyValues@CTilegenRange_ClosedExits@@UAE_NPAVKeyValues@@@Z 10022600 f   tilegen_ranges.obj
 0001:00021630       ?ParseSourceTag@@YA_NPBDPA_N1@Z 10022630 f   tilegen_rule.obj
 0001:000216f0       ?ParseArrayTag@@YA_NPBDPA_N1@Z 100226f0 f   tilegen_rule.obj
 0001:00021790       ?Grow@?$CUtlMemory@USubstitutionVariable_t@CTilegenRule@@H@@QAEXH@Z 10022790 f i tilegen_rule.obj
 0001:00021830       ?RecursiveFixup@CTilegenRule@@ABEXPAVKeyValues@@0PAVCTilegenMissionPreprocessor@@@Z 10022830 f   tilegen_rule.obj
 0001:00021960       ?InstantiateRule@CTilegenRule@@QBEPAVKeyValues@@PAV2@PAVCTilegenMissionPreprocessor@@@Z 10022960 f   tilegen_rule.obj
 0001:00021a00       ?InsertBefore@?$CUtlVector@USubstitutionVariable_t@CTilegenRule@@V?$CUtlMemory@USubstitutionVariable_t@CTilegenRule@@H@@@@QAEHHABUSubstitutionVariable_t@CTilegenRule@@@Z 10022a00 f i tilegen_rule.obj
 0001:00021aa0       ??0CTilegenRule@@QAE@XZ    10022aa0 f   tilegen_rule.obj
 0001:00021ae0       ??1CTilegenRule@@QAE@XZ    10022ae0 f   tilegen_rule.obj
 0001:00021b00       ?ParseTypeTag@@YA_NPBDPAV?$CUtlVector@URuleType_t@@V?$CUtlMemory@URuleType_t@@H@@@@@Z 10022b00 f   tilegen_rule.obj
 0001:00021c00       ?LoadFromKeyValues@CTilegenRule@@QAE_NPAVKeyValues@@@Z 10022c00 f   tilegen_rule.obj
 0001:00021f70       ?GetPanelClassName@CLayoutSystemKVEditor@@SAPBDXZ 10022f70 f i layout_system_kv_editor.obj
 0001:00021f80       ?PerformLayout@CLayoutSystemKVEditor@@UAEXXZ 10022f80 f   layout_system_kv_editor.obj
 0001:00021fd0       ?RecreateMissionPanel@CLayoutSystemKVEditor@@QAEXXZ 10022fd0 f   layout_system_kv_editor.obj
 0001:00022070       ?ShowOptionalValues@CLayoutSystemKVEditor@@QAEX_N@Z 10023070 f   layout_system_kv_editor.obj
 0001:000220b0       ?ShowAddButtons@CLayoutSystemKVEditor@@QAEX_N@Z 100230b0 f   layout_system_kv_editor.obj
 0001:000220f0       ?GetMessageMap@CLayoutSystemKVEditor@@UAEPAUPanelMessageMap@vgui@@XZ 100230f0 f i layout_system_kv_editor.obj
 0001:00022120       ?GetAnimMap@CLayoutSystemKVEditor@@UAEPAUPanelAnimationMap@@XZ 10023120 f i layout_system_kv_editor.obj
 0001:00022130       ?GetKBMap@CLayoutSystemKVEditor@@UAEPAUPanelKeyBindingMap@vgui@@XZ 10023130 f i layout_system_kv_editor.obj
 0001:00022160       ??0CLayoutSystemKVEditor@@QAE@PAVPanel@vgui@@PBD@Z 10023160 f   layout_system_kv_editor.obj
 0001:00022270       ??_GCLayoutSystemKVEditor@@UAEPAXI@Z 10023270 f i layout_system_kv_editor.obj
 0001:00022270       ??_ECLayoutSystemKVEditor@@UAEPAXI@Z 10023270 f i layout_system_kv_editor.obj
 0001:000222a0       ?SetMissionData@CLayoutSystemKVEditor@@QAEXPAVKeyValues@@@Z 100232a0 f   layout_system_kv_editor.obj
 0001:000222c0       ?GetPanelClassName@CMissionPanel@@SAPBDXZ 100232c0 f i mission_panel.obj
 0001:000222d0       ?CreatePanelContents@CMissionPanel@@MAEXXZ 100232d0 f   mission_panel.obj
 0001:000223d0       ?UpdateState@CMissionPanel@@UAEXXZ 100233d0 f   mission_panel.obj
 0001:00022420       ?PerformLayout@CMissionPanel@@UAEXXZ 10023420 f   mission_panel.obj
 0001:00022480       ??0CMissionPanel@@QAE@PAVPanel@vgui@@PBD@Z 10023480 f   mission_panel.obj
 0001:00022560       ?GetMessageMap@CMissionPanel@@UAEPAUPanelMessageMap@vgui@@XZ 10023560 f i mission_panel.obj
 0001:00022590       ?GetAnimMap@CMissionPanel@@UAEPAUPanelAnimationMap@@XZ 10023590 f i mission_panel.obj
 0001:000225a0       ?GetKBMap@CMissionPanel@@UAEPAUPanelKeyBindingMap@vgui@@XZ 100235a0 f i mission_panel.obj
 0001:000225d0       ?GetPanelClassName@CNodePanel@@SAPBDXZ 100235d0 f i node_panel.obj
 0001:000225e0       ?GetPanelClassName@CNewElementPanel@@SAPBDXZ 100235e0 f i node_panel.obj
 0001:000225f0       ?ApplySchemeSettings@CNodePanel@@UAEXPAVIScheme@vgui@@@Z 100235f0 f   node_panel.obj
 0001:00022630       ?OnTextChanged@CNodePanel@@UAEXPAVPanel@vgui@@@Z 10023630 f   node_panel.obj
 0001:00022680       ?SetNodeName@CNodePanel@@MAEXPBD@Z 10023680 f   node_panel.obj
 0001:000226a0       ??_9CTilegenKVEditorPage@@$BDLE@AE 100236a0 f i tilegen_pages.obj
 0001:000226a0       ??_9TextEntry@vgui@@$BDLE@AE 100236a0 f i node_panel.obj
 0001:000226b0       ??_9TextEntry@vgui@@$BDKM@AE 100236b0 f i node_panel.obj
 0001:000226c0       ?AddHeadingElement@CNodePanel@@IAEXPAVPanel@vgui@@MH@Z 100236c0 f   node_panel.obj
 0001:00022730       ?AddHeadingSpacer@CNodePanel@@IAEXXZ 10023730 f   node_panel.obj
 0001:000227a0       ?AddChild@CNodePanel@@IAEXPAVPanel@vgui@@H@Z 100237a0 f   node_panel.obj
 0001:00022810       ??0CNewElementPanel@@QAE@PAVPanel@vgui@@PBDH@Z 10023810 f   node_panel.obj
 0001:00022900       ?GetMessageMap@CNewElementPanel@@UAEPAUPanelMessageMap@vgui@@XZ 10023900 f i node_panel.obj
 0001:00022930       ?GetAnimMap@CNewElementPanel@@UAEPAUPanelAnimationMap@@XZ 10023930 f i node_panel.obj
 0001:00022940       ?GetKBMap@CNewElementPanel@@UAEPAUPanelKeyBindingMap@vgui@@XZ 10023940 f i node_panel.obj
 0001:00022970       ?AddButton@CNewElementPanel@@QAEXPBD0@Z 10023970 f   node_panel.obj
 0001:00022a70       ?UpdateState@CNodePanel@@UAEXXZ 10023a70 f   node_panel.obj
 0001:00022ba0       ?SetChildIndent@CNodePanel@@IAEXH@Z 10023ba0 f   node_panel.obj
 0001:00022c10       ?AddNewElementPanel@CNodePanel@@IAEXH_N0@Z 10023c10 f   node_panel.obj
 0001:00022cd0       ?RecreateControls@CNodePanel@@QAEXXZ 10023cd0 f   node_panel.obj
 0001:00022d50       ?InsertChildData@CNodePanel@@IAEXHPAVKeyValues@@@Z 10023d50 f   node_panel.obj
 0001:00022d80       ?DeleteSelf@CNodePanel@@IAEXXZ 10023d80 f   node_panel.obj
 0001:00022de0       ?InitVar@PanelMessageFunc_OnAddRule@CNodePanel@@SAXXZ 10023de0 f i node_panel.obj
 0001:00022e70       ?InitVar@PanelMessageFunc_OnAddState@CNodePanel@@SAXXZ 10023e70 f i node_panel.obj
 0001:00022f00       ?InitVar@PanelMessageFunc_OnTextChanged@CNodePanel@@SAXXZ 10023f00 f i node_panel.obj
 0001:00022fb0       ??0CNodePanel@@QAE@PAVPanel@vgui@@PBD@Z 10023fb0 f   node_panel.obj
 0001:000233c0       ?GetMessageMap@CNodePanel@@UAEPAUPanelMessageMap@vgui@@XZ 100243c0 f i node_panel.obj
 0001:000233f0       ?GetAnimMap@CNodePanel@@UAEPAUPanelAnimationMap@@XZ 100243f0 f i node_panel.obj
 0001:00023400       ?GetKBMap@CNodePanel@@UAEPAUPanelKeyBindingMap@vgui@@XZ 10024400 f i node_panel.obj
 0001:00023430       ?OnCommand@CNodePanel@@UAEXPBD@Z 10024430 f   node_panel.obj
 0001:00023470       ?OnAddRule@CNodePanel@@UAEXPAVKeyValues@@@Z 10024470 f   node_panel.obj
 0001:000234d0       ?OnAddState@CNodePanel@@UAEXPAVKeyValues@@@Z 100244d0 f   node_panel.obj
 0001:00023530       ?SetData@CNodePanel@@QAEXPAVKeyValues@@@Z 10024530 f   node_panel.obj
 0001:000235c0       ?AddChild@CNodePanel@@IAEXPAV1@H@Z 100245c0 f   node_panel.obj
 0001:00023690       ?CreateChild@CNodePanel@@IAEPAV1@PAVKeyValues@@@Z 10024690 f   node_panel.obj
 0001:00023760       ?GetPanelClassName@CRuleInstanceNodePanel@@SAPBDXZ 10024760 f i rule_instance_node_panel.obj
 0001:00023770       ?GetPanelClassName@CRulePickerDialog@@SAPBDXZ 10024770 f i rule_instance_node_panel.obj
 0001:00023780       ?GetPanelClassName@CRuleDetailsPanel@@SAPBDXZ 10024780 f i rule_instance_node_panel.obj
 0001:00023790       ?OnMouseReleased@CRuleDetailsPanel@@UAEXW4ButtonCode_t@@@Z 10024790 f   rule_instance_node_panel.obj
 0001:000237e0       ?RuleMatchExists@@YA_NPBURuleType_t@@H0H@Z 100247e0 f   rule_instance_node_panel.obj
 0001:00023850       ?ApplySchemeSettings@CRuleInstanceNodePanel@@UAEXPAVIScheme@vgui@@@Z 10024850 f   rule_instance_node_panel.obj
 0001:00023880       ?OnRuleChanged@CRuleInstanceNodePanel@@UAEXPAVKeyValues@@@Z 10024880 f   rule_instance_node_panel.obj
 0001:000238f0       ??0CRuleDetailsPanel@@QAE@PAVPanel@vgui@@PBDPBVCTilegenRule@@@Z 100248f0 f   rule_instance_node_panel.obj
 0001:00023a40       ?GetMessageMap@CRuleDetailsPanel@@UAEPAUPanelMessageMap@vgui@@XZ 10024a40 f i rule_instance_node_panel.obj
 0001:00023a70       ?GetAnimMap@CRuleDetailsPanel@@UAEPAUPanelAnimationMap@@XZ 10024a70 f i rule_instance_node_panel.obj
 0001:00023a80       ?GetKBMap@CRuleDetailsPanel@@UAEPAUPanelKeyBindingMap@vgui@@XZ 10024a80 f i rule_instance_node_panel.obj
 0001:00023ab0       ??_GCRuleDetailsPanel@@UAEPAXI@Z 10024ab0 f i rule_instance_node_panel.obj
 0001:00023ab0       ??_ECRuleDetailsPanel@@UAEPAXI@Z 10024ab0 f i rule_instance_node_panel.obj
 0001:00023ae0       ?CreatePanelContents@CRuleInstanceNodePanel@@MAEXXZ 10024ae0 f   rule_instance_node_panel.obj
 0001:00023ce0       ?InstantiateRule@@YAPAVKeyValues@@PBVCTilegenMissionPreprocessor@@PBD@Z 10024ce0 f   rule_instance_node_panel.obj
 0001:00023dd0       ?OnRuleDetailsClicked@CRulePickerDialog@@UAEXPAVPanel@vgui@@@Z 10024dd0 f   rule_instance_node_panel.obj
 0001:00023e60       ?InsertBefore@?$CUtlVector@UMessageMapItem_t@vgui@@V?$CUtlMemory@UMessageMapItem_t@vgui@@H@@@@QAEHHABUMessageMapItem_t@vgui@@@Z 10024e60 f i kv_combo_leaf_panel.obj
 0001:00023e60       ?InsertBefore@?$CUtlVector@URuleType_t@@V?$CUtlMemory@URuleType_t@@H@@@@QAEHHABURuleType_t@@@Z 10024e60 f i rule_instance_node_panel.obj
 0001:00023ed0       ?InitVar@PanelMessageFunc_OnRuleChanged@CRuleInstanceNodePanel@@SAXXZ 10024ed0 f i rule_instance_node_panel.obj
 0001:00023f60       ?InitVar@PanelMessageFunc_OnRuleDetailsClicked@CRulePickerDialog@@SAXXZ 10024f60 f i rule_instance_node_panel.obj
 0001:00024000       ?AddAllowableRuleType@CRuleInstanceNodePanel@@QAEXPBD@Z 10025000 f   rule_instance_node_panel.obj
 0001:00024070       ??0CRulePickerDialog@@QAE@PAVPanel@vgui@@PBDPBVCTilegenMissionPreprocessor@@PAURuleType_t@@H@Z 10025070 f   rule_instance_node_panel.obj
 0001:00024210       ?GetMessageMap@CRulePickerDialog@@UAEPAUPanelMessageMap@vgui@@XZ 10025210 f i rule_instance_node_panel.obj
 0001:00024240       ?GetAnimMap@CRulePickerDialog@@UAEPAUPanelAnimationMap@@XZ 10025240 f i rule_instance_node_panel.obj
 0001:00024250       ?GetKBMap@CRulePickerDialog@@UAEPAUPanelKeyBindingMap@vgui@@XZ 10025250 f i rule_instance_node_panel.obj
 0001:00024280       ??_GCRulePickerDialog@@UAEPAXI@Z 10025280 f i rule_instance_node_panel.obj
 0001:00024280       ??_ECRulePickerDialog@@UAEPAXI@Z 10025280 f i rule_instance_node_panel.obj
 0001:000242b0       ??0CRuleInstanceNodePanel@@QAE@PAVPanel@vgui@@PBD@Z 100252b0 f   rule_instance_node_panel.obj
 0001:000243b0       ?GetMessageMap@CRuleInstanceNodePanel@@UAEPAUPanelMessageMap@vgui@@XZ 100253b0 f i rule_instance_node_panel.obj
 0001:000243e0       ?GetAnimMap@CRuleInstanceNodePanel@@UAEPAUPanelAnimationMap@@XZ 100253e0 f i rule_instance_node_panel.obj
 0001:000243f0       ?GetKBMap@CRuleInstanceNodePanel@@UAEPAUPanelKeyBindingMap@vgui@@XZ 100253f0 f i rule_instance_node_panel.obj
 0001:00024420       ??_GCRuleInstanceNodePanel@@UAEPAXI@Z 10025420 f i rule_instance_node_panel.obj
 0001:00024420       ??_ECRuleInstanceNodePanel@@UAEPAXI@Z 10025420 f i rule_instance_node_panel.obj
 0001:00024460       ?OnCommand@CRuleInstanceNodePanel@@UAEXPBD@Z 10025460 f   rule_instance_node_panel.obj
 0001:00024570       ?GetPanelClassName@CRuleInstanceParameterPanel@@SAPBDXZ 10025570 f i rule_instance_parameter_panel.obj
 0001:00024580       ?GetPanelClassName@CEditableValuePanel@@SAPBDXZ 10025580 f i rule_instance_parameter_panel.obj
 0001:00024590       ?GetPanelClassName@CArrayValuePanel@@SAPBDXZ 10025590 f i rule_instance_parameter_panel.obj
 0001:000245a0       ?GetPanelClassName@CBoolValuePanel@@SAPBDXZ 100255a0 f i rule_instance_parameter_panel.obj
 0001:000245b0       ?GetPanelClassName@CStringValuePanel@@SAPBDXZ 100255b0 f i rule_instance_parameter_panel.obj
 0001:000245c0       ?GetPanelClassName@CEnumValuePanel@@SAPBDXZ 100255c0 f i rule_instance_parameter_panel.obj
 0001:000245d0       ?GetPanelClassName@CThemeValuePanel@@SAPBDXZ 100255d0 f i rule_instance_parameter_panel.obj
 0001:000245e0       ?GetPanelClassName@CFileValuePanel@@SAPBDXZ 100255e0 f i rule_instance_parameter_panel.obj
 0001:000245f0       ?ApplySchemeSettings@CArrayValuePanel@@UAEXPAVIScheme@vgui@@@Z 100255f0 f   rule_instance_parameter_panel.obj
 0001:000245f0       ?ApplySchemeSettings@CRuleInstanceParameterPanel@@UAEXPAVIScheme@vgui@@@Z 100255f0 f   rule_instance_parameter_panel.obj
 0001:000245f0       ?ApplySchemeSettings@CBoolValuePanel@@UAEXPAVIScheme@vgui@@@Z 100255f0 f   rule_instance_parameter_panel.obj
 0001:00024620       ?OnButtonChecked@CBoolValuePanel@@UAEXPAVPanel@vgui@@@Z 10025620 f   rule_instance_parameter_panel.obj
 0001:00024650       ?UpdateState@CBoolValuePanel@@UAEXXZ 10025650 f   rule_instance_parameter_panel.obj
 0001:00024690       ?OnTextChanged@CStringValuePanel@@UAEXPAVPanel@vgui@@@Z 10025690 f   rule_instance_parameter_panel.obj
 0001:000246e0       ?UpdateState@CStringValuePanel@@UAEXXZ 100256e0 f   rule_instance_parameter_panel.obj
 0001:00024720       ?OnTextChanged@CEnumValuePanel@@UAEXPAVPanel@vgui@@@Z 10025720 f   rule_instance_parameter_panel.obj
 0001:00024760       ?UpdateState@CEnumValuePanel@@UAEXXZ 10025760 f   rule_instance_parameter_panel.obj
 0001:000247c0       ?OnCommand@CThemeValuePanel@@UAEXPBD@Z 100257c0 f   rule_instance_parameter_panel.obj
 0001:000248a0       ?UpdateState@CThemeValuePanel@@UAEXXZ 100258a0 f   rule_instance_parameter_panel.obj
 0001:000248e0       ?OnCommand@CFileValuePanel@@UAEXPBD@Z 100258e0 f   rule_instance_parameter_panel.obj
 0001:000249f0       ?OnFileSelected@CFileValuePanel@@UAEXPAVKeyValues@@@Z 100259f0 f   rule_instance_parameter_panel.obj
 0001:00024b10       ?UpdateState@CFileValuePanel@@UAEXXZ 10025b10 f   rule_instance_parameter_panel.obj
 0001:00024b50       ??_9CTilegenLayoutSystemPage@@$BDME@AE 10025b50 f i tilegen_pages.obj
 0001:00024b50       ??_9TextEntry@vgui@@$BDME@AE 10025b50 f i rule_instance_parameter_panel.obj
 0001:00024b50       ??_9CRuleInstanceNodePanel@@$BDME@AE 10025b50 f i rule_instance_node_panel.obj
 0001:00024b60       ?UpdateState@CRuleInstanceParameterPanel@@UAEXXZ 10025b60 f   rule_instance_parameter_panel.obj
 0001:00024be0       ?CreateNewValue@@YAPAVKeyValues@@PBVCTilegenRule@@H@Z 10025be0 f   rule_instance_parameter_panel.obj
 0001:00024c40       ?AddNewParameterElementPanel@CArrayValuePanel@@QAEXH@Z 10025c40 f   rule_instance_parameter_panel.obj
 0001:00024cb0       ?OnAddRule@CArrayValuePanel@@UAEXPAVKeyValues@@@Z 10025cb0 f   rule_instance_parameter_panel.obj
 0001:00024d50       ?OnCommand@CRuleInstanceParameterPanel@@UAEXPBD@Z 10025d50 f   rule_instance_parameter_panel.obj
 0001:00024e90       ?InitVar@PanelMessageFunc_OnAddRule@CArrayValuePanel@@SAXXZ 10025e90 f i rule_instance_parameter_panel.obj
 0001:00024f20       ?InitVar@PanelMessageFunc_OnButtonChecked@CBoolValuePanel@@SAXXZ 10025f20 f i rule_instance_parameter_panel.obj
 0001:00024fc0       ?InitVar@PanelMessageFunc_OnTextChanged@CStringValuePanel@@SAXXZ 10025fc0 f i rule_instance_parameter_panel.obj
 0001:00025060       ?InitVar@PanelMessageFunc_OnTextChanged@CEnumValuePanel@@SAXXZ 10026060 f i rule_instance_parameter_panel.obj
 0001:00025100       ?InitVar@PanelMessageFunc_OnFileSelected@CFileValuePanel@@SAXXZ 10026100 f i rule_instance_parameter_panel.obj
 0001:00025190       ??0CEditableValuePanel@@QAE@PAVPanel@vgui@@PBD@Z 10026190 f   rule_instance_parameter_panel.obj
 0001:00025260       ?GetMessageMap@CEditableValuePanel@@UAEPAUPanelMessageMap@vgui@@XZ 10026260 f i rule_instance_parameter_panel.obj
 0001:00025290       ?GetAnimMap@CEditableValuePanel@@UAEPAUPanelAnimationMap@@XZ 10026290 f i rule_instance_parameter_panel.obj
 0001:000252a0       ?GetKBMap@CEditableValuePanel@@UAEPAUPanelKeyBindingMap@vgui@@XZ 100262a0 f i rule_instance_parameter_panel.obj
 0001:000252d0       ??0CArrayValuePanel@@QAE@PAVPanel@vgui@@PBDPBVCTilegenRule@@H@Z 100262d0 f   rule_instance_parameter_panel.obj
 0001:000253b0       ?GetMessageMap@CArrayValuePanel@@UAEPAUPanelMessageMap@vgui@@XZ 100263b0 f i rule_instance_parameter_panel.obj
 0001:000253e0       ?GetAnimMap@CArrayValuePanel@@UAEPAUPanelAnimationMap@@XZ 100263e0 f i rule_instance_parameter_panel.obj
 0001:000253f0       ?GetKBMap@CArrayValuePanel@@UAEPAUPanelKeyBindingMap@vgui@@XZ 100263f0 f i rule_instance_parameter_panel.obj
 0001:00025420       ??0CBoolValuePanel@@QAE@PAVPanel@vgui@@PBD@Z 10026420 f   rule_instance_parameter_panel.obj
 0001:00025570       ?GetMessageMap@CBoolValuePanel@@UAEPAUPanelMessageMap@vgui@@XZ 10026570 f i rule_instance_parameter_panel.obj
 0001:000255a0       ?GetAnimMap@CBoolValuePanel@@UAEPAUPanelAnimationMap@@XZ 100265a0 f i rule_instance_parameter_panel.obj
 0001:000255b0       ?GetKBMap@CBoolValuePanel@@UAEPAUPanelKeyBindingMap@vgui@@XZ 100265b0 f i rule_instance_parameter_panel.obj
 0001:000255e0       ??0CStringValuePanel@@QAE@PAVPanel@vgui@@PBD@Z 100265e0 f   rule_instance_parameter_panel.obj
 0001:00025740       ?GetMessageMap@CStringValuePanel@@UAEPAUPanelMessageMap@vgui@@XZ 10026740 f i rule_instance_parameter_panel.obj
 0001:00025770       ?GetAnimMap@CStringValuePanel@@UAEPAUPanelAnimationMap@@XZ 10026770 f i rule_instance_parameter_panel.obj
 0001:00025780       ?GetKBMap@CStringValuePanel@@UAEPAUPanelKeyBindingMap@vgui@@XZ 10026780 f i rule_instance_parameter_panel.obj
 0001:000257b0       ??0CEnumValuePanel@@QAE@PAVPanel@vgui@@PBDPBVCTilegenEnum@@@Z 100267b0 f   rule_instance_parameter_panel.obj
 0001:00025980       ?GetMessageMap@CEnumValuePanel@@UAEPAUPanelMessageMap@vgui@@XZ 10026980 f i rule_instance_parameter_panel.obj
 0001:000259b0       ?GetAnimMap@CEnumValuePanel@@UAEPAUPanelAnimationMap@@XZ 100269b0 f i rule_instance_parameter_panel.obj
 0001:000259c0       ?GetKBMap@CEnumValuePanel@@UAEPAUPanelKeyBindingMap@vgui@@XZ 100269c0 f i rule_instance_parameter_panel.obj
 0001:000259f0       ??0CThemeValuePanel@@QAE@PAVPanel@vgui@@PBD@Z 100269f0 f   rule_instance_parameter_panel.obj
 0001:00025c00       ?GetMessageMap@CThemeValuePanel@@UAEPAUPanelMessageMap@vgui@@XZ 10026c00 f i rule_instance_parameter_panel.obj
 0001:00025c30       ?GetAnimMap@CThemeValuePanel@@UAEPAUPanelAnimationMap@@XZ 10026c30 f i rule_instance_parameter_panel.obj
 0001:00025c40       ?GetKBMap@CThemeValuePanel@@UAEPAUPanelKeyBindingMap@vgui@@XZ 10026c40 f i rule_instance_parameter_panel.obj
 0001:00025c70       ??0CFileValuePanel@@QAE@PAVPanel@vgui@@PBD111_N2@Z 10026c70 f   rule_instance_parameter_panel.obj
 0001:00025e90       ?GetMessageMap@CFileValuePanel@@UAEPAUPanelMessageMap@vgui@@XZ 10026e90 f i rule_instance_parameter_panel.obj
 0001:00025ec0       ?GetAnimMap@CFileValuePanel@@UAEPAUPanelAnimationMap@@XZ 10026ec0 f i rule_instance_parameter_panel.obj
 0001:00025ed0       ?GetKBMap@CFileValuePanel@@UAEPAUPanelKeyBindingMap@vgui@@XZ 10026ed0 f i rule_instance_parameter_panel.obj
 0001:00025f00       ??0CRuleInstanceParameterPanel@@QAE@PAVPanel@vgui@@PBDPBVCTilegenRule@@H@Z 10026f00 f   rule_instance_parameter_panel.obj
 0001:00026020       ?GetMessageMap@CRuleInstanceParameterPanel@@UAEPAUPanelMessageMap@vgui@@XZ 10027020 f i rule_instance_parameter_panel.obj
 0001:00026050       ?GetAnimMap@CRuleInstanceParameterPanel@@UAEPAUPanelAnimationMap@@XZ 10027050 f i rule_instance_parameter_panel.obj
 0001:00026060       ?GetKBMap@CRuleInstanceParameterPanel@@UAEPAUPanelKeyBindingMap@vgui@@XZ 10027060 f i rule_instance_parameter_panel.obj
 0001:00026090       ?CreateValuePanel@@YAPAVCNodePanel@@PBVCTilegenRule@@HPAV1@PAVKeyValues@@PA_N@Z 10027090 f   rule_instance_parameter_panel.obj
 0001:00026570       ?CreatePanelContents@CArrayValuePanel@@UAEXXZ 10027570 f   rule_instance_parameter_panel.obj
 0001:00026680       ??_GCRuleInstanceParameterPanel@@UAEPAXI@Z 10027680 f i rule_instance_parameter_panel.obj
 0001:00026680       ??_ECEnumValuePanel@@UAEPAXI@Z 10027680 f i rule_instance_parameter_panel.obj
 0001:00026680       ??_ECEditableValuePanel@@UAEPAXI@Z 10027680 f i rule_instance_parameter_panel.obj
 0001:00026680       ??_ECFileValuePanel@@UAEPAXI@Z 10027680 f i rule_instance_parameter_panel.obj
 0001:00026680       ??_ECNodePanel@@UAEPAXI@Z  10027680 f i node_panel.obj
 0001:00026680       ??_GCStateNodePanel@@UAEPAXI@Z 10027680 f i state_node_panel.obj
 0001:00026680       ??_GCStringValuePanel@@UAEPAXI@Z 10027680 f i rule_instance_parameter_panel.obj
 0001:00026680       ??_GCArrayValuePanel@@UAEPAXI@Z 10027680 f i rule_instance_parameter_panel.obj
 0001:00026680       ??_ECBoolValuePanel@@UAEPAXI@Z 10027680 f i rule_instance_parameter_panel.obj
 0001:00026680       ??_GCEditableValuePanel@@UAEPAXI@Z 10027680 f i rule_instance_parameter_panel.obj
 0001:00026680       ??_GCMissionPanel@@UAEPAXI@Z 10027680 f i mission_panel.obj
 0001:00026680       ??_ECMissionPanel@@UAEPAXI@Z 10027680 f i mission_panel.obj
 0001:00026680       ??_ECRuleInstanceParameterPanel@@UAEPAXI@Z 10027680 f i rule_instance_parameter_panel.obj
 0001:00026680       ??_GCNodePanel@@UAEPAXI@Z  10027680 f i node_panel.obj
 0001:00026680       ??_GCFileValuePanel@@UAEPAXI@Z 10027680 f i rule_instance_parameter_panel.obj
 0001:00026680       ??_GCBoolValuePanel@@UAEPAXI@Z 10027680 f i rule_instance_parameter_panel.obj
 0001:00026680       ??_ECStateNodePanel@@UAEPAXI@Z 10027680 f i state_node_panel.obj
 0001:00026680       ??_GCThemeValuePanel@@UAEPAXI@Z 10027680 f i rule_instance_parameter_panel.obj
 0001:00026680       ??_GCEnumValuePanel@@UAEPAXI@Z 10027680 f i rule_instance_parameter_panel.obj
 0001:00026680       ??_ECArrayValuePanel@@UAEPAXI@Z 10027680 f i rule_instance_parameter_panel.obj
 0001:00026680       ??_ECStringValuePanel@@UAEPAXI@Z 10027680 f i rule_instance_parameter_panel.obj
 0001:00026680       ??_ECThemeValuePanel@@UAEPAXI@Z 10027680 f i rule_instance_parameter_panel.obj
 0001:000266b0       ?CreatePanelContents@CRuleInstanceParameterPanel@@MAEXXZ 100276b0 f   rule_instance_parameter_panel.obj
 0001:000268a0       ?GetPanelClassName@CStateNodePanel@@SAPBDXZ 100278a0 f i state_node_panel.obj
 0001:000268b0       ?CreatePanelContents@CStateNodePanel@@MAEXXZ 100278b0 f   state_node_panel.obj
 0001:000269c0       ?UpdateState@CStateNodePanel@@MAEXXZ 100279c0 f   state_node_panel.obj
 0001:00026a30       ??0CStateNodePanel@@QAE@PAVPanel@vgui@@PBD@Z 10027a30 f   state_node_panel.obj
 0001:00026b00       ?GetMessageMap@CStateNodePanel@@UAEPAUPanelMessageMap@vgui@@XZ 10027b00 f i state_node_panel.obj
 0001:00026b30       ?GetAnimMap@CStateNodePanel@@UAEPAUPanelAnimationMap@@XZ 10027b30 f i state_node_panel.obj
 0001:00026b40       ?GetKBMap@CStateNodePanel@@UAEPAUPanelKeyBindingMap@vgui@@XZ 10027b40 f i state_node_panel.obj
 0001:00026b70       ?GetPanelClassName@CMapLayoutPanel@@SAPBDXZ 10027b70 f i MapLayoutPanel.obj
 0001:00026b80       ?GetCursorTile@CMapLayoutPanel@@QAEXAAH0@Z 10027b80 f   MapLayoutPanel.obj
 0001:00026c00       ?OnMousePressed@CMapLayoutPanel@@UAEXW4ButtonCode_t@@@Z 10027c00 f   MapLayoutPanel.obj
 0001:00026c60       ?GetMapLayout@CMapLayoutPanel@@AAEPAVCMapLayout@@XZ 10027c60 f   MapLayoutPanel.obj
 0001:00026c80       ?GetMessageMap@CMapLayoutPanel@@UAEPAUPanelMessageMap@vgui@@XZ 10027c80 f i MapLayoutPanel.obj
 0001:00026cb0       ?GetAnimMap@CMapLayoutPanel@@UAEPAUPanelAnimationMap@@XZ 10027cb0 f i MapLayoutPanel.obj
 0001:00026cc0       ?GetKBMap@CMapLayoutPanel@@UAEPAUPanelKeyBindingMap@vgui@@XZ 10027cc0 f i MapLayoutPanel.obj
 0001:00026cf0       ??0CMapLayoutPanel@@QAE@PAVPanel@vgui@@PBD@Z 10027cf0 f   MapLayoutPanel.obj
 0001:00026e30       ??_ECMapLayoutPanel@@UAEPAXI@Z 10027e30 f i MapLayoutPanel.obj
 0001:00026e30       ??_GCMapLayoutPanel@@UAEPAXI@Z 10027e30 f i MapLayoutPanel.obj
 0001:00026e60       ?PerformLayout@CMapLayoutPanel@@UAEXXZ 10027e60 f   MapLayoutPanel.obj
 0001:00026f20       ?ApplySchemeSettings@CMapLayoutPanel@@UAEXPAVIScheme@vgui@@@Z 10027f20 f   MapLayoutPanel.obj
 0001:00026f80       ?Paint@CMapLayoutPanel@@UAEXXZ 10027f80 f   MapLayoutPanel.obj
 0001:00027150       ?AddRoom@CMapLayoutPanel@@QAEXPBVCRoomTemplate@@HH@Z 10028150 f   MapLayoutPanel.obj
 0001:000271e0       ?OnMouseReleased@CMapLayoutPanel@@UAEXW4ButtonCode_t@@@Z 100281e0 f   MapLayoutPanel.obj
 0001:00027330       ?CreateAllUIPanels@CMapLayoutPanel@@QAEXXZ 10028330 f   MapLayoutPanel.obj
 0001:000273a0       ?GetPanelClassName@CMissionChooserTGAImagePanel@@SAPBDXZ 100283a0 f i missionchooser_tgaimagepanel.obj
 0001:000273b0       ?SetTGA@CMissionChooserTGAImagePanel@@QAEXPBD0@Z 100283b0 f   missionchooser_tgaimagepanel.obj
 0001:00027420       ?GetMessageMap@CMissionChooserTGAImagePanel@@UAEPAUPanelMessageMap@vgui@@XZ 10028420 f i missionchooser_tgaimagepanel.obj
 0001:00027450       ?GetAnimMap@CMissionChooserTGAImagePanel@@UAEPAUPanelAnimationMap@@XZ 10028450 f i missionchooser_tgaimagepanel.obj
 0001:00027460       ?GetKBMap@CMissionChooserTGAImagePanel@@UAEPAUPanelKeyBindingMap@vgui@@XZ 10028460 f i missionchooser_tgaimagepanel.obj
 0001:00027490       ??0CMissionChooserTGAImagePanel@@QAE@PAVPanel@vgui@@PBD@Z 10028490 f   missionchooser_tgaimagepanel.obj
 0001:00027570       ??_ECMissionChooserTGAImagePanel@@UAEPAXI@Z 10028570 f i missionchooser_tgaimagepanel.obj
 0001:00027570       ??_GCMissionChooserTGAImagePanel@@UAEPAXI@Z 10028570 f i missionchooser_tgaimagepanel.obj
 0001:000275a0       ?ClearImageCache@CMissionChooserTGAImagePanel@@SAXXZ 100285a0 f   missionchooser_tgaimagepanel.obj
 0001:00027660       ?Paint@CMissionChooserTGAImagePanel@@UAEXXZ 10028660 f   missionchooser_tgaimagepanel.obj
 0001:00027920       ?GetPanelClassName@CNPC_Spawns_Panel@@SAPBDXZ 10028920 f i npc_spawns_panel.obj
 0001:00027930       ?ApplySchemeSettings@CNPC_Spawns_Panel@@UAEXPAVIScheme@vgui@@@Z 10028930 f   npc_spawns_panel.obj
 0001:00027960       ?GetMessageMap@CNPC_Spawns_Panel@@UAEPAUPanelMessageMap@vgui@@XZ 10028960 f i npc_spawns_panel.obj
 0001:00027990       ?GetAnimMap@CNPC_Spawns_Panel@@UAEPAUPanelAnimationMap@@XZ 10028990 f i npc_spawns_panel.obj
 0001:000279a0       ?GetKBMap@CNPC_Spawns_Panel@@UAEPAUPanelKeyBindingMap@vgui@@XZ 100289a0 f i npc_spawns_panel.obj
 0001:000279d0       ??0CNPC_Spawns_Panel@@QAE@PAVPanel@vgui@@PBD@Z 100289d0 f   npc_spawns_panel.obj
 0001:00027aa0       ??_GCNPC_Spawns_Panel@@UAEPAXI@Z 10028aa0 f i npc_spawns_panel.obj
 0001:00027aa0       ??_ECNPC_Spawns_Panel@@UAEPAXI@Z 10028aa0 f i npc_spawns_panel.obj
 0001:00027ad0       ?PerformLayout@CNPC_Spawns_Panel@@UAEXXZ 10028ad0 f   npc_spawns_panel.obj
 0001:00027b10       ?Paint@CNPC_Spawns_Panel@@UAEXXZ 10028b10 f   npc_spawns_panel.obj
 0001:00028110       ?GetPanelClassName@CPlacedRoomTemplatePanel@@SAPBDXZ 10029110 f i PlacedRoomTemplatePanel.obj
 0001:00028120       ?PerformLayout@CPlacedRoomTemplatePanel@@UAEXXZ 10029120 f   PlacedRoomTemplatePanel.obj
 0001:00028310       ?OnMouseReleased@CPlacedRoomTemplatePanel@@UAEXW4ButtonCode_t@@@Z 10029310 f   PlacedRoomTemplatePanel.obj
 0001:000283d0       ?OnDragged@CPlacedRoomTemplatePanel@@UAEXXZ 100293d0 f   PlacedRoomTemplatePanel.obj
 0001:000283f0       ?MarkForDeletion@CPlacedRoomTemplatePanel@@UAEXXZ 100293f0 f   PlacedRoomTemplatePanel.obj
 0001:00028410       ?GetMessageMap@CPlacedRoomTemplatePanel@@UAEPAUPanelMessageMap@vgui@@XZ 10029410 f i PlacedRoomTemplatePanel.obj
 0001:00028440       ?GetAnimMap@CPlacedRoomTemplatePanel@@UAEPAUPanelAnimationMap@@XZ 10029440 f i PlacedRoomTemplatePanel.obj
 0001:00028450       ?GetKBMap@CPlacedRoomTemplatePanel@@UAEPAUPanelKeyBindingMap@vgui@@XZ 10029450 f i PlacedRoomTemplatePanel.obj
 0001:00028480       ??0CPlacedRoomTemplatePanel@@QAE@PAVCRoom@@PAVPanel@vgui@@PBD@Z 10029480 f   PlacedRoomTemplatePanel.obj
 0001:00028570       ??_GCPlacedRoomTemplatePanel@@UAEPAXI@Z 10029570 f i PlacedRoomTemplatePanel.obj
 0001:00028570       ??_ECPlacedRoomTemplatePanel@@UAEPAXI@Z 10029570 f i PlacedRoomTemplatePanel.obj
 0001:000285a0       ?ApplySchemeSettings@CPlacedRoomTemplatePanel@@UAEXPAVIScheme@vgui@@@Z 100295a0 f   PlacedRoomTemplatePanel.obj
 0001:00028660       ?OnMousePressed@CPlacedRoomTemplatePanel@@UAEXW4ButtonCode_t@@@Z 10029660 f   PlacedRoomTemplatePanel.obj
 0001:00028770       ?GetPanelClassName@CRoomTemplateListPanel@@SAPBDXZ 10029770 f i RoomTemplateListPanel.obj
 0001:00028780       ?CompareFolders@CRoomTemplateListPanel@@CAHPBURoomTemplateFolder_t@1@0@Z 10029780 f i RoomTemplateListPanel.obj
 0001:00028790       ?SetFilterText@CRoomTemplateListPanel@@QAEXPBD@Z 10029790 f   RoomTemplateListPanel.obj
 0001:000287b0       ??_9RichText@vgui@@$BDEM@AE 100297b0 f i vgui_controls:RichText.obj
 0001:000287b0       ??_9CRoomTemplateListPanel@@$BDEM@AE 100297b0 f i RoomTemplateListPanel.obj
 0001:000287c0       ?Grow@?$CUtlMemory@URoomTemplateFolder_t@CRoomTemplateListPanel@@H@@QAEXH@Z 100297c0 f i RoomTemplateListPanel.obj
 0001:00028860       ?UpdatePanelsWithTemplate@CRoomTemplateListPanel@@QAEXPBVCRoomTemplate@@@Z 10029860 f   RoomTemplateListPanel.obj
 0001:000288a0       ?OnExpandAll@CRoomTemplateListPanel@@UAEXXZ 100298a0 f   RoomTemplateListPanel.obj
 0001:000288e0       ?OnCollapseAll@CRoomTemplateListPanel@@UAEXXZ 100298e0 f   RoomTemplateListPanel.obj
 0001:00028920       ?OnToggleFolder@CRoomTemplateListPanel@@UAEXPAVKeyValues@@@Z 10029920 f   RoomTemplateListPanel.obj
 0001:000289b0       ?FilterTemplate@CRoomTemplateListPanel@@AAE_NPBVCRoomTemplate@@@Z 100299b0 f   RoomTemplateListPanel.obj
 0001:00028a60       ?Sort@?$CUtlVector@URoomTemplateFolder_t@CRoomTemplateListPanel@@V?$CUtlMemory@URoomTemplateFolder_t@CRoomTemplateListPanel@@H@@@@QAEXP6AHPBURoomTemplateFolder_t@CRoomTemplateListPanel@@0@Z@Z 10029a60 f i RoomTemplateListPanel.obj
 0001:00028b20       ?PerformLayout@CRoomTemplateListPanel@@UAEXXZ 10029b20 f   RoomTemplateListPanel.obj
 0001:00028dd0       ?GetMessageMap@CRoomTemplateListPanel@@UAEPAUPanelMessageMap@vgui@@XZ 10029dd0 f i RoomTemplateListPanel.obj
 0001:00028e00       ?GetAnimMap@CRoomTemplateListPanel@@UAEPAUPanelAnimationMap@@XZ 10029e00 f i RoomTemplateListPanel.obj
 0001:00028e10       ?GetKBMap@CRoomTemplateListPanel@@UAEPAUPanelKeyBindingMap@vgui@@XZ 10029e10 f i RoomTemplateListPanel.obj
 0001:00028e40       ?InitVar@PanelMessageFunc_OnRefreshList@CRoomTemplateListPanel@@SAXXZ 10029e40 f i RoomTemplateListPanel.obj
 0001:00028ed0       ?InitVar@PanelMessageFunc_OnExpandAll@CRoomTemplateListPanel@@SAXXZ 10029ed0 f i RoomTemplateListPanel.obj
 0001:00028f60       ?InitVar@PanelMessageFunc_OnCollapseAll@CRoomTemplateListPanel@@SAXXZ 10029f60 f i RoomTemplateListPanel.obj
 0001:00028ff0       ?InitVar@PanelMessageFunc_OnToggleFolder@CRoomTemplateListPanel@@SAXXZ 10029ff0 f i RoomTemplateListPanel.obj
 0001:00029080       ??0CRoomTemplateListPanel@@QAE@PAVPanel@vgui@@PBD@Z 1002a080 f   RoomTemplateListPanel.obj
 0001:000292e0       ??_ECRoomTemplateListPanel@@UAEPAXI@Z 1002a2e0 f i RoomTemplateListPanel.obj
 0001:000292e0       ??_GCRoomTemplateListPanel@@UAEPAXI@Z 1002a2e0 f i RoomTemplateListPanel.obj
 0001:00029320       ?AddFolder@CRoomTemplateListPanel@@AAEXPBD@Z 1002a320 f   RoomTemplateListPanel.obj
 0001:000294c0       ?UpdateRoomList@CRoomTemplateListPanel@@QAEXXZ 1002a4c0 f   RoomTemplateListPanel.obj
 0001:00029720       ?OnRefreshList@CRoomTemplateListPanel@@UAEXXZ 1002a720 f   RoomTemplateListPanel.obj
 0001:00029750       ?GetPanelClassName@CRoomTemplatePanel@@SAPBDXZ 1002a750 f i RoomTemplatePanel.obj
 0001:00029760       ?ApplySchemeSettings@CRoomTemplatePanel@@UAEXPAVIScheme@vgui@@@Z 1002a760 f   RoomTemplatePanel.obj
 0001:00029840       ?Get@?$DHANDLE@VMenu@vgui@@@vgui@@QAEPAVMenu@2@XZ 1002a840 f i RoomTemplatePanel.obj
 0001:00029850       ??4?$DHANDLE@VMenu@vgui@@@vgui@@QAEPAVMenu@1@PAV21@@Z 1002a850 f i RoomTemplatePanel.obj
 0001:00029860       ?PerformLayout@CRoomTemplatePanel@@UAEXXZ 1002a860 f   RoomTemplatePanel.obj
 0001:00029a00       ?OnMouseReleased@CRoomTemplatePanel@@UAEXW4ButtonCode_t@@@Z 1002aa00 f   RoomTemplatePanel.obj
 0001:00029e90       ??1CRoomTemplatePanel@@UAE@XZ 1002ae90 f   RoomTemplatePanel.obj
 0001:00029ed0       ?GetMessageMap@CRoomTemplatePanel@@UAEPAUPanelMessageMap@vgui@@XZ 1002aed0 f i RoomTemplatePanel.obj
 0001:00029f00       ?GetAnimMap@CRoomTemplatePanel@@UAEPAUPanelAnimationMap@@XZ 1002af00 f i RoomTemplatePanel.obj
 0001:00029f10       ?GetKBMap@CRoomTemplatePanel@@UAEPAUPanelKeyBindingMap@vgui@@XZ 1002af10 f i RoomTemplatePanel.obj
 0001:00029f40       ??0CRoomTemplatePanel@@QAE@PAVPanel@vgui@@PBD@Z 1002af40 f   RoomTemplatePanel.obj
 0001:0002a1c0       ??_GCRoomTemplatePanel@@UAEPAXI@Z 1002b1c0 f i RoomTemplatePanel.obj
 0001:0002a1c0       ??_ECRoomTemplatePanel@@UAEPAXI@Z 1002b1c0 f i RoomTemplatePanel.obj
 0001:0002a220       ?UpdateImages@CRoomTemplatePanel@@QAEXXZ 1002b220 f   RoomTemplatePanel.obj
 0001:0002a570       ?UpdateAllImages@CRoomTemplatePanel@@SAXXZ 1002b570 f   RoomTemplatePanel.obj
 0001:0002a900       ?SetRoomTemplate@CRoomTemplatePanel@@QAEXPBVCRoomTemplate@@@Z 1002b900 f   RoomTemplatePanel.obj
 0001:0002a9c0       ?GetPanelClassName@CScrollingWindow@@SAPBDXZ 1002b9c0 f i ScrollingWindow.obj
 0001:0002a9d0       ?MoveToTopLeft@CScrollingWindow@@QAEXXZ 1002b9d0 f   ScrollingWindow.obj
 0001:0002ab10       ?MoveToLowerCenter@CScrollingWindow@@QAEXXZ 1002bb10 f   ScrollingWindow.obj
 0001:0002abe0       ?OnMouseWheeled@CScrollingWindow@@UAEXH@Z 1002bbe0 f   ScrollingWindow.obj
 0001:0002ac20       ??_9CScrollingWindow@@$BDEI@AE 1002bc20 f i ScrollingWindow.obj
 0001:0002ac20       ??_9ProgressBar@vgui@@$BDEI@AE 1002bc20 f i vgui_controls:RichText.obj
 0001:0002ac20       ??_9CRoomTemplateListPanel@@$BDEI@AE 1002bc20 f i RoomTemplateListPanel.obj
 0001:0002ac30       ?GetMessageMap@CScrollingWindow@@UAEPAUPanelMessageMap@vgui@@XZ 1002bc30 f i ScrollingWindow.obj
 0001:0002ac60       ?GetAnimMap@CScrollingWindow@@UAEPAUPanelAnimationMap@@XZ 1002bc60 f i ScrollingWindow.obj
 0001:0002ac70       ?GetKBMap@CScrollingWindow@@UAEPAUPanelKeyBindingMap@vgui@@XZ 1002bc70 f i ScrollingWindow.obj
 0001:0002aca0       ??_GCScrollingWindow@@UAEPAXI@Z 1002bca0 f i ScrollingWindow.obj
 0001:0002aca0       ??_ECScrollingWindow@@UAEPAXI@Z 1002bca0 f i ScrollingWindow.obj
 0001:0002acd0       ?PerformLayout@CScrollingWindow@@UAEXXZ 1002bcd0 f   ScrollingWindow.obj
 0001:0002aed0       ?ApplySchemeSettings@CScrollingWindow@@UAEXPAVIScheme@vgui@@@Z 1002bed0 f   ScrollingWindow.obj
 0001:0002af30       ?OnThink@CScrollingWindow@@UAEXXZ 1002bf30 f   ScrollingWindow.obj
 0001:0002afc0       ?SetChildPanel@CScrollingWindow@@QAEXPAVPanel@vgui@@@Z 1002bfc0 f   ScrollingWindow.obj
 0001:0002b020       ?InitVar@PanelMessageFunc_OnSliderMoved@CScrollingWindow@@SAXXZ 1002c020 f i ScrollingWindow.obj
 0001:0002b0c0       ??0CScrollingWindow@@QAE@PAVPanel@vgui@@PBD@Z 1002c0c0 f   ScrollingWindow.obj
 0001:0002b290       ?GetPanelClassName@CTileGenLayoutPage@@SAPBDXZ 1002c290 f i tilegen_pages.obj
 0001:0002b2a0       ?GetPanelClassName@CTilegenKVEditorPage@@SAPBDXZ 1002c2a0 f i tilegen_pages.obj
 0001:0002b2b0       ?GetPanelClassName@CTilegenLayoutSystemPage@@SAPBDXZ 1002c2b0 f i tilegen_pages.obj
 0001:0002b2c0       ?ApplySchemeSettings@CTileGenLayoutPage@@UAEXPAVIScheme@vgui@@@Z 1002c2c0 f   tilegen_pages.obj
 0001:0002b2f0       ?GroupTreeSortFunc@?A0x19e36436@@YA_NPAVKeyValues@@0@Z 1002c2f0 f   location_editor_frame.obj
 0001:0002b330       ?GetPanelMap@CTilegenKVEditorPage@@UAEPAUPanelMap_t@vgui@@XZ 1002c330 f   tilegen_pages.obj
 0001:0002b340       ?ApplySchemeSettings@CTilegenKVEditorPage@@UAEXPAVIScheme@vgui@@@Z 1002c340 f   tilegen_pages.obj
 0001:0002b380       ?OnCommand@CTilegenKVEditorPage@@UAEXPBD@Z 1002c380 f   tilegen_pages.obj
 0001:0002b530       ?OnCheckOutFromP4@CTilegenKVEditorPage@@UAEXPAVKeyValues@@@Z 1002c530 f   tilegen_pages.obj
 0001:0002b5d0       ?ApplySchemeSettings@CTilegenLayoutSystemPage@@UAEXPAVIScheme@vgui@@@Z 1002c5d0 f   tilegen_pages.obj
 0001:0002b670       ?OnTreeViewItemSelected@CTilegenLayoutSystemPage@@UAEXH@Z 1002c670 f   tilegen_pages.obj
 0001:0002b770       ?OnFileSelected@CTilegenLayoutSystemPage@@UAEXPBD@Z 1002c770 f   tilegen_pages.obj
 0001:0002b980       ?OnAddToP4@CTilegenLayoutSystemPage@@UAEXPAVKeyValues@@@Z 1002c980 f   tilegen_pages.obj
 0001:0002b9d0       ?SaveNew@CTilegenLayoutSystemPage@@MAEXXZ 1002c9d0 f   tilegen_pages.obj
 0001:0002ba70       ?GetKeyValues@CTilegenLayoutSystemPage@@MAEPAVKeyValues@@XZ 1002ca70 f   tilegen_pages.obj
 0001:0002ba80       ??_9CKV_Leaf_Panel@@$BDLA@AE 1002ca80 f i kv_leaf_panel.obj
 0001:0002ba80       ??_9TextEntry@vgui@@$BDLA@AE 1002ca80 f i node_panel.obj
 0001:0002ba80       ??_9CKV_Node_Panel@@$BDLA@AE 1002ca80 f i kv_node_panel.obj
 0001:0002ba80       ??_9CKV_Combo_Leaf_Panel@@$BDLA@AE 1002ca80 f i kv_combo_leaf_panel.obj
 0001:0002ba80       ??_9CTilegenKVEditorPage@@$BDLA@AE 1002ca80 f i tilegen_pages.obj
 0001:0002ba90       ??_9TextEntry@vgui@@$BDLI@AE 1002ca90 f i vgui_controls:TextEntry.obj
 0001:0002ba90       ??_9CTilegenKVEditorPage@@$BDLI@AE 1002ca90 f i tilegen_pages.obj
 0001:0002baa0       ??0CTileGenLayoutPage@@QAE@PAVPanel@vgui@@PBD@Z 1002caa0 f   tilegen_pages.obj
 0001:0002bbd0       ?GetMessageMap@CTileGenLayoutPage@@UAEPAUPanelMessageMap@vgui@@XZ 1002cbd0 f i tilegen_pages.obj
 0001:0002bc00       ?GetAnimMap@CTileGenLayoutPage@@UAEPAUPanelAnimationMap@@XZ 1002cc00 f i tilegen_pages.obj
 0001:0002bc10       ?GetKBMap@CTileGenLayoutPage@@UAEPAUPanelKeyBindingMap@vgui@@XZ 1002cc10 f i tilegen_pages.obj
 0001:0002bc40       ?RecursiveCreateFolderNodes@CTilegenKVEditorPage@@IAEHHPAD@Z 1002cc40 f   tilegen_pages.obj
 0001:0002bda0       ?UpdateListHelper@CTilegenKVEditorPage@@IAEXPAVCASW_KeyValuesDatabase@@PBD@Z 1002cda0 f   tilegen_pages.obj
 0001:0002bf80       ?UpdateList@CTilegenLayoutSystemPage@@UAEXXZ 1002cf80 f   tilegen_pages.obj
 0001:0002bfa0       ?InitVar@PanelMessageFunc_OnTreeViewItemSelected@CTilegenKVEditorPage@@SAXXZ 1002cfa0 f i tilegen_pages.obj
 0001:0002c040       ?InitVar@PanelMessageFunc_OnCheckOutFromP4@CTilegenKVEditorPage@@SAXXZ 1002d040 f i tilegen_pages.obj
 0001:0002c0d0       ?InitVar@PanelMessageFunc_OnAddToP4@CTilegenLayoutSystemPage@@SAXXZ 1002d0d0 f i tilegen_pages.obj
 0001:0002c160       ??0CTilegenKVEditorPage@@QAE@PAVPanel@vgui@@PBD@Z 1002d160 f   tilegen_pages.obj
 0001:0002c310       ?GetMessageMap@CTilegenKVEditorPage@@UAEPAUPanelMessageMap@vgui@@XZ 1002d310 f i tilegen_pages.obj
 0001:0002c340       ?GetAnimMap@CTilegenKVEditorPage@@UAEPAUPanelAnimationMap@@XZ 1002d340 f i tilegen_pages.obj
 0001:0002c350       ?GetKBMap@CTilegenKVEditorPage@@UAEPAUPanelKeyBindingMap@vgui@@XZ 1002d350 f i tilegen_pages.obj
 0001:0002c380       ??0CTilegenLayoutSystemPage@@QAE@PAVPanel@vgui@@PBD@Z 1002d380 f   tilegen_pages.obj
 0001:0002c5f0       ?GetMessageMap@CTilegenLayoutSystemPage@@UAEPAUPanelMessageMap@vgui@@XZ 1002d5f0 f i tilegen_pages.obj
 0001:0002c620       ?GetAnimMap@CTilegenLayoutSystemPage@@UAEPAUPanelAnimationMap@@XZ 1002d620 f i tilegen_pages.obj
 0001:0002c630       ?GetKBMap@CTilegenLayoutSystemPage@@UAEPAUPanelKeyBindingMap@vgui@@XZ 1002d630 f i tilegen_pages.obj
 0001:0002c660       ?OnCommand@CTilegenLayoutSystemPage@@UAEXPBD@Z 1002d660 f   tilegen_pages.obj
 0001:0002c7e0       ??1CTilegenLayoutSystemPage@@UAE@XZ 1002d7e0 f   tilegen_pages.obj
 0001:0002c850       ??_GCTilegenLayoutSystemPage@@UAEPAXI@Z 1002d850 f i tilegen_pages.obj
 0001:0002c850       ??_ECTilegenLayoutSystemPage@@UAEPAXI@Z 1002d850 f i tilegen_pages.obj
 0001:0002c880       ?GetPanelClassName@CToggleExitsPanel@@SAPBDXZ 1002d880 f i ToggleExitsPanel.obj
 0001:0002c890       ?GetPanelClassName@CToggleExitButton@@SAPBDXZ 1002d890 f i ToggleExitsPanel.obj
 0001:0002c8a0       ?PerformLayout@CToggleExitsPanel@@UAEXXZ 1002d8a0 f   ToggleExitsPanel.obj
 0001:0002c900       ?ApplySchemeSettings@CToggleExitButton@@UAEXPAVIScheme@vgui@@@Z 1002d900 f   ToggleExitsPanel.obj
 0001:0002c930       ?PerformLayout@CToggleExitButton@@UAEXXZ 1002d930 f   ToggleExitsPanel.obj
 0001:0002ca00       ?GetMessageMap@CToggleExitButton@@UAEPAUPanelMessageMap@vgui@@XZ 1002da00 f i ToggleExitsPanel.obj
 0001:0002ca30       ?GetAnimMap@CToggleExitButton@@UAEPAUPanelAnimationMap@@XZ 1002da30 f i ToggleExitsPanel.obj
 0001:0002ca40       ?GetKBMap@CToggleExitButton@@UAEPAUPanelKeyBindingMap@vgui@@XZ 1002da40 f i ToggleExitsPanel.obj
 0001:0002ca70       ??0CToggleExitButton@@QAE@PAVPanel@vgui@@PBD@Z 1002da70 f   ToggleExitsPanel.obj
 0001:0002cb30       ??_ECToggleExitButton@@UAEPAXI@Z 1002db30 f i ToggleExitsPanel.obj
 0001:0002cb30       ??_GCToggleExitButton@@UAEPAXI@Z 1002db30 f i ToggleExitsPanel.obj
 0001:0002cb60       ?OnMouseReleased@CToggleExitButton@@UAEXW4ButtonCode_t@@@Z 1002db60 f   ToggleExitsPanel.obj
 0001:0002cc00       ?OnThink@CToggleExitButton@@UAEXXZ 1002dc00 f   ToggleExitsPanel.obj
 0001:0002cd10       ??0CToggleExitsPanel@@QAE@PAVPanel@vgui@@PBD@Z 1002dd10 f   ToggleExitsPanel.obj
 0001:0002ce00       ?GetMessageMap@CToggleExitsPanel@@UAEPAUPanelMessageMap@vgui@@XZ 1002de00 f i ToggleExitsPanel.obj
 0001:0002ce30       ?GetAnimMap@CToggleExitsPanel@@UAEPAUPanelAnimationMap@@XZ 1002de30 f i ToggleExitsPanel.obj
 0001:0002ce40       ?GetKBMap@CToggleExitsPanel@@UAEPAUPanelKeyBindingMap@vgui@@XZ 1002de40 f i ToggleExitsPanel.obj
 0001:0002ce70       ?SetRoomTemplatePanel@CToggleExitsPanel@@QAEXPAVCRoomTemplatePanel@@_N@Z 1002de70 f   ToggleExitsPanel.obj
 0001:0002d220       ??_ECToggleExitsPanel@@UAEPAXI@Z 1002e220 f i ToggleExitsPanel.obj
 0001:0002d220       ??_GCToggleExitsPanel@@UAEPAXI@Z 1002e220 f i ToggleExitsPanel.obj
 0001:0002d260       ?GetPanelClassName@CExitEditDialog@@SAPBDXZ 1002e260 f i ExitEditDialog.obj
 0001:0002d270       ?OnCommand@CExitEditDialog@@UAEXPBD@Z 1002e270 f   ExitEditDialog.obj
 0001:0002d300       ?GetMessageMap@CExitEditDialog@@UAEPAUPanelMessageMap@vgui@@XZ 1002e300 f i ExitEditDialog.obj
 0001:0002d330       ?GetAnimMap@CExitEditDialog@@UAEPAUPanelAnimationMap@@XZ 1002e330 f i ExitEditDialog.obj
 0001:0002d340       ?GetKBMap@CExitEditDialog@@UAEPAUPanelKeyBindingMap@vgui@@XZ 1002e340 f i ExitEditDialog.obj
 0001:0002d370       ??0CExitEditDialog@@QAE@PAVPanel@vgui@@PBDPAVCRoomTemplate@@PAVCRoomTemplateExit@@@Z 1002e370 f   ExitEditDialog.obj
 0001:0002d510       ??_GCExitEditDialog@@UAEPAXI@Z 1002e510 f i ExitEditDialog.obj
 0001:0002d510       ??_ECExitEditDialog@@UAEPAXI@Z 1002e510 f i ExitEditDialog.obj
 0001:0002d550       ?GetPanelClassName@CRoomTemplateEditDialog@@SAPBDXZ 1002e550 f i RoomTemplateEditDialog.obj
 0001:0002d560       ?GetPanelMap@CRoomTemplateEditDialog@@UAEPAUPanelMap_t@vgui@@XZ 1002e560 f   RoomTemplateEditDialog.obj
 0001:0002d570       ?OnCheckOutFromP4@CRoomTemplateEditDialog@@UAEXPAVKeyValues@@@Z 1002e570 f   RoomTemplateEditDialog.obj
 0001:0002d610       ?OnSliderMoved@CRoomTemplateEditDialog@@UAEXPAVPanel@vgui@@@Z 1002e610 f   RoomTemplateEditDialog.obj
 0001:0002d790       ?OnCheckButtonChecked@CRoomTemplateEditDialog@@UAEXPAVPanel@vgui@@@Z 1002e790 f   RoomTemplateEditDialog.obj
 0001:0002d810       ?DoPickVMF@CRoomTemplateEditDialog@@QAEXXZ 1002e810 f   RoomTemplateEditDialog.obj
 0001:0002d8b0       ?OnFileSelected@CRoomTemplateEditDialog@@QAEXPBD@Z 1002e8b0 f   RoomTemplateEditDialog.obj
 0001:0002da60       ?GetVMFFilename@CRoomTemplateEditDialog@@QAEPBDXZ 1002ea60 f   RoomTemplateEditDialog.obj
 0001:0002da90       ?OnTextChanged@CRoomTemplateEditDialog@@UAEXPAVPanel@vgui@@@Z 1002ea90 f   RoomTemplateEditDialog.obj
 0001:0002dae0       ??_9FileOpenDialog@vgui@@$BEGA@AE 1002eae0 f i RoomTemplateEditDialog.obj
 0001:0002dae0       ??_9CLocation_Editor_Frame@@$BEGA@AE 1002eae0 f i location_editor_frame.obj
 0001:0002daf0       ??_9FileOpenDialog@vgui@@$BEGI@AE 1002eaf0 f i RoomTemplateEditDialog.obj
 0001:0002daf0       ??_9BuildModeDialog@vgui@@$BEGI@AE 1002eaf0 f i vgui_controls:BuildModeDialog.obj
 0001:0002daf0       ??_9CThemesDialog@@$BEGI@AE 1002eaf0 f i ThemesDialog.obj
 0001:0002db00       ?GetMessageMap@CRoomTemplateEditDialog@@UAEPAUPanelMessageMap@vgui@@XZ 1002eb00 f i RoomTemplateEditDialog.obj
 0001:0002db30       ?GetAnimMap@CRoomTemplateEditDialog@@UAEPAUPanelAnimationMap@@XZ 1002eb30 f i RoomTemplateEditDialog.obj
 0001:0002db40       ?GetKBMap@CRoomTemplateEditDialog@@UAEPAUPanelKeyBindingMap@vgui@@XZ 1002eb40 f i RoomTemplateEditDialog.obj
 0001:0002db70       ??_GCRoomTemplateEditDialog@@UAEPAXI@Z 1002eb70 f i RoomTemplateEditDialog.obj
 0001:0002db70       ??_ECRoomTemplateEditDialog@@UAEPAXI@Z 1002eb70 f i RoomTemplateEditDialog.obj
 0001:0002dba0       ?EditExit@CRoomTemplateEditDialog@@QAEXHHW4ExitDirection_t@@@Z 1002eba0 f   RoomTemplateEditDialog.obj
 0001:0002dc20       ?Remove@?$CUtlVector@PAVCRoomTemplateExit@@V?$CUtlMemory@PAVCRoomTemplateExit@@H@@@@QAEXH@Z 1002ec20 f i RoomTemplateEditDialog.obj
 0001:0002dc60       ?InitVar@PanelMessageFunc_OnSliderMoved@CRoomTemplateEditDialog@@SAXXZ 1002ec60 f i RoomTemplateEditDialog.obj
 0001:0002dd00       ?InitVar@PanelMessageFunc_OnCheckButtonChecked@CRoomTemplateEditDialog@@SAXXZ 1002ed00 f i RoomTemplateEditDialog.obj
 0001:0002dda0       ?InitVar@PanelMessageFunc_OnTextChanged@CRoomTemplateEditDialog@@SAXXZ 1002eda0 f i RoomTemplateEditDialog.obj
 0001:0002de40       ?InitVar@PanelMessageFunc_OnCheckOutFromP4@CRoomTemplateEditDialog@@SAXXZ 1002ee40 f i RoomTemplateEditDialog.obj
 0001:0002ded0       ?InitVar@PanelMessageFunc_OnAddToP4@CRoomTemplateEditDialog@@SAXXZ 1002eed0 f i RoomTemplateEditDialog.obj
 0001:0002df60       ??0CRoomTemplateEditDialog@@QAE@PAVPanel@vgui@@PBDPAVCRoomTemplate@@_N@Z 1002ef60 f   RoomTemplateEditDialog.obj
 0001:0002e720       ?OnAddToP4@CRoomTemplateEditDialog@@UAEXPAVKeyValues@@@Z 1002f720 f   RoomTemplateEditDialog.obj
 0001:0002e830       ?AddExit@CRoomTemplateEditDialog@@QAEXHHW4ExitDirection_t@@@Z 1002f830 f   RoomTemplateEditDialog.obj
 0001:0002e950       ?ToggleExit@CRoomTemplateEditDialog@@QAEXHHW4ExitDirection_t@@@Z 1002f950 f   RoomTemplateEditDialog.obj
 0001:0002eaa0       ?OnCommand@CRoomTemplateEditDialog@@UAEXPBD@Z 1002faa0 f   RoomTemplateEditDialog.obj
 0001:0002f450       ?GetPanelClassName@CThemeEditDialog@@SAPBDXZ 10030450 f i ThemeEditDialog.obj
 0001:0002f460       ?GetMessageMap@CThemeEditDialog@@UAEPAUPanelMessageMap@vgui@@XZ 10030460 f i ThemeEditDialog.obj
 0001:0002f490       ?GetAnimMap@CThemeEditDialog@@UAEPAUPanelAnimationMap@@XZ 10030490 f i ThemeEditDialog.obj
 0001:0002f4a0       ?GetKBMap@CThemeEditDialog@@UAEPAUPanelKeyBindingMap@vgui@@XZ 100304a0 f i ThemeEditDialog.obj
 0001:0002f4d0       ??0CThemeEditDialog@@QAE@PAVPanel@vgui@@PBDPAVCLevelTheme@@_N@Z 100304d0 f   ThemeEditDialog.obj
 0001:0002f740       ??_ECThemeEditDialog@@UAEPAXI@Z 10030740 f i ThemeEditDialog.obj
 0001:0002f740       ??_GCThemeEditDialog@@UAEPAXI@Z 10030740 f i ThemeEditDialog.obj
 0001:0002f780       ?OnCommand@CThemeEditDialog@@UAEXPBD@Z 10030780 f   ThemeEditDialog.obj
 0001:0002fa90       ?GetPanelClassName@CThemesDialog@@SAPBDXZ 10030a90 f i ThemesDialog.obj
 0001:0002faa0       ?GetPanelClassName@CThemeDetails@@SAPBDXZ 10030aa0 f i ThemesDialog.obj
 0001:0002fab0       ??1CThemesDialog@@UAE@XZ   10030ab0 f   ThemesDialog.obj
 0001:0002fad0       ?OnCommand@CThemesDialog@@UAEXPBD@Z 10030ad0 f   ThemesDialog.obj
 0001:0002fc00       ?OnThemeChanged@CThemesDialog@@UAEXPAVKeyValues@@@Z 10030c00 f   ThemesDialog.obj
 0001:0002fc50       ?OnThemeDetailsClicked@CThemesDialog@@UAEXPAVPanel@vgui@@@Z 10030c50 f   ThemesDialog.obj
 0001:0002fc90       ?ThemeClicked@CThemesDialog@@UAEXPAVCThemeDetails@@@Z 10030c90 f   ThemesDialog.obj
 0001:0002fd30       ?ShouldHighlight@CThemesDialog@@UAE_NPAVCThemeDetails@@@Z 10030d30 f   ThemesDialog.obj
 0001:0002fd60       ?SetTheme@CThemeDetails@@QAEXPAVCLevelTheme@@@Z 10030d60 f   ThemesDialog.obj
 0001:0002fe00       ?ApplySchemeSettings@CThemeDetails@@UAEXPAVIScheme@vgui@@@Z 10030e00 f   ThemesDialog.obj
 0001:0002fe60       ?PerformLayout@CThemeDetails@@UAEXXZ 10030e60 f   ThemesDialog.obj
 0001:0002ff00       ?OnMouseReleased@CThemeDetails@@UAEXW4ButtonCode_t@@@Z 10030f00 f   ThemesDialog.obj
 0001:0002ff50       ?OnThink@CThemeDetails@@UAEXXZ 10030f50 f   ThemesDialog.obj
 0001:0002ffb0       ?GetMessageMap@CThemesDialog@@UAEPAUPanelMessageMap@vgui@@XZ 10030fb0 f i ThemesDialog.obj
 0001:0002ffe0       ?GetAnimMap@CThemesDialog@@UAEPAUPanelAnimationMap@@XZ 10030fe0 f i ThemesDialog.obj
 0001:00030000       ?GetKBMap@CThemesDialog@@UAEPAUPanelKeyBindingMap@vgui@@XZ 10031000 f i ThemesDialog.obj
 0001:00030030       ?GetMessageMap@CThemeDetails@@UAEPAUPanelMessageMap@vgui@@XZ 10031030 f i ThemesDialog.obj
 0001:00030060       ?GetAnimMap@CThemeDetails@@UAEPAUPanelAnimationMap@@XZ 10031060 f i ThemesDialog.obj
 0001:00030070       ?GetKBMap@CThemeDetails@@UAEPAUPanelKeyBindingMap@vgui@@XZ 10031070 f i ThemesDialog.obj
 0001:000300a0       ??_GCThemesDialog@@UAEPAXI@Z 100310a0 f i ThemesDialog.obj
 0001:000300a0       ??_ECThemesDialog@@UAEPAXI@Z 100310a0 f i ThemesDialog.obj
 0001:000300e0       ??0CThemeDetails@@QAE@PAVPanel@vgui@@PBDPAVCThemesDialog@@@Z 100310e0 f   ThemesDialog.obj
 0001:000302e0       ??_GCThemeDetails@@UAEPAXI@Z 100312e0 f i ThemesDialog.obj
 0001:000302e0       ??_ECThemeDetails@@UAEPAXI@Z 100312e0 f i ThemesDialog.obj
 0001:00030310       ?PopulateThemeList@CThemesDialog@@UAEXXZ 10031310 f   ThemesDialog.obj
 0001:000303d0       ?InitVar@PanelMessageFunc_OnThemeChanged@CThemesDialog@@SAXXZ 100313d0 f i ThemesDialog.obj
 0001:00030460       ?InitVar@PanelMessageFunc_OnThemeDetailsClicked@CThemesDialog@@SAXXZ 10031460 f i ThemesDialog.obj
 0001:00030500       ??0CThemesDialog@@QAE@PAVPanel@vgui@@PBD_N@Z 10031500 f   ThemesDialog.obj
 0001:000306a0       ?GetPanelClassName@CTileGenDialog@@SAPBDXZ 100316a0 f i TileGenDialog.obj
 0001:000306b0       ?GetPanelClassName@MessageBox@vgui@@SAPBDXZ 100316b0 f i TileGenDialog.obj
 0001:000306c0       ??_GCModalPreserveMessageBox@@UAEPAXI@Z 100316c0 f i TileGenDialog.obj
 0001:000306c0       ??_ECModalPreserveMessageBox@@UAEPAXI@Z 100316c0 f i TileGenDialog.obj
 0001:00030700       ?VGUIMessageBox@@YAXPAVPanel@vgui@@PBD1ZZ 10031700 f   TileGenDialog.obj
 0001:000307a0       ?OnClose@CTileGenDialog@@MAEXXZ 100317a0 f   TileGenDialog.obj
 0001:000307c0       ?OnUpdateCurrentTheme@CTileGenDialog@@UAEXPAVKeyValues@@@Z 100317c0 f   TileGenDialog.obj
 0001:00030830       ?PerformLayout@CTileGenDialog@@UAEXXZ 10031830 f   TileGenDialog.obj
 0001:000308a0       ?ApplySchemeSettings@CTileGenDialog@@UAEXPAVIScheme@vgui@@@Z 100318a0 f   TileGenDialog.obj
 0001:00030920       ?OnCheckButtonChecked@CTileGenDialog@@UAEXPAVPanel@vgui@@@Z 10031920 f   TileGenDialog.obj
 0001:00030990       ?OnTextChanged@CTileGenDialog@@UAEXPAVPanel@vgui@@@Z 10031990 f   TileGenDialog.obj
 0001:000309f0       ?DoFileOpen@CTileGenDialog@@QAEXXZ 100319f0 f   TileGenDialog.obj
 0001:00030a70       ?DoFileSaveAs@CTileGenDialog@@QAEXXZ 10031a70 f   TileGenDialog.obj
 0001:00030af0       ?GetPanelMap@CTileGenDialog@@UAEPAUPanelMap_t@vgui@@XZ 10031af0 f   TileGenDialog.obj
 0001:00030b00       ?GetMapLayoutPanel@CTileGenDialog@@QAEPAVCMapLayoutPanel@@XZ 10031b00 f   TileGenDialog.obj
 0001:00030b10       ?StartRubberBandSelection@CTileGenDialog@@QAEXHH@Z 10031b10 f   TileGenDialog.obj
 0001:00030b30       ?GetRubberBandStart@CTileGenDialog@@QAE_NAAH0@Z 10031b30 f   TileGenDialog.obj
 0001:00030b60       ?cc_kv_editor@@YAXABVCCommand@@@Z 10031b60 f   TileGenDialog.obj
 0001:00030bb0       ?TileGenCopyString@@YAPADPBD@Z 10031bb0 f   TileGenDialog.obj
 0001:00030c00       ?GetMessageMap@MessageBox@vgui@@UAEPAUPanelMessageMap@2@XZ 10031c00 f i TileGenDialog.obj
 0001:00030c30       ?GetAnimMap@MessageBox@vgui@@UAEPAUPanelAnimationMap@@XZ 10031c30 f i TileGenDialog.obj
 0001:00030c40       ?GetKBMap@MessageBox@vgui@@UAEPAUPanelKeyBindingMap@2@XZ 10031c40 f i TileGenDialog.obj
 0001:00030c70       ?OnFileSelected@CTileGenDialog@@QAEXPBD@Z 10031c70 f   TileGenDialog.obj
 0001:00030d50       ?GenerateMission@CTileGenDialog@@QAEXPBD@Z 10031d50 f   TileGenDialog.obj
 0001:00030ff0       ?OnStartDraggingSelectedRooms@CTileGenDialog@@QAEXXZ 10031ff0 f   TileGenDialog.obj
 0001:00031010       ?Zoom@CTileGenDialog@@QAEXH@Z 10032010 f   TileGenDialog.obj
 0001:00031220       ?GenerateRoomThumbnails@CTileGenDialog@@QAEX_N@Z 10032220 f   TileGenDialog.obj
 0001:000314b0       ?OnCommand@CTileGenDialog@@MAEXPBD@Z 100324b0 f   TileGenDialog.obj
 0001:00031c00       ?OnAddToP4@CTileGenDialog@@UAEXPAVKeyValues@@@Z 10032c00 f   TileGenDialog.obj
 0001:00031c30       ?PurgeAndDeleteElements@?$CUtlVector@PAVCRoom@@V?$CUtlMemory@PAVCRoom@@H@@@@QAEXXZ 10032c30 f i TileGenDialog.obj
 0001:00031ca0       ??1CTileGenDialog@@UAE@XZ  10032ca0 f   TileGenDialog.obj
 0001:00031d20       ?GetMessageMap@CTileGenDialog@@UAEPAUPanelMessageMap@vgui@@XZ 10032d20 f i TileGenDialog.obj
 0001:00031d50       ?GetAnimMap@CTileGenDialog@@UAEPAUPanelAnimationMap@@XZ 10032d50 f i TileGenDialog.obj
 0001:00031d60       ?GetKBMap@CTileGenDialog@@UAEPAUPanelKeyBindingMap@vgui@@XZ 10032d60 f i TileGenDialog.obj
 0001:00031d90       ?OnTick@CTileGenDialog@@UAEXXZ 10032d90 f   TileGenDialog.obj
 0001:000322d0       ?OnKeyCodeTyped@CTileGenDialog@@UAEXW4ButtonCode_t@@@Z 100332d0 f   TileGenDialog.obj
 0001:00032320       ?InitVar@PanelMessageFunc_OnUpdateCurrentTheme@CTileGenDialog@@SAXXZ 10033320 f i TileGenDialog.obj
 0001:000323b0       ?InitVar@PanelMessageFunc_OnAddToP4@CTileGenDialog@@SAXXZ 100333b0 f i TileGenDialog.obj
 0001:00032440       ?InitVar@PanelMessageFunc_OnCheckButtonChecked@CTileGenDialog@@SAXXZ 10033440 f i TileGenDialog.obj
 0001:000324e0       ?InitVar@PanelMessageFunc_OnTextChanged@CTileGenDialog@@SAXXZ 100334e0 f i TileGenDialog.obj
 0001:00032580       ??0CTileGenDialog@@QAE@PAVPanel@vgui@@PBD@Z 10033580 f   TileGenDialog.obj
 0001:00032d70       ??_GCTileGenDialog@@UAEPAXI@Z 10033d70 f i TileGenDialog.obj
 0001:00032d70       ??_ECTileGenDialog@@UAEPAXI@Z 10033d70 f i TileGenDialog.obj
 0001:00032da0       ?ToggleRoomSelection@CTileGenDialog@@QAEXPAVCRoom@@@Z 10033da0 f   TileGenDialog.obj
 0001:00032e50       ?ClearRoomSelection@CTileGenDialog@@QAEXXZ 10033e50 f   TileGenDialog.obj
 0001:00032f50       ?EndRubberBandSelection@CTileGenDialog@@QAEXHH@Z 10033f50 f   TileGenDialog.obj
 0001:00033080       ?SetCursorRoomTemplate@CTileGenDialog@@QAEXPBVCRoomTemplate@@@Z 10034080 f   TileGenDialog.obj
 0001:000330f0       ?SetRoomSelection@CTileGenDialog@@QAEXPAVCRoom@@@Z 100340f0 f   TileGenDialog.obj
 0001:00033180       ?EnsureCapacity@?$CUtlMemory@EH@@QAEXH@Z 10034180 f i bitmap:tgaloader.obj
 0001:000331d0       ??$GetTypeText@G@CUtlBuffer@@IAE_NAAGH@Z 100341d0 f i bitmap:tgaloader.obj
 0001:000332e0       ?ReadRow8BitUncompressedWithColormap@TGALoader@@YAXAAVCUtlBuffer@@ABUTGAHeader_t@1@PAE@Z 100342e0 f   bitmap:tgaloader.obj
 0001:000334a0       ?ReadRow8BitUncompressedWithoutColormap@TGALoader@@YAXAAVCUtlBuffer@@ABUTGAHeader_t@1@PAE@Z 100344a0 f   bitmap:tgaloader.obj
 0001:00033520       ?ReadRow24BitUncompressedWithoutColormap@TGALoader@@YAXAAVCUtlBuffer@@ABUTGAHeader_t@1@PAE@Z 10034520 f   bitmap:tgaloader.obj
 0001:00033620       ?ReadRow32BitUncompressedWithoutColormap@TGALoader@@YAXAAVCUtlBuffer@@ABUTGAHeader_t@1@PAE@Z 10034620 f   bitmap:tgaloader.obj
 0001:00033920       ?ReadRow8BitCompressedWithColormap@TGALoader@@YAXAAVCUtlBuffer@@ABUTGAHeader_t@1@PAE@Z 10034920 f   bitmap:tgaloader.obj
 0001:000339a0       ?ReadRow8BitCompressedWithoutColormap@TGALoader@@YAXAAVCUtlBuffer@@ABUTGAHeader_t@1@PAE@Z 100349a0 f   bitmap:tgaloader.obj
 0001:00033a20       ?ReadRow24BitCompressedWithoutColormap@TGALoader@@YAXAAVCUtlBuffer@@ABUTGAHeader_t@1@PAE@Z 10034a20 f   bitmap:tgaloader.obj
 0001:00033aa0       ?ReadRow32BitCompressedWithoutColormap@TGALoader@@YAXAAVCUtlBuffer@@ABUTGAHeader_t@1@PAE@Z 10034aa0 f   bitmap:tgaloader.obj
 0001:00033ca0       ?LoadRGBA8888@TGALoader@@YA_NAAVCUtlBuffer@@AAV?$CUtlMemory@EH@@AAH2@Z 10034ca0 f   bitmap:tgaloader.obj
 0001:00033d90       ?LoadRGBA8888@TGALoader@@YA_NPBDAAV?$CUtlMemory@EH@@AAH2@Z 10034d90 f   bitmap:tgaloader.obj
 0001:00033e60       ?ImageFormatInfo@ImageLoader@@YAABUImageFormatInfo_t@@W4ImageFormat@@@Z 10034e60 f   bitmap:imageformat.obj
 0001:00033e70       ?GetMemRequired@ImageLoader@@YAHHHHW4ImageFormat@@_NPAH@Z 10034e70 f   bitmap:imageformat.obj
 0001:00033ea0       ?GetMemRequired@ImageLoader@@YAHHHHHW4ImageFormat@@PAH@Z 10034ea0 f   bitmap:imageformat.obj
 0001:00033ff0       ?ComputeAveragedColor@?$CKernelWrapper@$0A@$0A@@ImageLoader@@SAXABUKernelInfo_t@@ABUResampleInfo_t@2@HHHPAM2@Z 10034ff0 f i bitmap:resample.obj
 0001:000341e0       ?ComputeAveragedColor@?$CKernelWrapper@$00$0A@@ImageLoader@@SAXABUKernelInfo_t@@ABUResampleInfo_t@2@HHHPAM2@Z 100351e0 f i bitmap:resample.obj
 0001:000343b0       ?ComputeAveragedColor@?$CKernelWrapper@$01$0A@@ImageLoader@@SAXABUKernelInfo_t@@ABUResampleInfo_t@2@HHHPAM2@Z 100353b0 f i bitmap:resample.obj
 0001:00034590       ?AddAlphaToAlphaResult@?$CKernelWrapper@$01$0A@@ImageLoader@@SAXABUKernelInfo_t@@ABUResampleInfo_t@2@HHHMPAM@Z 10035590 f i bitmap:resample.obj
 0001:000346e0       ?ComputeAveragedColor@?$CKernelWrapper@$0A@$00@ImageLoader@@SAXABUKernelInfo_t@@ABUResampleInfo_t@2@HHHPAM2@Z 100356e0 f i bitmap:resample.obj
 0001:000348f0       ?ComputeAveragedColor@?$CKernelWrapper@$00$00@ImageLoader@@SAXABUKernelInfo_t@@ABUResampleInfo_t@2@HHHPAM2@Z 100358f0 f i bitmap:resample.obj
 0001:00034af0       ?ComputeAveragedColor@?$CKernelWrapper@$01$00@ImageLoader@@SAXABUKernelInfo_t@@ABUResampleInfo_t@2@HHHPAM2@Z 10035af0 f i bitmap:resample.obj
 0001:00034d10       ?AddAlphaToAlphaResult@?$CKernelWrapper@$01$00@ImageLoader@@SAXABUKernelInfo_t@@ABUResampleInfo_t@2@HHHMPAM@Z 10035d10 f i bitmap:resample.obj
 0001:00034e80       ?AdjustAlphaChannel@?$CKernelWrapper@$01$0A@@ImageLoader@@SAXABUKernelInfo_t@@ABUResampleInfo_t@2@HHHPAM@Z 10035e80 f i bitmap:resample.obj
 0001:00034e80       ?AdjustAlphaChannel@?$CKernelWrapper@$01$00@ImageLoader@@SAXABUKernelInfo_t@@ABUResampleInfo_t@2@HHHPAM@Z 10035e80 f i bitmap:resample.obj
 0001:00035320       ?ApplyKernel@?$CKernelWrapper@$0A@$0A@@ImageLoader@@SAXABUKernelInfo_t@@ABUResampleInfo_t@2@HHHPAM2@Z 10036320 f i bitmap:resample.obj
 0001:00035520       ?ApplyKernel@?$CKernelWrapper@$00$0A@@ImageLoader@@SAXABUKernelInfo_t@@ABUResampleInfo_t@2@HHHPAM2@Z 10036520 f i bitmap:resample.obj
 0001:000356a0       ?ApplyKernel@?$CKernelWrapper@$01$0A@@ImageLoader@@SAXABUKernelInfo_t@@ABUResampleInfo_t@2@HHHPAM2@Z 100366a0 f i bitmap:resample.obj
 0001:00035920       ?ApplyKernel@?$CKernelWrapper@$0A@$00@ImageLoader@@SAXABUKernelInfo_t@@ABUResampleInfo_t@2@HHHPAM2@Z 10036920 f i bitmap:resample.obj
 0001:00035b20       ?ApplyKernel@?$CKernelWrapper@$00$00@ImageLoader@@SAXABUKernelInfo_t@@ABUResampleInfo_t@2@HHHPAM2@Z 10036b20 f i bitmap:resample.obj
 0001:00035ca0       ?ApplyKernel@?$CKernelWrapper@$01$00@ImageLoader@@SAXABUKernelInfo_t@@ABUResampleInfo_t@2@HHHPAM2@Z 10036ca0 f i bitmap:resample.obj
 0001:00035f20       ?GetProcessorCount@@YAKXZ  10036f20 f   bitmap:ATI_Compress.obj
 0001:00035f40       ?GetCodecType@@YA?AW4_CodecType@@W4ATI_TC_FORMAT@@@Z 10036f40 f   bitmap:ATI_Compress.obj
 0001:00035ff0       ?GetError@@YA?AW4ATI_TC_ERROR@@W4_CODECError@@@Z 10036ff0 f   bitmap:ATI_Compress.obj
 0001:00036020       ?CalcBufferSize@@YAKW4ATI_TC_FORMAT@@KKK@Z 10037020 f   bitmap:ATI_Compress.obj
 0001:000360b0       ?CompressTexture@@YA?AW4ATI_TC_ERROR@@PBU_ATI_TC_Texture@@PAU2@PBU_ATI_TC_CompressOptions@@P6A_NMKK@ZKKW4_CodecType@@@Z 100370b0 f   bitmap:ATI_Compress.obj
 0001:00036340       ??0CATICompressThreadData@@QAE@XZ 10037340 f   bitmap:ATI_Compress.obj
 0001:00036350       ??1CATICompressThreadData@@QAE@XZ 10037350 f   bitmap:ATI_Compress.obj
 0001:000363a0       ?ThreadedCompressProc@@YGKPAX@Z 100373a0 f   bitmap:ATI_Compress.obj
 0001:00036400       ?ThreadedCompressTexture@@YA?AW4ATI_TC_ERROR@@PBU_ATI_TC_Texture@@PAU2@PBU_ATI_TC_CompressOptions@@P6A_NMKK@ZKKW4_CodecType@@@Z 10037400 f   bitmap:ATI_Compress.obj
 0001:00036880       _ATI_TC_CalculateBufferSize 10037880 f   bitmap:ATI_Compress.obj
 0001:000368c0       ?CheckTexture@@YA?AW4ATI_TC_ERROR@@PBU_ATI_TC_Texture@@_N@Z 100378c0 f   bitmap:ATI_Compress.obj
 0001:00036940       _ATI_TC_ConvertTexture     10037940 f   bitmap:ATI_Compress.obj
 0001:00036e90       ??0CCodec@ATI_Compress@@QAE@W4_CodecType@@@Z 10037e90 f   bitmap:Codec.obj
 0001:00036eb0       ??1CCodec@ATI_Compress@@UAE@XZ 10037eb0 f   bitmap:Codec.obj
 0001:00036ec0       ?SetParameter@CCodec@ATI_Compress@@UAE_NPBDK@Z 10037ec0 f   bitmap:Codec.obj
 0001:00036ed0       ?GetParameter@CCodec@ATI_Compress@@UAE_NPBDAAK@Z 10037ed0 f   bitmap:Codec.obj
 0001:00036ee0       ?SetParameter@CCodec@ATI_Compress@@UAE_NPBDM@Z 10037ee0 f   bitmap:Codec.obj
 0001:00036ef0       ?GetParameter@CCodec@ATI_Compress@@UAE_NPBDAAM@Z 10037ef0 f   bitmap:Codec.obj
 0001:00036f00       ?SupportsSSE2@@YA_NXZ      10037f00 f   bitmap:Codec.obj
 0001:00036f10       ?CreateCodec@@YAPAVCCodec@ATI_Compress@@W4_CodecType@@@Z 10037f10 f   bitmap:Codec.obj
 0001:00037240       ?CalcBufferSize@@YAKW4_CodecType@@KK@Z 10038240 f   bitmap:Codec.obj
 0001:000372b0       ?DeriveB@@YAEEE@Z          100382b0 f   bitmap:Codec.obj
 0001:000373c0       ?DeriveB@@YAMMM@Z          100383c0 f   bitmap:Codec.obj
 0001:00037450       ??_ECCodec@ATI_Compress@@UAEPAXI@Z 10038450 f i bitmap:Codec.obj
 0001:00037450       ??_GCCodec@ATI_Compress@@UAEPAXI@Z 10038450 f i bitmap:Codec.obj
 0001:00037470       ??0half@@QAE@M@Z           10038470 f i bitmap:CodecBuffer.obj
 0001:000374e0       ?CreateCodecBuffer@@YAPAVCCodecBuffer@@W4_CodecBufferType@@KKKPAE@Z 100384e0 f   bitmap:CodecBuffer.obj
 0001:00037710       ??0CCodecBuffer@@QAE@KKKPAE@Z 10038710 f   bitmap:CodecBuffer.obj
 0001:00037750       ??1CCodecBuffer@@UAE@XZ    10038750 f   bitmap:CodecBuffer.obj
 0001:00037780       ?Copy@CCodecBuffer@@UAEXAAV1@@Z 10038780 f   bitmap:CodecBuffer.obj
 0001:00037840       ?WriteBlock@CCodecBuffer@@UAE_NKKPAKK@Z 10038840 f   bitmap:CodecBuffer.obj
 0001:00037850       ?ReadBlock@CCodecBuffer@@UAE_NKKPAKK@Z 10038850 f   bitmap:CodecBuffer.obj
 0001:00037860       ?ConvertBlock@CCodecBuffer@@IAEXQANQAMK@Z 10038860 f   bitmap:CodecBuffer.obj
 0001:000378e0       ?ConvertBlock@CCodecBuffer@@IAEXQANQAVhalf@@K@Z 100388e0 f   bitmap:CodecBuffer.obj
 0001:00037990       ?ConvertBlock@CCodecBuffer@@IAEXQANQAGK@Z 10038990 f   bitmap:CodecBuffer.obj
 0001:00037a60       ?ConvertBlock@CCodecBuffer@@IAEXQANQAEK@Z 10038a60 f   bitmap:CodecBuffer.obj
 0001:00037b20       ?ConvertBlock@CCodecBuffer@@IAEXQAMQANK@Z 10038b20 f   bitmap:CodecBuffer.obj
 0001:00037ba0       ?ConvertBlock@CCodecBuffer@@IAEXQAMQAVhalf@@K@Z 10038ba0 f   bitmap:CodecBuffer.obj
 0001:00037c50       ?ConvertBlock@CCodecBuffer@@IAEXQAMQAGK@Z 10038c50 f   bitmap:CodecBuffer.obj
 0001:00037d20       ?ConvertBlock@CCodecBuffer@@IAEXQAMQAEK@Z 10038d20 f   bitmap:CodecBuffer.obj
 0001:00037de0       ?ConvertBlock@CCodecBuffer@@IAEXQAVhalf@@QANK@Z 10038de0 f   bitmap:CodecBuffer.obj
 0001:00037e30       ?ConvertBlock@CCodecBuffer@@IAEXQAVhalf@@QAMK@Z 10038e30 f   bitmap:CodecBuffer.obj
 0001:00037e80       ?ConvertBlock@CCodecBuffer@@IAEXQAVhalf@@QAGK@Z 10038e80 f   bitmap:CodecBuffer.obj
 0001:00037ee0       ?ConvertBlock@CCodecBuffer@@IAEXQAVhalf@@QAEK@Z 10038ee0 f   bitmap:CodecBuffer.obj
 0001:00037f40       ?ConvertBlock@CCodecBuffer@@IAEXQAGQANK@Z 10038f40 f   bitmap:CodecBuffer.obj
 0001:00037fb0       ?ConvertBlock@CCodecBuffer@@IAEXQAGQAMK@Z 10038fb0 f   bitmap:CodecBuffer.obj
 0001:00038020       ?ConvertBlock@CCodecBuffer@@IAEXQAGQAVhalf@@K@Z 10039020 f   bitmap:CodecBuffer.obj
 0001:00038090       ?ConvertBlock@CCodecBuffer@@IAEXQAGQAEK@Z 10039090 f   bitmap:CodecBuffer.obj
 0001:000380d0       ?ConvertBlock@CCodecBuffer@@IAEXQAEQANK@Z 100390d0 f   bitmap:CodecBuffer.obj
 0001:00038140       ?ConvertBlock@CCodecBuffer@@IAEXQAEQAMK@Z 10039140 f   bitmap:CodecBuffer.obj
 0001:000381b0       ?ConvertBlock@CCodecBuffer@@IAEXQAEQAVhalf@@K@Z 100391b0 f   bitmap:CodecBuffer.obj
 0001:00038230       ?ConvertBlock@CCodecBuffer@@IAEXQAEQAGK@Z 10039230 f   bitmap:CodecBuffer.obj
 0001:000382b0       ?SwizzleBlock@CCodecBuffer@@IAEXQANK@Z 100392b0 f   bitmap:CodecBuffer.obj
 0001:00038350       ?SwizzleBlock@CCodecBuffer@@IAEXQAMK@Z 10039350 f   bitmap:CodecBuffer.obj
 0001:00038410       ?SwizzleBlock@CCodecBuffer@@IAEXQAVhalf@@K@Z 10039410 f   bitmap:CodecBuffer.obj
 0001:00038450       ?SwizzleBlock@CCodecBuffer@@IAEXQAGK@Z 10039450 f   bitmap:CodecBuffer.obj
 0001:00038490       ?ReadBlockR@CCodecBuffer@@UAE_NKKEEQAE@Z 10039490 f   bitmap:CodecBuffer.obj
 0001:00038650       ?ReadBlockG@CCodecBuffer@@UAE_NKKEEQAE@Z 10039650 f   bitmap:CodecBuffer.obj
 0001:00038810       ?ReadBlockB@CCodecBuffer@@UAE_NKKEEQAE@Z 10039810 f   bitmap:CodecBuffer.obj
 0001:000389d0       ?ReadBlockA@CCodecBuffer@@UAE_NKKEEQAE@Z 100399d0 f   bitmap:CodecBuffer.obj
 0001:00038b90       ?ReadBlockR@CCodecBuffer@@UAE_NKKEEQAG@Z 10039b90 f   bitmap:CodecBuffer.obj
 0001:00038d70       ?ReadBlockG@CCodecBuffer@@UAE_NKKEEQAG@Z 10039d70 f   bitmap:CodecBuffer.obj
 0001:00038f50       ?ReadBlockB@CCodecBuffer@@UAE_NKKEEQAG@Z 10039f50 f   bitmap:CodecBuffer.obj
 0001:00039130       ?ReadBlockA@CCodecBuffer@@UAE_NKKEEQAG@Z 1003a130 f   bitmap:CodecBuffer.obj
 0001:00039310       ?ReadBlockR@CCodecBuffer@@UAE_NKKEEQAVhalf@@@Z 1003a310 f   bitmap:CodecBuffer.obj
 0001:00039510       ?ReadBlockG@CCodecBuffer@@UAE_NKKEEQAVhalf@@@Z 1003a510 f   bitmap:CodecBuffer.obj
 0001:00039710       ?ReadBlockB@CCodecBuffer@@UAE_NKKEEQAVhalf@@@Z 1003a710 f   bitmap:CodecBuffer.obj
 0001:00039910       ?ReadBlockA@CCodecBuffer@@UAE_NKKEEQAVhalf@@@Z 1003a910 f   bitmap:CodecBuffer.obj
 0001:00039b10       ?ReadBlockR@CCodecBuffer@@UAE_NKKEEQAM@Z 1003ab10 f   bitmap:CodecBuffer.obj
 0001:00039c70       ?ReadBlockG@CCodecBuffer@@UAE_NKKEEQAM@Z 1003ac70 f   bitmap:CodecBuffer.obj
 0001:00039dd0       ?ReadBlockB@CCodecBuffer@@UAE_NKKEEQAM@Z 1003add0 f   bitmap:CodecBuffer.obj
 0001:00039f30       ?ReadBlockA@CCodecBuffer@@UAE_NKKEEQAM@Z 1003af30 f   bitmap:CodecBuffer.obj
 0001:0003a090       ?ReadBlockR@CCodecBuffer@@UAE_NKKEEQAN@Z 1003b090 f   bitmap:CodecBuffer.obj
 0001:0003a1e0       ?ReadBlockG@CCodecBuffer@@UAE_NKKEEQAN@Z 1003b1e0 f   bitmap:CodecBuffer.obj
 0001:0003a330       ?ReadBlockB@CCodecBuffer@@UAE_NKKEEQAN@Z 1003b330 f   bitmap:CodecBuffer.obj
 0001:0003a480       ?ReadBlockA@CCodecBuffer@@UAE_NKKEEQAN@Z 1003b480 f   bitmap:CodecBuffer.obj
 0001:0003a5d0       ?WriteBlockR@CCodecBuffer@@UAE_NKKEEQAE@Z 1003b5d0 f   bitmap:CodecBuffer.obj
 0001:0003a750       ?WriteBlockG@CCodecBuffer@@UAE_NKKEEQAE@Z 1003b750 f   bitmap:CodecBuffer.obj
 0001:0003a8d0       ?WriteBlockB@CCodecBuffer@@UAE_NKKEEQAE@Z 1003b8d0 f   bitmap:CodecBuffer.obj
 0001:0003aa60       ?WriteBlockA@CCodecBuffer@@UAE_NKKEEQAE@Z 1003ba60 f   bitmap:CodecBuffer.obj
 0001:0003abf0       ?WriteBlockR@CCodecBuffer@@UAE_NKKEEQAG@Z 1003bbf0 f   bitmap:CodecBuffer.obj
 0001:0003ad80       ?WriteBlockG@CCodecBuffer@@UAE_NKKEEQAG@Z 1003bd80 f   bitmap:CodecBuffer.obj
 0001:0003af10       ?WriteBlockB@CCodecBuffer@@UAE_NKKEEQAG@Z 1003bf10 f   bitmap:CodecBuffer.obj
 0001:0003b0b0       ?WriteBlockA@CCodecBuffer@@UAE_NKKEEQAG@Z 1003c0b0 f   bitmap:CodecBuffer.obj
 0001:0003b250       ?WriteBlockR@CCodecBuffer@@UAE_NKKEEQAVhalf@@@Z 1003c250 f   bitmap:CodecBuffer.obj
 0001:0003b390       ?WriteBlockG@CCodecBuffer@@UAE_NKKEEQAVhalf@@@Z 1003c390 f   bitmap:CodecBuffer.obj
 0001:0003b4d0       ?WriteBlockB@CCodecBuffer@@UAE_NKKEEQAVhalf@@@Z 1003c4d0 f   bitmap:CodecBuffer.obj
 0001:0003b610       ?WriteBlockA@CCodecBuffer@@UAE_NKKEEQAVhalf@@@Z 1003c610 f   bitmap:CodecBuffer.obj
 0001:0003b750       ?WriteBlockR@CCodecBuffer@@UAE_NKKEEQAM@Z 1003c750 f   bitmap:CodecBuffer.obj
 0001:0003b940       ?WriteBlockG@CCodecBuffer@@UAE_NKKEEQAM@Z 1003c940 f   bitmap:CodecBuffer.obj
 0001:0003bb40       ?WriteBlockB@CCodecBuffer@@UAE_NKKEEQAM@Z 1003cb40 f   bitmap:CodecBuffer.obj
 0001:0003bd40       ?WriteBlockA@CCodecBuffer@@UAE_NKKEEQAM@Z 1003cd40 f   bitmap:CodecBuffer.obj
 0001:0003bf40       ?WriteBlockR@CCodecBuffer@@UAE_NKKEEQAN@Z 1003cf40 f   bitmap:CodecBuffer.obj
 0001:0003c120       ?WriteBlockG@CCodecBuffer@@UAE_NKKEEQAN@Z 1003d120 f   bitmap:CodecBuffer.obj
 0001:0003c300       ?WriteBlockB@CCodecBuffer@@UAE_NKKEEQAN@Z 1003d300 f   bitmap:CodecBuffer.obj
 0001:0003c4f0       ?WriteBlockA@CCodecBuffer@@UAE_NKKEEQAN@Z 1003d4f0 f   bitmap:CodecBuffer.obj
 0001:0003c6e0       ?WriteBlockRGBA@CCodecBuffer@@UAE_NKKEEQAK@Z 1003d6e0 f   bitmap:CodecBuffer.obj
 0001:0003c8d0       ?ReadBlockRGBA@CCodecBuffer@@UAE_NKKEEQAK@Z 1003d8d0 f   bitmap:CodecBuffer.obj
 0001:0003cad0       ?WriteBlockRGBA@CCodecBuffer@@UAE_NKKEEQAG@Z 1003dad0 f   bitmap:CodecBuffer.obj
 0001:0003cc60       ?ReadBlockRGBA@CCodecBuffer@@UAE_NKKEEQAG@Z 1003dc60 f   bitmap:CodecBuffer.obj
 0001:0003ce20       ?WriteBlockRGBA@CCodecBuffer@@UAE_NKKEEQAVhalf@@@Z 1003de20 f   bitmap:CodecBuffer.obj
 0001:0003cfb0       ?ReadBlockRGBA@CCodecBuffer@@UAE_NKKEEQAVhalf@@@Z 1003dfb0 f   bitmap:CodecBuffer.obj
 0001:0003d170       ?WriteBlockRGBA@CCodecBuffer@@UAE_NKKEEQAM@Z 1003e170 f   bitmap:CodecBuffer.obj
 0001:0003d300       ?ReadBlockRGBA@CCodecBuffer@@UAE_NKKEEQAM@Z 1003e300 f   bitmap:CodecBuffer.obj
 0001:0003d4c0       ?WriteBlockRGBA@CCodecBuffer@@UAE_NKKEEQAN@Z 1003e4c0 f   bitmap:CodecBuffer.obj
 0001:0003d650       ?ReadBlockRGBA@CCodecBuffer@@UAE_NKKEEQAN@Z 1003e650 f   bitmap:CodecBuffer.obj
 0001:0003d810       ??_ECCodecBuffer@@UAEPAXI@Z 1003e810 f i bitmap:CodecBuffer.obj
 0001:0003d810       ??_GCCodecBuffer@@UAEPAXI@Z 1003e810 f i bitmap:CodecBuffer.obj
 0001:0003d850       ?ComputeWeightedAverageColor@?$CKernelWrapper@$0A@$0A@@@SAXPAUFloatBitmapResampleInfo_t@@HHHPAM@Z 1003e850 f i bitmap:floatbitmap.obj
 0001:0003db00       ?ComputeWeightedAverageColor@?$CKernelWrapper@$00$0A@@@SAXPAUFloatBitmapResampleInfo_t@@HHHPAM@Z 1003eb00 f i bitmap:floatbitmap.obj
 0001:0003dd90       ?AddAlphaToAlphaResult@?$CKernelWrapper@$00$0A@@@SAXPAUFloatBitmapResampleInfo_t@@HHHMPAM@Z 1003ed90 f i bitmap:floatbitmap.obj
 0001:0003df20       ?AdjustAlphaChannel@?$CKernelWrapper@$00$0A@@@SAXPAUFloatBitmapResampleInfo_t@@PAM@Z 1003ef20 f i bitmap:floatbitmap.obj
 0001:0003e490       ?ComputeWeightedAverageColor@?$CKernelWrapper@$0A@$00@@SAXPAUFloatBitmapResampleInfo_t@@HHHPAM@Z 1003f490 f i bitmap:floatbitmap.obj
 0001:0003e710       ?ComputeWeightedAverageColor@?$CKernelWrapper@$00$00@@SAXPAUFloatBitmapResampleInfo_t@@HHHPAM@Z 1003f710 f i bitmap:floatbitmap.obj
 0001:0003e990       ?AddAlphaToAlphaResult@?$CKernelWrapper@$00$00@@SAXPAUFloatBitmapResampleInfo_t@@HHHMPAM@Z 1003f990 f i bitmap:floatbitmap.obj
 0001:0003eb20       ?AdjustAlphaChannel@?$CKernelWrapper@$00$00@@SAXPAUFloatBitmapResampleInfo_t@@PAM@Z 1003fb20 f i bitmap:floatbitmap.obj
 0001:0003f070       ?ApplyKernel@?$CKernelWrapper@$0A@$0A@@@SAXPAUFloatBitmapResampleInfo_t@@HH@Z 10040070 f i bitmap:floatbitmap.obj
 0001:0003f2e0       ?ApplyKernel@?$CKernelWrapper@$00$0A@@@SAXPAUFloatBitmapResampleInfo_t@@HH@Z 100402e0 f i bitmap:floatbitmap.obj
 0001:0003f5c0       ?ApplyKernel@?$CKernelWrapper@$0A@$00@@SAXPAUFloatBitmapResampleInfo_t@@HH@Z 100405c0 f i bitmap:floatbitmap.obj
 0001:0003f830       ?ApplyKernel@?$CKernelWrapper@$00$00@@SAXPAUFloatBitmapResampleInfo_t@@HH@Z 10040830 f i bitmap:floatbitmap.obj
 0001:0003fb10       ??0CCodec_ATI2N_DXT5@@QAE@XZ 10040b10 f   bitmap:Codec_ATI2N_DXT5.obj
 0001:0003fb30       ??1CCodec_ATI2N_DXT5@@UAE@XZ 10040b30 f   bitmap:Codec_ATI2N_DXT5.obj
 0001:0003fb40       ?Compress@CCodec_ATI2N_DXT5@@UAE?AW4_CODECError@@AAVCCodecBuffer@@0P6A_NMKK@ZKK@Z 10040b40 f   bitmap:Codec_ATI2N_DXT5.obj
 0001:0003fdd0       ?Decompress@CCodec_ATI2N_DXT5@@UAE?AW4_CODECError@@AAVCCodecBuffer@@0@Z 10040dd0 f   bitmap:Codec_ATI2N_DXT5.obj
 0001:0003ffc0       ??_ECCodec_ATI2N_DXT5@@UAEPAXI@Z 10040fc0 f i bitmap:Codec_ATI2N_DXT5.obj
 0001:0003ffc0       ??_GCCodec_ATI2N_DXT5@@UAEPAXI@Z 10040fc0 f i bitmap:Codec_ATI2N_DXT5.obj
 0001:00040000       ??0CCodec_ATI2N@@QAE@W4_CodecType@@@Z 10041000 f   bitmap:Codec_ATI2N.obj
 0001:00040020       ??1CCodec_ATI2N@@UAE@XZ    10041020 f   bitmap:Codec_ATI2N.obj
 0001:00040030       ?Compress@CCodec_ATI2N@@UAE?AW4_CODECError@@AAVCCodecBuffer@@0P6A_NMKK@ZKK@Z 10041030 f   bitmap:Codec_ATI2N.obj
 0001:000402a0       ?Decompress@CCodec_ATI2N@@UAE?AW4_CODECError@@AAVCCodecBuffer@@0@Z 100412a0 f   bitmap:Codec_ATI2N.obj
 0001:00040570       ?DeriveBlockB@CCodec_ATI2N@@MAEXQAE00@Z 10041570 f   bitmap:Codec_ATI2N.obj
 0001:000405c0       ?DeriveBlockB@CCodec_ATI2N@@MAEXQAM00@Z 100415c0 f   bitmap:Codec_ATI2N.obj
 0001:00040610       ??_ECCodec_ATI2N@@UAEPAXI@Z 10041610 f i bitmap:Codec_ATI2N.obj
 0001:00040610       ??_GCCodec_ATI2N@@UAEPAXI@Z 10041610 f i bitmap:Codec_ATI2N.obj
 0001:00040640       ??0CCodec_ATI1N@@QAE@W4_CodecType@@@Z 10041640 f   bitmap:Codec_ATI1N.obj
 0001:00040660       ??1CCodec_ATI1N@@UAE@XZ    10041660 f   bitmap:Codec_ATI1N.obj
 0001:00040670       ?CreateBuffer@CCodec_ATI1N@@UBEPAVCCodecBuffer@@KKKPAE@Z 10041670 f   bitmap:Codec_ATI1N.obj
 0001:000406a0       ?Compress@CCodec_ATI1N@@UAE?AW4_CODECError@@AAVCCodecBuffer@@0P6A_NMKK@ZKK@Z 100416a0 f   bitmap:Codec_ATI1N.obj
 0001:00040890       ?Decompress@CCodec_ATI1N@@UAE?AW4_CODECError@@AAVCCodecBuffer@@0@Z 10041890 f   bitmap:Codec_ATI1N.obj
 0001:00040a70       ??_GCCodec_ATI1N@@UAEPAXI@Z 10041a70 f i bitmap:Codec_ATI1N.obj
 0001:00040a70       ??_ECCodec_ATI1N@@UAEPAXI@Z 10041a70 f i bitmap:Codec_ATI1N.obj
 0001:00040aa0       ??0CCodec_DXT5_xGxR@@QAE@XZ 10041aa0 f   bitmap:Codec_DXT5_xGxR.obj
 0001:00040ac0       ??1CCodec_DXT5_xGxR@@UAE@XZ 10041ac0 f   bitmap:Codec_DXT5_xGxR.obj
 0001:00040ad0       ?ReadBlock@CCodec_DXT5_xGxR@@MAEXAAVCCodecBuffer@@KKQAK@Z 10041ad0 f   bitmap:Codec_DXT5_xGxR.obj
 0001:00040b90       ?WriteBlock@CCodec_DXT5_xGxR@@MAEXAAVCCodecBuffer@@KKQAK@Z 10041b90 f   bitmap:Codec_DXT5_xGxR.obj
 0001:00040c50       ?ReadBlock@CCodec_DXT5_xGxR@@MAEXAAVCCodecBuffer@@KKQAM@Z 10041c50 f   bitmap:Codec_DXT5_xGxR.obj
 0001:00040cc0       ?WriteBlock@CCodec_DXT5_xGxR@@MAEXAAVCCodecBuffer@@KKQAM@Z 10041cc0 f   bitmap:Codec_DXT5_xGxR.obj
 0001:00040d40       ??_GCCodec_DXT5_xGxR@@UAEPAXI@Z 10041d40 f i bitmap:Codec_DXT5_xGxR.obj
 0001:00040d40       ??_ECCodec_DXT5_xGxR@@UAEPAXI@Z 10041d40 f i bitmap:Codec_DXT5_xGxR.obj
 0001:00040d70       ??0CCodec_DXT5_RGxB@@QAE@XZ 10041d70 f   bitmap:Codec_DXT5_RGxB.obj
 0001:00040d90       ??1CCodec_DXT5_RGxB@@UAE@XZ 10041d90 f   bitmap:Codec_DXT5_RGxB.obj
 0001:00040da0       ?ReadBlock@CCodec_DXT5_RGxB@@MAEXAAVCCodecBuffer@@KKQAK@Z 10041da0 f   bitmap:Codec_DXT5_RGxB.obj
 0001:00040ea0       ?WriteBlock@CCodec_DXT5_RGxB@@MAEXAAVCCodecBuffer@@KKQAK@Z 10041ea0 f   bitmap:Codec_DXT5_RGxB.obj
 0001:00040f80       ?ReadBlock@CCodec_DXT5_RGxB@@MAEXAAVCCodecBuffer@@KKQAM@Z 10041f80 f   bitmap:Codec_DXT5_RGxB.obj
 0001:00041000       ?WriteBlock@CCodec_DXT5_RGxB@@MAEXAAVCCodecBuffer@@KKQAM@Z 10042000 f   bitmap:Codec_DXT5_RGxB.obj
 0001:00041090       ??_GCCodec_DXT5_RGxB@@UAEPAXI@Z 10042090 f i bitmap:Codec_DXT5_RGxB.obj
 0001:00041090       ??_ECCodec_DXT5_RGxB@@UAEPAXI@Z 10042090 f i bitmap:Codec_DXT5_RGxB.obj
 0001:000410c0       ??0CCodec_DXT5_xRBG@@QAE@XZ 100420c0 f   bitmap:Codec_DXT5_xRBG.obj
 0001:000410e0       ??1CCodec_DXT5_xRBG@@UAE@XZ 100420e0 f   bitmap:Codec_DXT5_xRBG.obj
 0001:000410f0       ?ReadBlock@CCodec_DXT5_xRBG@@MAEXAAVCCodecBuffer@@KKQAK@Z 100420f0 f   bitmap:Codec_DXT5_xRBG.obj
 0001:000411e0       ?WriteBlock@CCodec_DXT5_xRBG@@MAEXAAVCCodecBuffer@@KKQAK@Z 100421e0 f   bitmap:Codec_DXT5_xRBG.obj
 0001:000412c0       ?ReadBlock@CCodec_DXT5_xRBG@@MAEXAAVCCodecBuffer@@KKQAM@Z 100422c0 f   bitmap:Codec_DXT5_xRBG.obj
 0001:00041340       ?WriteBlock@CCodec_DXT5_xRBG@@MAEXAAVCCodecBuffer@@KKQAM@Z 10042340 f   bitmap:Codec_DXT5_xRBG.obj
 0001:000413c0       ?SetParameter@CCodec_DXT5_xRBG@@UAE_NPBDM@Z 100423c0 f   bitmap:Codec_DXT5_xRBG.obj
 0001:00041450       ?GetParameter@CCodec_DXT5_xRBG@@UAE_NPBDAAM@Z 10042450 f   bitmap:Codec_DXT5_xRBG.obj
 0001:000414d0       ??_GCCodec_DXT5_xRBG@@UAEPAXI@Z 100424d0 f i bitmap:Codec_DXT5_xRBG.obj
 0001:000414d0       ??_ECCodec_DXT5_xRBG@@UAEPAXI@Z 100424d0 f i bitmap:Codec_DXT5_xRBG.obj
 0001:00041500       ??0CCodec_DXT5_RBxG@@QAE@XZ 10042500 f   bitmap:Codec_DXT5_RBxG.obj
 0001:00041520       ??1CCodec_DXT5_RBxG@@UAE@XZ 10042520 f   bitmap:Codec_DXT5_RBxG.obj
 0001:00041530       ?ReadBlock@CCodec_DXT5_RBxG@@MAEXAAVCCodecBuffer@@KKQAK@Z 10042530 f   bitmap:Codec_DXT5_RBxG.obj
 0001:00041620       ?WriteBlock@CCodec_DXT5_RBxG@@MAEXAAVCCodecBuffer@@KKQAK@Z 10042620 f   bitmap:Codec_DXT5_RBxG.obj
 0001:00041700       ?ReadBlock@CCodec_DXT5_RBxG@@MAEXAAVCCodecBuffer@@KKQAM@Z 10042700 f   bitmap:Codec_DXT5_RBxG.obj
 0001:00041780       ?WriteBlock@CCodec_DXT5_RBxG@@MAEXAAVCCodecBuffer@@KKQAM@Z 10042780 f   bitmap:Codec_DXT5_RBxG.obj
 0001:00041800       ?SetParameter@CCodec_DXT5_RBxG@@UAE_NPBDM@Z 10042800 f   bitmap:Codec_DXT5_RBxG.obj
 0001:00041890       ?GetParameter@CCodec_DXT5_RBxG@@UAE_NPBDAAM@Z 10042890 f   bitmap:Codec_DXT5_RBxG.obj
 0001:00041910       ??_ECCodec_DXT5_RBxG@@UAEPAXI@Z 10042910 f i bitmap:Codec_DXT5_RBxG.obj
 0001:00041910       ??_GCCodec_DXT5_RBxG@@UAEPAXI@Z 10042910 f i bitmap:Codec_DXT5_RBxG.obj
 0001:00041940       ??0CCodec_DXT5_RxBG@@QAE@XZ 10042940 f   bitmap:Codec_DXT5_RxBG.obj
 0001:00041960       ??1CCodec_DXT5_RxBG@@UAE@XZ 10042960 f   bitmap:Codec_DXT5_RxBG.obj
 0001:00041970       ?ReadBlock@CCodec_DXT5_RxBG@@MAEXAAVCCodecBuffer@@KKQAK@Z 10042970 f   bitmap:Codec_DXT5_RxBG.obj
 0001:00041a50       ?WriteBlock@CCodec_DXT5_RxBG@@MAEXAAVCCodecBuffer@@KKQAK@Z 10042a50 f   bitmap:Codec_DXT5_RxBG.obj
 0001:00041b30       ?ReadBlock@CCodec_DXT5_RxBG@@MAEXAAVCCodecBuffer@@KKQAM@Z 10042b30 f   bitmap:Codec_DXT5_RxBG.obj
 0001:00041bb0       ?WriteBlock@CCodec_DXT5_RxBG@@MAEXAAVCCodecBuffer@@KKQAM@Z 10042bb0 f   bitmap:Codec_DXT5_RxBG.obj
 0001:00041c30       ??_ECCodec_DXT5_RxBG@@UAEPAXI@Z 10042c30 f i bitmap:Codec_DXT5_RxBG.obj
 0001:00041c30       ??_GCCodec_DXT5_RxBG@@UAEPAXI@Z 10042c30 f i bitmap:Codec_DXT5_RxBG.obj
 0001:00041c60       ??0CCodec_DXT5_xGBR@@QAE@XZ 10042c60 f   bitmap:Codec_DXT5_xGBR.obj
 0001:00041c80       ??1CCodec_DXT5_xGBR@@UAE@XZ 10042c80 f   bitmap:Codec_DXT5_xGBR.obj
 0001:00041c90       ?ReadBlock@CCodec_DXT5_xGBR@@MAEXAAVCCodecBuffer@@KKQAK@Z 10042c90 f   bitmap:Codec_DXT5_xGBR.obj
 0001:00041d80       ?WriteBlock@CCodec_DXT5_xGBR@@MAEXAAVCCodecBuffer@@KKQAK@Z 10042d80 f   bitmap:Codec_DXT5_xGBR.obj
 0001:00041e60       ?ReadBlock@CCodec_DXT5_xGBR@@MAEXAAVCCodecBuffer@@KKQAM@Z 10042e60 f   bitmap:Codec_DXT5_xGBR.obj
 0001:00041ee0       ?WriteBlock@CCodec_DXT5_xGBR@@MAEXAAVCCodecBuffer@@KKQAM@Z 10042ee0 f   bitmap:Codec_DXT5_xGBR.obj
 0001:00041f70       ??_GCCodec_DXT5_xGBR@@UAEPAXI@Z 10042f70 f i bitmap:Codec_DXT5_xGBR.obj
 0001:00041f70       ??_ECCodec_DXT5_xGBR@@UAEPAXI@Z 10042f70 f i bitmap:Codec_DXT5_xGBR.obj
 0001:00041fa0       ??0CCodec_DXT5@@QAE@XZ     10042fa0 f   bitmap:Codec_DXT5.obj
 0001:00041fc0       ??1CCodec_DXT5@@UAE@XZ     10042fc0 f   bitmap:Codec_DXT5.obj
 0001:00041fd0       ?Compress@CCodec_DXT5@@UAE?AW4_CODECError@@AAVCCodecBuffer@@0P6A_NMKK@ZKK@Z 10042fd0 f   bitmap:Codec_DXT5.obj
 0001:000421b0       ?Decompress@CCodec_DXT5@@UAE?AW4_CODECError@@AAVCCodecBuffer@@0@Z 100431b0 f   bitmap:Codec_DXT5.obj
 0001:000422f0       ??_GCCodec_DXT5@@UAEPAXI@Z 100432f0 f i bitmap:Codec_DXT5.obj
 0001:000422f0       ??_ECCodec_DXT5@@UAEPAXI@Z 100432f0 f i bitmap:Codec_DXT5.obj
 0001:00042320       ??0CCodec_DXT3@@QAE@XZ     10043320 f   bitmap:Codec_DXT3.obj
 0001:00042340       ??1CCodec_DXT3@@UAE@XZ     10043340 f   bitmap:Codec_DXT3.obj
 0001:00042350       ?Compress@CCodec_DXT3@@UAE?AW4_CODECError@@AAVCCodecBuffer@@0P6A_NMKK@ZKK@Z 10043350 f   bitmap:Codec_DXT3.obj
 0001:00042530       ?Decompress@CCodec_DXT3@@UAE?AW4_CODECError@@AAVCCodecBuffer@@0@Z 10043530 f   bitmap:Codec_DXT3.obj
 0001:00042670       ??_GCCodec_DXT3@@UAEPAXI@Z 10043670 f i bitmap:Codec_DXT3.obj
 0001:00042670       ??_ECCodec_DXT3@@UAEPAXI@Z 10043670 f i bitmap:Codec_DXT3.obj
 0001:000426a0       ??0CCodec_DXT1@@QAE@XZ     100436a0 f   bitmap:Codec_DXT1.obj
 0001:000426c0       ??1CCodec_DXT1@@UAE@XZ     100436c0 f   bitmap:Codec_DXT1.obj
 0001:000426d0       ?CreateBuffer@CCodec_DXT1@@UBEPAVCCodecBuffer@@KKKPAE@Z 100436d0 f   bitmap:Codec_DXT1.obj
 0001:00042700       ?Compress@CCodec_DXT1@@UAE?AW4_CODECError@@AAVCCodecBuffer@@0P6A_NMKK@ZKK@Z 10043700 f   bitmap:Codec_DXT1.obj
 0001:00042920       ?Decompress@CCodec_DXT1@@UAE?AW4_CODECError@@AAVCCodecBuffer@@0@Z 10043920 f   bitmap:Codec_DXT1.obj
 0001:00042a60       ?SetParameter@CCodec_DXT1@@UAE_NPBDK@Z 10043a60 f   bitmap:Codec_DXT1.obj
 0001:00042ac0       ?GetParameter@CCodec_DXT1@@UAE_NPBDAAK@Z 10043ac0 f   bitmap:Codec_DXT1.obj
 0001:00042b30       ??_ECCodec_DXT1@@UAEPAXI@Z 10043b30 f i bitmap:Codec_DXT1.obj
 0001:00042b30       ??_GCCodec_DXT1@@UAEPAXI@Z 10043b30 f i bitmap:Codec_DXT1.obj
 0001:00042b60       ?overflow@half@@CAMXZ      10043b60 f   bitmap:half.obj
 0001:00042b90       ?convert@half@@CAFH@Z      10043b90 f   bitmap:half.obj
 0001:00042c50       ??0CCodecBuffer_Block@@QAE@W4_CodecBufferType@@KKKPAE@Z 10043c50 f   bitmap:CodecBuffer_Block.obj
 0001:00042d70       ??1CCodecBuffer_Block@@UAE@XZ 10043d70 f   bitmap:CodecBuffer_Block.obj
 0001:00042d80       ?ReadBlock@CCodecBuffer_Block@@UAE_NKKPAKK@Z 10043d80 f   bitmap:CodecBuffer_Block.obj
 0001:00042df0       ?WriteBlock@CCodecBuffer_Block@@UAE_NKKPAKK@Z 10043df0 f   bitmap:CodecBuffer_Block.obj
 0001:00042e60       ??_ECCodecBuffer_Block@@UAEPAXI@Z 10043e60 f i bitmap:CodecBuffer_Block.obj
 0001:00042e60       ??_GCCodecBuffer_Block@@UAEPAXI@Z 10043e60 f i bitmap:CodecBuffer_Block.obj
 0001:00042e90       ??0CCodecBuffer_RGBA32F@@QAE@KKKPAE@Z 10043e90 f   bitmap:CodecBuffer_RGBA32F.obj
 0001:00042ef0       ??1CCodecBuffer_RGBA32F@@UAE@XZ 10043ef0 f   bitmap:CodecBuffer_RGBA32F.obj
 0001:00042f00       ?Copy@CCodecBuffer_RGBA32F@@UAEXAAVCCodecBuffer@@@Z 10043f00 f   bitmap:CodecBuffer_RGBA32F.obj
 0001:00042fc0       ?WriteBlock@CCodecBuffer_RGBA32F@@MAE_NKKEEQAMK@Z 10043fc0 f   bitmap:CodecBuffer_RGBA32F.obj
 0001:00043130       ?ReadBlockA@CCodecBuffer_RGBA32F@@UAE_NKKEEQAM@Z 10044130 f   bitmap:CodecBuffer_RGBA32F.obj
 0001:00043160       ?ReadBlockR@CCodecBuffer_RGBA32F@@UAE_NKKEEQAM@Z 10044160 f   bitmap:CodecBuffer_RGBA32F.obj
 0001:00043190       ?ReadBlockG@CCodecBuffer_RGBA32F@@UAE_NKKEEQAM@Z 10044190 f   bitmap:CodecBuffer_RGBA32F.obj
 0001:000431c0       ?ReadBlockB@CCodecBuffer_RGBA32F@@UAE_NKKEEQAM@Z 100441c0 f   bitmap:CodecBuffer_RGBA32F.obj
 0001:000431f0       ?WriteBlockA@CCodecBuffer_RGBA32F@@UAE_NKKEEQAM@Z 100441f0 f   bitmap:CodecBuffer_RGBA32F.obj
 0001:00043220       ?WriteBlockR@CCodecBuffer_RGBA32F@@UAE_NKKEEQAM@Z 10044220 f   bitmap:CodecBuffer_RGBA32F.obj
 0001:00043250       ?WriteBlockG@CCodecBuffer_RGBA32F@@UAE_NKKEEQAM@Z 10044250 f   bitmap:CodecBuffer_RGBA32F.obj
 0001:00043280       ?WriteBlockB@CCodecBuffer_RGBA32F@@UAE_NKKEEQAM@Z 10044280 f   bitmap:CodecBuffer_RGBA32F.obj
 0001:000432b0       ?WriteBlockRGBA@CCodecBuffer_RGBA32F@@UAE_NKKEEQAM@Z 100442b0 f   bitmap:CodecBuffer_RGBA32F.obj
 0001:00043350       ?ReadBlock@CCodecBuffer_RGBA32F@@MAE_NKKEEQAMK@Z 10044350 f   bitmap:CodecBuffer_RGBA32F.obj
 0001:00043570       ?ReadBlockRGBA@CCodecBuffer_RGBA32F@@UAE_NKKEEQAM@Z 10044570 f   bitmap:CodecBuffer_RGBA32F.obj
 0001:000436d0       ?GetBufferType@CCodecBuffer_RGBA32F@@UBE?BW4_CodecBufferType@@XZ 100446d0 f i bitmap:CodecBuffer_RGBA32F.obj
 0001:000436e0       ??$PadBlock@M@@YAXKEEQAM@Z 100446e0 f i bitmap:CodecBuffer_RGBA32F.obj
 0001:000436e0       ??$PadBlock@K@@YAXKEEQAK@Z 100446e0 f i bitmap:CodecBuffer_RGBA2101010.obj
 0001:00043730       ??_ECCodecBuffer_RGBA32F@@UAEPAXI@Z 10044730 f i bitmap:CodecBuffer_RGBA32F.obj
 0001:00043730       ??_GCCodecBuffer_RGBA32F@@UAEPAXI@Z 10044730 f i bitmap:CodecBuffer_RGBA32F.obj
 0001:00043760       ??0CCodecBuffer_RGBA16F@@QAE@KKKPAE@Z 10044760 f   bitmap:CodecBuffer_RGBA16F.obj
 0001:000437c0       ??1CCodecBuffer_RGBA16F@@UAE@XZ 100447c0 f   bitmap:CodecBuffer_RGBA16F.obj
 0001:000437d0       ?WriteBlock@CCodecBuffer_RGBA16F@@MAE_NKKEEQAVhalf@@K@Z 100447d0 f   bitmap:CodecBuffer_RGBA16F.obj
 0001:00043870       ?ReadBlockA@CCodecBuffer_RGBA16F@@UAE_NKKEEQAVhalf@@@Z 10044870 f   bitmap:CodecBuffer_RGBA16F.obj
 0001:000438a0       ?ReadBlockR@CCodecBuffer_RGBA16F@@UAE_NKKEEQAVhalf@@@Z 100448a0 f   bitmap:CodecBuffer_RGBA16F.obj
 0001:000438d0       ?ReadBlockG@CCodecBuffer_RGBA16F@@UAE_NKKEEQAVhalf@@@Z 100448d0 f   bitmap:CodecBuffer_RGBA16F.obj
 0001:00043900       ?ReadBlockB@CCodecBuffer_RGBA16F@@UAE_NKKEEQAVhalf@@@Z 10044900 f   bitmap:CodecBuffer_RGBA16F.obj
 0001:00043930       ?WriteBlockA@CCodecBuffer_RGBA16F@@UAE_NKKEEQAVhalf@@@Z 10044930 f   bitmap:CodecBuffer_RGBA16F.obj
 0001:00043960       ?WriteBlockR@CCodecBuffer_RGBA16F@@UAE_NKKEEQAVhalf@@@Z 10044960 f   bitmap:CodecBuffer_RGBA16F.obj
 0001:00043990       ?WriteBlockG@CCodecBuffer_RGBA16F@@UAE_NKKEEQAVhalf@@@Z 10044990 f   bitmap:CodecBuffer_RGBA16F.obj
 0001:000439c0       ?WriteBlockB@CCodecBuffer_RGBA16F@@UAE_NKKEEQAVhalf@@@Z 100449c0 f   bitmap:CodecBuffer_RGBA16F.obj
 0001:000439f0       ?WriteBlockRGBA@CCodecBuffer_RGBA16F@@UAE_NKKEEQAVhalf@@@Z 100449f0 f   bitmap:CodecBuffer_RGBA16F.obj
 0001:00043a90       ?Copy@CCodecBuffer_RGBA16F@@UAEXAAVCCodecBuffer@@@Z 10044a90 f   bitmap:CodecBuffer_RGBA16F.obj
 0001:00043b70       ?ReadBlock@CCodecBuffer_RGBA16F@@MAE_NKKEEQAVhalf@@K@Z 10044b70 f   bitmap:CodecBuffer_RGBA16F.obj
 0001:00043cb0       ?ReadBlockRGBA@CCodecBuffer_RGBA16F@@UAE_NKKEEQAVhalf@@@Z 10044cb0 f   bitmap:CodecBuffer_RGBA16F.obj
 0001:00043df0       ?GetBlockHeight@CCodec_Block_4x4@@UAEKXZ 10044df0 f i bitmap:Codec_ATI2N_DXT5.obj
 0001:00043df0       ?GetBufferType@CCodecBuffer_RGBA16F@@UBE?BW4_CodecBufferType@@XZ 10044df0 f i bitmap:CodecBuffer_RGBA16F.obj
 0001:00043e00       ??$PadBlock@Vhalf@@@@YAXKEEQAVhalf@@@Z 10044e00 f i bitmap:CodecBuffer_RGBA16F.obj
 0001:00043e00       ??$PadBlock@G@@YAXKEEQAG@Z 10044e00 f i bitmap:CodecBuffer_RGBA16.obj
 0001:00043e50       ??_ECCodecBuffer_RGBA16F@@UAEPAXI@Z 10044e50 f i bitmap:CodecBuffer_RGBA16F.obj
 0001:00043e50       ??_GCCodecBuffer_RGBA16F@@UAEPAXI@Z 10044e50 f i bitmap:CodecBuffer_RGBA16F.obj
 0001:00043e80       ??0CCodecBuffer_RGBA16@@QAE@KKKPAE@Z 10044e80 f   bitmap:CodecBuffer_RGBA16.obj
 0001:00043ee0       ??1CCodecBuffer_RGBA16@@UAE@XZ 10044ee0 f   bitmap:CodecBuffer_RGBA16.obj
 0001:00043ef0       ?Copy@CCodecBuffer_RGBA16@@UAEXAAVCCodecBuffer@@@Z 10044ef0 f   bitmap:CodecBuffer_RGBA16.obj
 0001:00043fd0       ?WriteBlock@CCodecBuffer_RGBA16@@MAE_NKKEEQAGK@Z 10044fd0 f   bitmap:CodecBuffer_RGBA16.obj
 0001:00044070       ?ReadBlockA@CCodecBuffer_RGBA16@@UAE_NKKEEQAG@Z 10045070 f   bitmap:CodecBuffer_RGBA16.obj
 0001:000440a0       ?ReadBlockR@CCodecBuffer_RGBA16@@UAE_NKKEEQAG@Z 100450a0 f   bitmap:CodecBuffer_RGBA16.obj
 0001:000440d0       ?ReadBlockG@CCodecBuffer_RGBA16@@UAE_NKKEEQAG@Z 100450d0 f   bitmap:CodecBuffer_RGBA16.obj
 0001:00044100       ?ReadBlockB@CCodecBuffer_RGBA16@@UAE_NKKEEQAG@Z 10045100 f   bitmap:CodecBuffer_RGBA16.obj
 0001:00044130       ?WriteBlockA@CCodecBuffer_RGBA16@@UAE_NKKEEQAG@Z 10045130 f   bitmap:CodecBuffer_RGBA16.obj
 0001:00044160       ?WriteBlockR@CCodecBuffer_RGBA16@@UAE_NKKEEQAG@Z 10045160 f   bitmap:CodecBuffer_RGBA16.obj
 0001:00044190       ?WriteBlockG@CCodecBuffer_RGBA16@@UAE_NKKEEQAG@Z 10045190 f   bitmap:CodecBuffer_RGBA16.obj
 0001:000441c0       ?WriteBlockB@CCodecBuffer_RGBA16@@UAE_NKKEEQAG@Z 100451c0 f   bitmap:CodecBuffer_RGBA16.obj
 0001:000441f0       ?WriteBlockRGBA@CCodecBuffer_RGBA16@@UAE_NKKEEQAG@Z 100451f0 f   bitmap:CodecBuffer_RGBA16.obj
 0001:00044290       ?ReadBlock@CCodecBuffer_RGBA16@@MAE_NKKEEQAGK@Z 10045290 f   bitmap:CodecBuffer_RGBA16.obj
 0001:000443d0       ?ReadBlockRGBA@CCodecBuffer_RGBA16@@UAE_NKKEEQAG@Z 100453d0 f   bitmap:CodecBuffer_RGBA16.obj
 0001:00044510       ??$PadLine@Vhalf@@@@YAXKEQAVhalf@@@Z 10045510 f i bitmap:CodecBuffer_RGBA16F.obj
 0001:00044510       ??$PadLine@G@@YAXKEQAG@Z   10045510 f i bitmap:CodecBuffer_RGBA16.obj
 0001:00044550       ??_GCCodecBuffer_RGBA16@@UAEPAXI@Z 10045550 f i bitmap:CodecBuffer_RGBA16.obj
 0001:00044550       ??_ECCodecBuffer_RGBA16@@UAEPAXI@Z 10045550 f i bitmap:CodecBuffer_RGBA16.obj
 0001:00044580       ??0CCodecBuffer_RGBA2101010@@QAE@KKKPAE@Z 10045580 f   bitmap:CodecBuffer_RGBA2101010.obj
 0001:000445e0       ??1CCodecBuffer_RGBA2101010@@UAE@XZ 100455e0 f   bitmap:CodecBuffer_RGBA2101010.obj
 0001:000445f0       ?Copy@CCodecBuffer_RGBA2101010@@UAEXAAVCCodecBuffer@@@Z 100455f0 f   bitmap:CodecBuffer_RGBA2101010.obj
 0001:000446b0       ?WriteBlock@CCodecBuffer_RGBA2101010@@MAE_NKKEEQAGKK@Z 100456b0 f   bitmap:CodecBuffer_RGBA2101010.obj
 0001:00044770       ?ReadBlockA@CCodecBuffer_RGBA2101010@@UAE_NKKEEQAG@Z 10045770 f   bitmap:CodecBuffer_RGBA2101010.obj
 0001:000447a0       ?ReadBlockR@CCodecBuffer_RGBA2101010@@UAE_NKKEEQAG@Z 100457a0 f   bitmap:CodecBuffer_RGBA2101010.obj
 0001:000447d0       ?ReadBlockG@CCodecBuffer_RGBA2101010@@UAE_NKKEEQAG@Z 100457d0 f   bitmap:CodecBuffer_RGBA2101010.obj
 0001:00044800       ?ReadBlockB@CCodecBuffer_RGBA2101010@@UAE_NKKEEQAG@Z 10045800 f   bitmap:CodecBuffer_RGBA2101010.obj
 0001:00044830       ?WriteBlockA@CCodecBuffer_RGBA2101010@@UAE_NKKEEQAG@Z 10045830 f   bitmap:CodecBuffer_RGBA2101010.obj
 0001:00044860       ?WriteBlockR@CCodecBuffer_RGBA2101010@@UAE_NKKEEQAG@Z 10045860 f   bitmap:CodecBuffer_RGBA2101010.obj
 0001:00044890       ?WriteBlockG@CCodecBuffer_RGBA2101010@@UAE_NKKEEQAG@Z 10045890 f   bitmap:CodecBuffer_RGBA2101010.obj
 0001:000448c0       ?WriteBlockB@CCodecBuffer_RGBA2101010@@UAE_NKKEEQAG@Z 100458c0 f   bitmap:CodecBuffer_RGBA2101010.obj
 0001:000448f0       ?WriteBlockRGBA@CCodecBuffer_RGBA2101010@@UAE_NKKEEQAK@Z 100458f0 f   bitmap:CodecBuffer_RGBA2101010.obj
 0001:000449b0       ?WriteBlockRGBA@CCodecBuffer_RGBA2101010@@UAE_NKKEEQAG@Z 100459b0 f   bitmap:CodecBuffer_RGBA2101010.obj
 0001:00044ab0       ?ReadBlock@CCodecBuffer_RGBA2101010@@MAE_NKKEEQAGKK@Z 10045ab0 f   bitmap:CodecBuffer_RGBA2101010.obj
 0001:00044c00       ?ReadBlockRGBA@CCodecBuffer_RGBA2101010@@UAE_NKKEEQAK@Z 10045c00 f   bitmap:CodecBuffer_RGBA2101010.obj
 0001:00044d40       ?ReadBlockRGBA@CCodecBuffer_RGBA2101010@@UAE_NKKEEQAG@Z 10045d40 f   bitmap:CodecBuffer_RGBA2101010.obj
 0001:00044f10       ?GetBufferType@CCodecBuffer_RGBA2101010@@UBE?BW4_CodecBufferType@@XZ 10045f10 f i bitmap:CodecBuffer_RGBA2101010.obj
 0001:00044f20       ??$PadLine@M@@YAXKEQAM@Z   10045f20 f i bitmap:CodecBuffer_RGBA32F.obj
 0001:00044f20       ??$PadLine@K@@YAXKEQAK@Z   10045f20 f i bitmap:CodecBuffer_RGBA2101010.obj
 0001:00044f60       ??_GCCodecBuffer_RGBA2101010@@UAEPAXI@Z 10045f60 f i bitmap:CodecBuffer_RGBA2101010.obj
 0001:00044f60       ??_ECCodecBuffer_RGBA2101010@@UAEPAXI@Z 10045f60 f i bitmap:CodecBuffer_RGBA2101010.obj
 0001:00044f90       ??0CCodecBuffer_RGBA8888@@QAE@KKKPAE@Z 10045f90 f   bitmap:CodecBuffer_RGBA8888.obj
 0001:00044ff0       ??1CCodecBuffer_RGBA8888@@UAE@XZ 10045ff0 f   bitmap:CodecBuffer_RGBA8888.obj
 0001:00045000       ?Copy@CCodecBuffer_RGBA8888@@UAEXAAVCCodecBuffer@@@Z 10046000 f   bitmap:CodecBuffer_RGBA8888.obj
 0001:000450c0       ?WriteBlock@CCodecBuffer_RGBA8888@@MAE_NKKEEQAEK@Z 100460c0 f   bitmap:CodecBuffer_RGBA8888.obj
 0001:00045180       ?ReadBlockA@CCodecBuffer_RGBA8888@@UAE_NKKEEQAE@Z 10046180 f   bitmap:CodecBuffer_RGBA8888.obj
 0001:000451b0       ?ReadBlockR@CCodecBuffer_RGBA8888@@UAE_NKKEEQAE@Z 100461b0 f   bitmap:CodecBuffer_RGBA8888.obj
 0001:000451e0       ?ReadBlockG@CCodecBuffer_RGBA8888@@UAE_NKKEEQAE@Z 100461e0 f   bitmap:CodecBuffer_RGBA8888.obj
 0001:00045210       ?ReadBlockB@CCodecBuffer_RGBA8888@@UAE_NKKEEQAE@Z 10046210 f   bitmap:CodecBuffer_RGBA8888.obj
 0001:00045240       ?WriteBlockA@CCodecBuffer_RGBA8888@@UAE_NKKEEQAE@Z 10046240 f   bitmap:CodecBuffer_RGBA8888.obj
 0001:00045270       ?WriteBlockR@CCodecBuffer_RGBA8888@@UAE_NKKEEQAE@Z 10046270 f   bitmap:CodecBuffer_RGBA8888.obj
 0001:000452a0       ?WriteBlockG@CCodecBuffer_RGBA8888@@UAE_NKKEEQAE@Z 100462a0 f   bitmap:CodecBuffer_RGBA8888.obj
 0001:000452d0       ?WriteBlockB@CCodecBuffer_RGBA8888@@UAE_NKKEEQAE@Z 100462d0 f   bitmap:CodecBuffer_RGBA8888.obj
 0001:00045300       ?WriteBlockRGBA@CCodecBuffer_RGBA8888@@UAE_NKKEEQAK@Z 10046300 f   bitmap:CodecBuffer_RGBA8888.obj
 0001:000453c0       ?ReadBlock@CCodecBuffer_RGBA8888@@MAE_NKKEEQAEK@Z 100463c0 f   bitmap:CodecBuffer_RGBA8888.obj
 0001:00045510       ?ReadBlockRGBA@CCodecBuffer_RGBA8888@@UAE_NKKEEQAK@Z 10046510 f   bitmap:CodecBuffer_RGBA8888.obj
 0001:00045650       ?GetBlockHeight@CCodec@ATI_Compress@@UAEKXZ 10046650 f i bitmap:Codec.obj
 0001:00045650       ?GetBufferType@CCodecBuffer_RGBA8888@@UBE?BW4_CodecBufferType@@XZ 10046650 f i bitmap:CodecBuffer_RGBA8888.obj
 0001:00045660       ??$PadLine@E@@YAXKEQAE@Z   10046660 f i bitmap:CodecBuffer_RGBA8888.obj
 0001:000456a0       ??$PadBlock@E@@YAXKEEQAE@Z 100466a0 f i bitmap:CodecBuffer_RGBA8888.obj
 0001:000456f0       ??_ECCodecBuffer_RGBA8888@@UAEPAXI@Z 100466f0 f i bitmap:CodecBuffer_RGBA8888.obj
 0001:000456f0       ??_GCCodecBuffer_RGBA8888@@UAEPAXI@Z 100466f0 f i bitmap:CodecBuffer_RGBA8888.obj
 0001:00045720       ?GetChar@CUtlBuffer@@QAEDXZ 10046720 f i bitmap:psd.obj
 0001:00045750       ??0CCodec_DXTC@@QAE@W4_CodecType@@@Z 10046750 f   bitmap:Codec_DXTC.obj
 0001:000457f0       ??1CCodec_DXTC@@UAE@XZ     100467f0 f   bitmap:Codec_DXTC.obj
 0001:00045800       ?SetParameter@CCodec_DXTC@@UAE_NPBDK@Z 10046800 f   bitmap:Codec_DXTC.obj
 0001:00045900       ?GetParameter@CCodec_DXTC@@UAE_NPBDAAK@Z 10046900 f   bitmap:Codec_DXTC.obj
 0001:000459f0       ?SetParameter@CCodec_DXTC@@UAE_NPBDM@Z 100469f0 f   bitmap:Codec_DXTC.obj
 0001:00045aa0       ?GetParameter@CCodec_DXTC@@UAE_NPBDAAM@Z 10046aa0 f   bitmap:Codec_DXTC.obj
 0001:00045b50       ??_ECCodec_DXTC@@UAEPAXI@Z 10046b50 f i bitmap:Codec_DXTC.obj
 0001:00045b50       ??_GCCodec_DXTC@@UAEPAXI@Z 10046b50 f i bitmap:Codec_DXTC.obj
 0001:00045b80       ??0CCodec_Block_4x4@@QAE@W4_CodecType@@@Z 10046b80 f   bitmap:Codec_Block_4x4.obj
 0001:00045ba0       ??1CCodec_Block_4x4@@UAE@XZ 10046ba0 f   bitmap:Codec_Block_4x4.obj
 0001:00045bb0       ?CreateBuffer@CCodec_Block_4x4@@UBEPAVCCodecBuffer@@KKKPAE@Z 10046bb0 f   bitmap:Codec_Block_4x4.obj
 0001:00045be0       ??_ECCodec_Block_4x4@@UAEPAXI@Z 10046be0 f i bitmap:Codec_Block_4x4.obj
 0001:00045be0       ??_GCCodec_Block_4x4@@UAEPAXI@Z 10046be0 f i bitmap:Codec_Block_4x4.obj
 0001:00045c10       ?EncodeAlphaBlock@CCodec_DXTC@@IAEXQAKQAE1@Z 10046c10 f   bitmap:Codec_DXTC_Alpha.obj
 0001:00045d70       ?CompressExplicitAlphaBlock@CCodec_DXTC@@MAE?AW4_CODECError@@QAEQAK@Z 10046d70 f   bitmap:Codec_DXTC_Alpha.obj
 0001:00045f00       ?CompressExplicitAlphaBlock@CCodec_DXTC@@MAE?AW4_CODECError@@QAMQAK@Z 10046f00 f   bitmap:Codec_DXTC_Alpha.obj
 0001:00045fa0       ?DecompressExplicitAlphaBlock@CCodec_DXTC@@MAEXQAEQAK@Z 10046fa0 f   bitmap:Codec_DXTC_Alpha.obj
 0001:00045fe0       ?DecompressExplicitAlphaBlock@CCodec_DXTC@@MAEXQAMQAK@Z 10046fe0 f   bitmap:Codec_DXTC_Alpha.obj
 0001:000461b0       ?GetCompressedAlphaRamp@CCodec_DXTC@@IAEXQAEQAK@Z 100471b0 f   bitmap:Codec_DXTC_Alpha.obj
 0001:00046320       ?GetCompressedAlphaRamp@CCodec_DXTC@@IAEXQAMQAK@Z 10047320 f   bitmap:Codec_DXTC_Alpha.obj
 0001:00046440       ?CompressAlphaBlock@CCodec_DXTC@@MAE?AW4_CODECError@@QAEQAK@Z 10047440 f   bitmap:Codec_DXTC_Alpha.obj
 0001:00046510       ?CompressAlphaBlock@CCodec_DXTC@@MAE?AW4_CODECError@@QAMQAK@Z 10047510 f   bitmap:Codec_DXTC_Alpha.obj
 0001:000465e0       ?DecompressAlphaBlock@CCodec_DXTC@@MAEXQAEQAK@Z 100475e0 f   bitmap:Codec_DXTC_Alpha.obj
 0001:00046780       ?DecompressAlphaBlock@CCodec_DXTC@@MAEXQAMQAK@Z 10047780 f   bitmap:Codec_DXTC_Alpha.obj
 0001:00046a20       ?CompressRGBABlock@CCodec_DXTC@@MAE?AW4_CODECError@@QAK0PAM@Z 10047a20 f   bitmap:Codec_DXTC_RGBA.obj
 0001:00046a90       ?DecompressRGBABlock@CCodec_DXTC@@MAEXQAK0@Z 10047a90 f   bitmap:Codec_DXTC_RGBA.obj
 0001:00046b50       ?CompressRGBABlock_ExplicitAlpha@CCodec_DXTC@@MAE?AW4_CODECError@@QAK0PAM@Z 10047b50 f   bitmap:Codec_DXTC_RGBA.obj
 0001:00046bc0       ?DecompressRGBABlock_ExplicitAlpha@CCodec_DXTC@@MAEXQAK0@Z 10047bc0 f   bitmap:Codec_DXTC_RGBA.obj
 0001:00046c80       ?CompressRGBBlock@CCodec_DXTC@@MAE?AW4_CODECError@@QAK0PAM_N2E@Z 10047c80 f   bitmap:Codec_DXTC_RGBA.obj
 0001:00046f40       ?CompressRGBABlock@CCodec_DXTC@@MAE?AW4_CODECError@@QAMQAKPAM@Z 10047f40 f   bitmap:Codec_DXTC_RGBA.obj
 0001:00046fe0       ?CompressRGBABlock_ExplicitAlpha@CCodec_DXTC@@MAE?AW4_CODECError@@QAMQAKPAM@Z 10047fe0 f   bitmap:Codec_DXTC_RGBA.obj
 0001:00047080       ?CompressRGBBlock@CCodec_DXTC@@MAE?AW4_CODECError@@QAMQAKPAM_N3M@Z 10048080 f   bitmap:Codec_DXTC_RGBA.obj
 0001:00047340       ?DecompressRGBABlock@CCodec_DXTC@@MAEXQAMQAK@Z 10048340 f   bitmap:Codec_DXTC_RGBA.obj
 0001:000473c0       ?DecompressRGBABlock_ExplicitAlpha@CCodec_DXTC@@MAEXQAMQAK@Z 100483c0 f   bitmap:Codec_DXTC_RGBA.obj
 0001:00047440       ?DecompressRGBBlock@CCodec_DXTC@@MAEXQAK0_N@Z 10048440 f   bitmap:Codec_DXTC_RGBA.obj
 0001:00047680       ?DecompressRGBBlock@CCodec_DXTC@@MAEXQAMQAK_N@Z 10048680 f   bitmap:Codec_DXTC_RGBA.obj
 0001:000479f0       ?CalculateColourWeightings@CCodec_DXTC@@IAEPAMQAK@Z 100489f0 f   bitmap:Codec_DXTC_RGBA.obj
 0001:00047dd0       ?CalculateColourWeightings@CCodec_DXTC@@IAEPAMQAM@Z 10048dd0 f   bitmap:Codec_DXTC_RGBA.obj
 0001:00048100       ??0CCodec_DXT5_Swizzled@@QAE@W4_CodecType@@@Z 10049100 f   bitmap:Codec_DXT5_Swizzled.obj
 0001:00048120       ??1CCodec_DXT5_Swizzled@@UAE@XZ 10049120 f   bitmap:Codec_DXT5_Swizzled.obj
 0001:00048130       ?Compress@CCodec_DXT5_Swizzled@@UAE?AW4_CODECError@@AAVCCodecBuffer@@0P6A_NMKK@ZKK@Z 10049130 f   bitmap:Codec_DXT5_Swizzled.obj
 0001:00048300       ?Decompress@CCodec_DXT5_Swizzled@@UAE?AW4_CODECError@@AAVCCodecBuffer@@0@Z 10049300 f   bitmap:Codec_DXT5_Swizzled.obj
 0001:00048440       ??_GCCodec_DXT5_Swizzled@@UAEPAXI@Z 10049440 f i bitmap:Codec_DXT5_Swizzled.obj
 0001:00048440       ??_ECCodec_DXT5_Swizzled@@UAEPAXI@Z 10049440 f i bitmap:Codec_DXT5_Swizzled.obj
 0001:00048470       ??0CCodec_Block@@QAE@W4_CodecType@@@Z 10049470 f   bitmap:Codec_Block.obj
 0001:00048490       ??1CCodec_Block@@UAE@XZ    10049490 f   bitmap:Codec_Block.obj
 0001:000484a0       ??_ECCodec_Block@@UAEPAXI@Z 100494a0 f i bitmap:Codec_Block.obj
 0001:000484a0       ??_GCCodec_Block@@UAEPAXI@Z 100494a0 f i bitmap:Codec_Block.obj
 0001:000484d0       ?ConstructColor@@YAKEEEEEE@Z 100494d0 f   bitmap:ATiXCodec.obj
 0001:00049f70       ?CompBlock1X@@YAMPAMGQAEPAEE_N3HH3@Z 1004af70 f   bitmap:ATiXCodec.obj
 0001:0004a050       ?CompBlock1X@@YAMPAEGQAE0E_N2HH2@Z 1004b050 f   bitmap:ATiXCodec.obj
 0001:0004a3c0       ?Clstr@@YAMQAKGQAY01EPAEEPAM_NEEEE@Z 1004b3c0 f   bitmap:ATiXCodec.obj
 0001:0004a780       ?Clstr@@YAMQAMGQAY01EPAEEPAM_NMEEE@Z 1004b780 f   bitmap:ATiXCodec.obj
 0001:0004ed80       ?CompressRGBBlockXSSE2@@YAXQAY01MQAY03MQAMHE_NEPAMEEE@Z 1004fd80 f   bitmap:ATiXCodec.obj
 0001:0004ff40       ?CompRGBBlock@@YAMPAMGEEEQAY01EPAEE_N3E03M@Z 10050f40 f   bitmap:ATiXCodec.obj
 0001:000504c0       ?CompRGBBlock@@YAMPAKGEEEQAY01EPAEE_N3EPAM3E@Z 100514c0 f   bitmap:ATiXCodec.obj
 0001:00050800       ?MkWkRmpPts@@YAXPA_NQAY01M1EEE@Z 10051800 f i bitmap:ATiXCodec.obj
 0001:00050960       ?BldClrRmp@@YAXQAM0E@Z     10051960 f i bitmap:ATiXCodec.obj
 0001:00050a40       ?ReconnectInterface@@YAXP6APAXPBDPAH@Z0PAPAX@Z 10051a40 f   interfaces:interfaces.obj
 0001:00050ab0       ?ConnectInterfaces@@YAXPAP6APAXPBDPAH@ZH@Z 10051ab0 f   interfaces:interfaces.obj
 0001:00050bb0       ?DisconnectInterfaces@@YAXXZ 10051bb0 f   interfaces:interfaces.obj
 0001:00050bf0       ?ReconnectInterface@@YAXP6APAXPBDPAH@Z0@Z 10051bf0 f   interfaces:interfaces.obj
 0001:00050c60       ?VectorNormalize@@YAMAAVVector@@@Z 10051c60 f   mathlib:mathlib_base.obj
 0001:00050cd0       ?_VectorNormalizeFast@@YIXAAVVector@@@Z 10051cd0 f   mathlib:mathlib_base.obj
 0001:00050d2e       ?Start@CThread@@UAE_NI@Z   10051d2e f   tier0:tier0.dll
 0001:00050d34       ?Init@CThread@@MAE_NXZ     10051d34 f   tier0:tier0.dll
 0001:00050d3a       ?OnExit@CThread@@MAEXXZ    10051d3a f   tier0:tier0.dll
 0001:00050d40       ?WaitForCreateComplete@CThread@@MAE_NPAVCThreadEvent@@@Z 10051d40 f   tier0:tier0.dll
 0001:00050d50       ?_V_strlen@@YAHPBD@Z       10051d50 f   tier1:strtools.obj
 0001:00050d80       ?_V_wcslen@@YAHPB_W@Z      10051d80 f   tier1:strtools.obj
 0001:00050da0       ?_V_strcmp@@YAHPBD0@Z      10051da0 f   tier1:strtools.obj
 0001:00050e00       ?_V_wcscmp@@YAHPB_W0@Z     10051e00 f   tier1:strtools.obj
 0001:00050e30       ?_V_stricmp@@YAHPBD0@Z     10051e30 f   tier1:strtools.obj
 0001:00050eb0       ?_V_strstr@@YAPADPBD0@Z    10051eb0 f   tier1:strtools.obj
 0001:00050ee0       ?_V_strlower@@YAPADPAD@Z   10051ee0 f   tier1:strtools.obj
 0001:00050f00       ?V_strncmp@@YAHPBD0H@Z     10051f00 f   tier1:strtools.obj
 0001:00050f60       ?V_strncasecmp@@YAHPBD0H@Z 10051f60 f   tier1:strtools.obj
 0001:00050fe0       ?V_strnicmp@@YAHPBD0H@Z    10051fe0 f   tier1:strtools.obj
 0001:00051020       ?V_atoi64@@YA_JPBD@Z       10052020 f   tier1:strtools.obj
 0001:000511d0       ?V_atoi@@YAHPBD@Z          100521d0 f   tier1:strtools.obj
 0001:000511e0       ?V_stristr@@YAPBDPBD0@Z    100521e0 f   tier1:strtools.obj
 0001:000512c0       ?V_stristr@@YAPADPADPBD@Z  100522c0 f   tier1:strtools.obj
 0001:000512f0       ?V_strnchr@@YAPBDPBDDH@Z   100522f0 f   tier1:strtools.obj
 0001:00051320       ?V_strncat@@YAPADPADPBDIH@Z 10052320 f   tier1:strtools.obj
 0001:000513b0       ?V_StripTrailingSlash@@YAXPAD@Z 100523b0 f   tier1:strtools.obj
 0001:00051400       ?V_FixSlashes@@YAXPADD@Z   10052400 f   tier1:strtools.obj
 0001:00051430       ?V_UnqualifiedFileName@@YAPBDPBD@Z 10052430 f   tier1:strtools.obj
 0001:00051470       ?V_ExtractFilePath@@YA_NPBDPADH@Z 10052470 f   tier1:strtools.obj
 0001:000514f0       ?V_GetFileExtension@@YAPBDPBD@Z 100524f0 f   tier1:strtools.obj
 0001:00051540       ?V_RemoveDotSlashes@@YA_NPADD@Z 10052540 f   tier1:strtools.obj
 0001:000516a0       ?V_AppendSlash@@YAXPADH@Z  100526a0 f   tier1:strtools.obj
 0001:00051710       ?V_IsAbsolutePath@@YA_NPBD@Z 10052710 f   tier1:strtools.obj
 0001:00051780       ??$_Pow_int@N@@YANNH@Z     10052780 f i tier1:strtools.obj
 0001:000517e0       ?_V_memset@@YAXPAXHH@Z     100527e0 f   tier1:strtools.obj
 0001:00051810       ?_V_memcpy@@YAXPAXPBXH@Z   10052810 f   tier1:strtools.obj
 0001:00051840       ?_V_memmove@@YAXPAXPBXH@Z  10052840 f   tier1:strtools.obj
 0001:00051870       ?_V_strcpy@@YAXPADPBD@Z    10052870 f   tier1:strtools.obj
 0001:000518b0       ?V_atof@@YAMPBD@Z          100528b0 f   tier1:strtools.obj
 0001:00051ab0       ?V_strncpy@@YAXPADPBDH@Z   10052ab0 f   tier1:strtools.obj
 0001:00051af0       ?V_snprintf@@YAHPADHPBDZZ  10052af0 f   tier1:strtools.obj
 0001:00051b40       ?V_vsnprintf@@YAHPADHPBD0@Z 10052b40 f   tier1:strtools.obj
 0001:00051b90       ?V_pretifymem@@YAPADMH_N@Z 10052b90 f   tier1:strtools.obj
 0001:00051d40       ?V_UTF8ToUnicode@@YAHPBDPA_WH@Z 10052d40 f   tier1:strtools.obj
 0001:00051da0       ?V_UnicodeToUTF8@@YAHPB_WPADH@Z 10052da0 f   tier1:strtools.obj
 0001:00051df0       ?V_FileBase@@YAXPBDPADH@Z  10052df0 f   tier1:strtools.obj
 0001:00051ec0       ?V_StripExtension@@YAXPBDPADH@Z 10052ec0 f   tier1:strtools.obj
 0001:00051f80       ?V_DefaultExtension@@YAXPADPBDH@Z 10052f80 f   tier1:strtools.obj
 0001:00052090       ?V_SetExtension@@YAXPADPBDH@Z 10053090 f   tier1:strtools.obj
 0001:000520c0       ?V_ExtractFileExtension@@YAXPBDPADH@Z 100530c0 f   tier1:strtools.obj
 0001:00052110       ?V_MakeAbsolutePath@@YAXPADHPBD1@Z 10053110 f   tier1:strtools.obj
 0001:00052230       ?V_StrSubst@@YA_NPBD00PADH_N@Z 10053230 f   tier1:strtools.obj
 0001:00052350       ?ReportError@CKeyValuesErrorStack@@QAEXPBD@Z 10053350 f i tier1:KeyValues.obj
 0001:000523e0       ?RemoveEverything@KeyValues@@AAEXXZ 100533e0 f   tier1:KeyValues.obj
 0001:00052470       ?GetName@KeyValues@@QBEPBDXZ 10053470 f   tier1:KeyValues.obj
 0001:000524a0       ?GetNameSymbol@KeyValues@@QBEHXZ 100534a0 f   tier1:KeyValues.obj
 0001:000524b0       ?ReadToken@KeyValues@@AAEPBDAAVCUtlBuffer@@AA_N1@Z 100534b0 f   tier1:KeyValues.obj
 0001:00052650       ?InternalWrite@KeyValues@@AAEXPAVIBaseFileSystem@@PAXPAVCUtlBuffer@@PBXH@Z 10053650 f   tier1:KeyValues.obj
 0001:00052690       ?FindKey@KeyValues@@QBEPAV1@H@Z 10053690 f   tier1:KeyValues.obj
 0001:000526c0       ?RemoveSubKey@KeyValues@@QAEXPAV1@@Z 100536c0 f   tier1:KeyValues.obj
 0001:00052710       ?SwapSubKey@KeyValues@@QAEXPAV1@0@Z 10053710 f   tier1:KeyValues.obj
 0001:00052770       ?GetFirstSubKey@KeyValues@@QAEPAV1@XZ 10053770 f   tier1:KeyValues.obj
 0001:00052780       ?GetNextKey@KeyValues@@QAEPAV1@XZ 10053780 f   tier1:KeyValues.obj
 0001:00052790       ?SetStringValue@KeyValues@@QAEXPBD@Z 10053790 f   tier1:KeyValues.obj
 0001:000527f0       ?SetName@KeyValues@@QAEXPBD@Z 100537f0 f   tier1:KeyValues.obj
 0001:00052840       ?CopySubkeys@KeyValues@@QBEXPAV1@@Z 10053840 f   tier1:KeyValues.obj
 0001:00052880       ?EvaluateConditional@KeyValues@@AAE_NPBDP6A_N0@Z@Z 10053880 f   tier1:KeyValues.obj
 0001:000528c0       ??2KeyValues@@SAPAXI@Z     100538c0 f   tier1:KeyValues.obj
 0001:000528e0       ??0KeyValues@@QAE@PBD@Z    100538e0 f   tier1:KeyValues.obj
 0001:00052950       ?WriteIndents@KeyValues@@AAEXPAVIBaseFileSystem@@PAXPAVCUtlBuffer@@H@Z 10053950 f   tier1:KeyValues.obj
 0001:000529b0       ?WriteConvertedString@KeyValues@@AAEXPAVIBaseFileSystem@@PAXPAVCUtlBuffer@@PBD@Z 100539b0 f   tier1:KeyValues.obj
 0001:00052a50       ?RecursiveSaveToFile@KeyValues@@AAEXPAVIBaseFileSystem@@PAXPAVCUtlBuffer@@H@Z 10053a50 f   tier1:KeyValues.obj
 0001:000530f0       ?FindKey@KeyValues@@QAEPAV1@PBD_N@Z 100540f0 f   tier1:KeyValues.obj
 0001:00053240       ?AddSubKey@KeyValues@@QAEXPAV1@@Z 10054240 f   tier1:KeyValues.obj
 0001:00053270       ?InsertSubKey@KeyValues@@QAEXHPAV1@@Z 10054270 f   tier1:KeyValues.obj
 0001:000532c0       ?GetInt@KeyValues@@QAEHPBDH@Z 100542c0 f   tier1:KeyValues.obj
 0001:00053340       ?GetUint64@KeyValues@@QAE_KPBD_K@Z 10054340 f   tier1:KeyValues.obj
 0001:00053400       ?GetPtr@KeyValues@@QAEPAXPBDPAX@Z 10054400 f   tier1:KeyValues.obj
 0001:00053430       ?GetFloat@KeyValues@@QAEMPBDM@Z 10054430 f   tier1:KeyValues.obj
 0001:00053500       ?GetColor@KeyValues@@QAE?AVColor@@PBDABV2@@Z 10054500 f   tier1:KeyValues.obj
 0001:000535d0       ?SetColor@KeyValues@@QAEXPBDVColor@@@Z 100545d0 f   tier1:KeyValues.obj
 0001:00053600       ?SetString@KeyValues@@QAEXPBD0@Z 10054600 f   tier1:KeyValues.obj
 0001:00053620       ?SetWString@KeyValues@@QAEXPBDPB_W@Z 10054620 f   tier1:KeyValues.obj
 0001:000536b0       ?SetInt@KeyValues@@QAEXPBDH@Z 100546b0 f   tier1:KeyValues.obj
 0001:000536d0       ?SetUint64@KeyValues@@QAEXPBD_K@Z 100546d0 f   tier1:KeyValues.obj
 0001:00053720       ?SetFloat@KeyValues@@QAEXPBDM@Z 10054720 f   tier1:KeyValues.obj
 0001:00053750       ?SetPtr@KeyValues@@QAEXPBDPAX@Z 10054750 f   tier1:KeyValues.obj
 0001:00053770       ?MakeCopy@KeyValues@@QBEPAV1@XZ 10054770 f   tier1:KeyValues.obj
 0001:00053930       ?IsEmpty@KeyValues@@QAE_NPBD@Z 10054930 f   tier1:KeyValues.obj
 0001:00053960       ?Clear@KeyValues@@QAEXXZ   10054960 f   tier1:KeyValues.obj
 0001:00053990       ?GetDataType@KeyValues@@QAE?AW4types_t@1@PBD@Z 10054990 f   tier1:KeyValues.obj
 0001:000539b0       ?deleteThis@KeyValues@@QAEXXZ 100549b0 f   tier1:KeyValues.obj
 0001:000539d0       ?RecursiveMergeKeyValues@KeyValues@@AAEXPAV1@@Z 100549d0 f   tier1:KeyValues.obj
 0001:00053aa0       ?ProcessResolutionKeys@KeyValues@@QAE_NPBD@Z 10054aa0 f   tier1:KeyValues.obj
 0001:00053bc0       ??0KeyValues@@QAE@PBD00@Z  10054bc0 f   tier1:KeyValues.obj
 0001:00053c50       ??0KeyValues@@QAE@PBD0PB_W@Z 10054c50 f   tier1:KeyValues.obj
 0001:00053cd0       ??0KeyValues@@QAE@PBD0H@Z  10054cd0 f   tier1:KeyValues.obj
 0001:00053d60       ??0KeyValues@@QAE@PBD0000@Z 10054d60 f   tier1:KeyValues.obj
 0001:00053e10       ??0KeyValues@@QAE@PBD0H0H@Z 10054e10 f   tier1:KeyValues.obj
 0001:00053ec0       ?RecursiveSaveToFile@KeyValues@@QAEXAAVCUtlBuffer@@H@Z 10054ec0 f   tier1:KeyValues.obj
 0001:00053ee0       ?SaveToFile@KeyValues@@QAE_NPAVIBaseFileSystem@@PBD1@Z 10054ee0 f   tier1:KeyValues.obj
 0001:00053f60       ?CreateKey@KeyValues@@AAEPAV1@PBD@Z 10054f60 f   tier1:KeyValues.obj
 0001:00053fc0       ?ElideSubKey@KeyValues@@QAEXPAV1@@Z 10054fc0 f   tier1:KeyValues.obj
 0001:00054030       ?GetString@KeyValues@@QAEPBDPBD0@Z 10055030 f   tier1:KeyValues.obj
 0001:00054190       ?GetWString@KeyValues@@QAEPB_WPBDPB_W@Z 10055190 f   tier1:KeyValues.obj
 0001:00054310       ?AppendIncludedKeys@KeyValues@@AAEXAAV?$CUtlVector@PAVKeyValues@@V?$CUtlMemory@PAVKeyValues@@H@@@@@Z 10055310 f   tier1:KeyValues.obj
 0001:00054350       ?RecursiveLoadFromBuffer@KeyValues@@AAEXPBDAAVCUtlBuffer@@P6A_N0@Z@Z 10055350 f   tier1:KeyValues.obj
 0001:000546e0       ?LoadFromFile@KeyValues@@QAE_NPAVIBaseFileSystem@@PBD1P6A_N1@Z@Z 100556e0 f   tier1:KeyValues.obj
 0001:00054840       ?ParseIncludedKeys@KeyValues@@AAEXPBD0PAVIBaseFileSystem@@0AAV?$CUtlVector@PAVKeyValues@@V?$CUtlMemory@PAVKeyValues@@H@@@@P6A_N0@Z@Z 10055840 f   tier1:KeyValues.obj
 0001:00054970       ?LoadFromBuffer@KeyValues@@QAE_NPBDAAVCUtlBuffer@@PAVIBaseFileSystem@@0P6A_N0@Z@Z 10055970 f   tier1:KeyValues.obj
 0001:00054df0       ?GetCStringCharConversion@@YAPAVCUtlCharConversion@@XZ 10055df0 f   tier1:utlbuffer.obj
 0001:00054e00       ?GetNoEscCharConversion@@YAPAVCUtlCharConversion@@XZ 10055e00 f   tier1:utlbuffer.obj
 0001:00054e10       ?FindConversion@CUtlCStringConversion@@UAEDPBDPAH@Z 10055e10 f   tier1:utlbuffer.obj
 0001:00054e30       ??0CUtlCharConversion@@QAE@DPBDHPAUConversionArray_t@0@@Z 10055e30 f   tier1:utlbuffer.obj
 0001:00054ec0       ?FindConversion@CUtlCharConversion@@UAEDPBDPAH@Z 10055ec0 f   tier1:utlbuffer.obj
 0001:00054f20       ?FindConversion@CUtlNoEscConversion@@UAEDPBDPAH@Z 10055f20 f i tier1:utlbuffer.obj
 0001:00054f30       ?CheckGet@CUtlBuffer@@IAE_NH@Z 10055f30 f   tier1:utlbuffer.obj
 0001:00054f90       ?CheckArbitraryPeekGet@CUtlBuffer@@IAE_NHAAH@Z 10055f90 f   tier1:utlbuffer.obj
 0001:00055000       ?PeekGet@CUtlBuffer@@QAEPBXHH@Z 10056000 f   tier1:utlbuffer.obj
 0001:00055040       ?SeekGet@CUtlBuffer@@QAEXW4SeekType_t@1@H@Z 10056040 f   tier1:utlbuffer.obj
 0001:000550a0       ?CheckPut@CUtlBuffer@@IAE_NH@Z 100560a0 f   tier1:utlbuffer.obj
 0001:000550f0       ?AddNullTermination@CUtlBuffer@@IAEXXZ 100560f0 f   tier1:utlbuffer.obj
 0001:00055140       ?ConvertToGrowableMemory@?$CUtlMemory@EH@@QAEXH@Z 10056140 f i tier1:utlbuffer.obj
 0001:00055190       ?Get@CUtlBuffer@@QAEXPAXH@Z 10056190 f   tier1:utlbuffer.obj
 0001:000551d0       ?EatWhiteSpace@CUtlBuffer@@QAEXXZ 100561d0 f   tier1:utlbuffer.obj
 0001:00055240       ?PeekWhiteSpace@CUtlBuffer@@IAEHH@Z 10056240 f   tier1:utlbuffer.obj
 0001:000552e0       ?PeekStringLength@CUtlBuffer@@QAEHXZ 100562e0 f   tier1:utlbuffer.obj
 0001:00055430       ?PeekStringMatch@CUtlBuffer@@IAE_NHPBDH@Z 10056430 f   tier1:utlbuffer.obj
 0001:00055490       ?Put@CUtlBuffer@@QAEXPBXH@Z 10056490 f   tier1:utlbuffer.obj
 0001:00055500       ?PutOverflow@CUtlBuffer@@IAE_NH@Z 10056500 f   tier1:utlbuffer.obj
 0001:00055550       ??0CUtlBuffer@@QAE@HHH@Z   10056550 f   tier1:utlbuffer.obj
 0001:000555d0       ??0CUtlBuffer@@QAE@PBXHH@Z 100565d0 f   tier1:utlbuffer.obj
 0001:00055660       ?SetExternalBuffer@CUtlBuffer@@QAEXPAXHHH@Z 10056660 f   tier1:utlbuffer.obj
 0001:00055700       ?EatCPPComment@CUtlBuffer@@QAE_NXZ 10056700 f   tier1:utlbuffer.obj
 0001:00055770       ?GetString@CUtlBuffer@@QAEXPADH@Z 10056770 f   tier1:utlbuffer.obj
 0001:00055840       ?GetDelimitedCharInternal@CUtlBuffer@@IAEDPAVCUtlCharConversion@@@Z 10056840 f   tier1:utlbuffer.obj
 0001:000558f0       ?GetDelimitedString@CUtlBuffer@@QAEXPAVCUtlCharConversion@@PADH@Z 100568f0 f   tier1:utlbuffer.obj
 0001:00055a20       ?ConVar_Register@@YAXHPAVIConCommandBaseAccessor@@@Z 10056a20 f   tier1:convar.obj
 0001:00055ad0       ?ConVar_Unregister@@YAXXZ  10056ad0 f   tier1:convar.obj
 0001:00055b20       ?GetDLLIdentifier@ConCommandBase@@UBEHXZ 10056b20 f   tier1:convar.obj
 0001:00055b30       ?Create@ConCommandBase@@MAEXPBD0H@Z 10056b30 f   tier1:convar.obj
 0001:00055b80       ?Init@ConCommandBase@@MAEXXZ 10056b80 f   tier1:convar.obj
 0001:00055b80       ?Init@ConVar@@EAEXXZ       10056b80 f   tier1:convar.obj
 0001:00055ba0       ?IsFlagSet@ConCommandBase@@UBE_NH@Z 10056ba0 f   tier1:convar.obj
 0001:00055bb0       ?AddFlags@ConCommandBase@@UAEXH@Z 10056bb0 f   tier1:convar.obj
 0001:00055bc0       ?RemoveFlags@ConCommandBase@@UAEXH@Z 10056bc0 f   tier1:convar.obj
 0001:00055bd0       ?IsRegistered@ConCommandBase@@UBE_NXZ 10056bd0 f   tier1:convar.obj
 0001:00055bd0       ?IsEnabled@BuildGroup@vgui@@UAE_NXZ 10056bd0 f   vgui_controls:BuildGroup.obj
 0001:00055be0       ??0ConCommand@@QAE@PBDP6AXABVCCommand@@@Z0HP6AH0QAY0EA@D@Z@Z 10056be0 f   tier1:convar.obj
 0001:00055c80       ??1ConCommand@@UAE@XZ      10056c80 f   tier1:convar.obj
 0001:00055c90       ?Dispatch@ConCommand@@UAEXABVCCommand@@@Z 10056c90 f   tier1:convar.obj
 0001:00055cd0       ?CanAutoComplete@ConCommand@@UAE_NXZ 10056cd0 f   tier1:convar.obj
 0001:00055ce0       ?IsFlagSet@ConVar@@UBE_NH@Z 10056ce0 f   tier1:convar.obj
 0001:00055cf0       ?GetFlags@ConVar@@UBEHXZ   10056cf0 f   tier1:convar.obj
 0001:00055d00       ?GetHelpText@ConVar@@UBEPBDXZ 10056d00 f   tier1:convar.obj
 0001:00055d10       ?AddFlags@ConVar@@UAEXH@Z  10056d10 f   tier1:convar.obj
 0001:00055d20       ?IsRegistered@ConVar@@UBE_NXZ 10056d20 f   tier1:convar.obj
 0001:00055d30       ?GetName@ConVar@@UBEPBDXZ  10056d30 f   tier1:convar.obj
 0001:00055d40       ?GetBaseName@ConVar@@UBEPBDXZ 10056d40 f   tier1:convar.obj
 0001:00055d50       ?InternalSetColorFromString@ConVar@@AAE_NPBD@Z 10056d50 f   tier1:convar.obj
 0001:00055e00       ?InternalSetValue@ConVar@@EAEXPBD@Z 10056e00 f   tier1:convar.obj
 0001:00055f30       ?ClampValue@ConVar@@EAE_NAAM@Z 10056f30 f   tier1:convar.obj
 0001:00055f70       ?InternalSetFloatValue@ConVar@@EAEXM@Z 10056f70 f   tier1:convar.obj
 0001:00056050       ?InternalSetIntValue@ConVar@@EAEXH@Z 10057050 f   tier1:convar.obj
 0001:00056120       ?InternalSetColorValue@ConVar@@EAEXVColor@@@Z 10057120 f   tier1:convar.obj
 0001:00056150       ?SetValue@ConVar@@UAEXPBD@Z 10057150 f   tier1:convar.obj
 0001:00056160       ?SetValue@ConVar@@UAEXM@Z  10057160 f   tier1:convar.obj
 0001:00056180       ?SetValue@ConVar@@UAEXH@Z  10057180 f   tier1:convar.obj
 0001:00056190       ?SetValue@ConVar@@UAEXVColor@@@Z 10057190 f   tier1:convar.obj
 0001:000561a0       ?IsValid@ConVarRef@@QBE_NXZ 100571a0 f   tier1:convar.obj
 0001:000561b0       ?RegisterConCommandBase@CDefaultAccessor@@UAE_NPAVConCommandBase@@@Z 100571b0 f i tier1:convar.obj
 0001:000561d0       ??_GConCommand@@UAEPAXI@Z  100571d0 f i tier1:convar.obj
 0001:000561d0       ??_GConCommandBase@@UAEPAXI@Z 100571d0 f i tier1:convar.obj
 0001:000561d0       ??_EConCommand@@UAEPAXI@Z  100571d0 f i tier1:convar.obj
 0001:000561d0       ??_EConCommandBase@@UAEPAXI@Z 100571d0 f i tier1:convar.obj
 0001:000561f0       ?Init@ConVarRef@@QAEXPBD_N@Z 100571f0 f   tier1:convar.obj
 0001:00056270       ?ChangeStringValue@ConVar@@EAEXPBDM@Z 10057270 f   tier1:convar.obj
 0001:00056330       ??0ConVarRef@@QAE@PBD_N@Z  10057330 f   tier1:convar.obj
 0001:00056350       ??1ConVar@@UAE@XZ          10057350 f   tier1:convar.obj
 0001:00056390       ?GetName@ConVar@@WBI@BEPBDXZ 10057390 f i tier1:convar.obj
 0001:000563a0       ?IsFlagSet@ConVar@@WBI@BE_NH@Z 100573a0 f i tier1:convar.obj
 0001:000563b0       ?Create@ConVar@@EAEXPBD0H0_NM1MP6AXPAVIConVar@@0M@Z@Z 100573b0 f   tier1:convar.obj
 0001:000564f0       ?AutoCompleteSuggest@ConCommand@@UAEHPBDAAV?$CUtlVector@VCUtlString@@V?$CUtlMemory@VCUtlString@@H@@@@@Z 100574f0 f   tier1:convar.obj
 0001:000565d0       ??0ConVar@@QAE@PBD0H@Z     100575d0 f   tier1:convar.obj
 0001:00056640       ??0ConVar@@QAE@PBD0H0@Z    10057640 f   tier1:convar.obj
 0001:000566b0       ?GetName@CEmptyConVar@@UBEPBDXZ 100576b0 f i tier1:convar.obj
 0001:000566c0       ?GetName@CEmptyConVar@@WBI@BEPBDXZ 100576c0 f i tier1:convar.obj
 0001:000566d0       ?IsFlagSet@CEmptyConVar@@WBI@BE_NH@Z 100576d0 f i tier1:convar.obj
 0001:000566e0       ??_GConVar@@UAEPAXI@Z      100576e0 f i tier1:convar.obj
 0001:000566e0       ??_ECEmptyConVar@@UAEPAXI@Z 100576e0 f i tier1:convar.obj
 0001:000566e0       ??_EConVar@@UAEPAXI@Z      100576e0 f i tier1:convar.obj
 0001:000566e0       ??_GCEmptyConVar@@UAEPAXI@Z 100576e0 f i tier1:convar.obj
 0001:00056730       ??0InterfaceReg@@QAE@P6APAXXZPBD@Z 10057730 f   tier1:interface.obj
 0001:00056750       ?CreateInterfaceInternal@@YAPAXPBDPAH@Z 10057750 f   tier1:interface.obj
 0001:000567c0       _CreateInterface           100577c0 f   tier1:interface.obj
 0001:000567d0       ?Sys_GetFactoryThis@@YAP6APAXPBDPAH@ZXZ 100577d0 f   tier1:interface.obj
 0001:000567e0       ?ConnectTier1Libraries@@YAXPAP6APAXPBDPAH@ZH@Z 100577e0 f   tier1:tier1.obj
 0001:000567f0       ?DisconnectTier1Libraries@@YAXXZ 100577f0 f   tier1:tier1.obj
 0001:00056800       ?Length@CUtlString@@QBEHXZ 10057800 f   tier1:utlstring.obj
 0001:00056810       ??BCUtlString@@QBEPBDXZ    10057810 f   tier1:utlstring.obj
 0001:00056810       ?Get@CUtlString@@QBEPBDXZ  10057810 f   tier1:utlstring.obj
 0001:00056820       ?Set@CUtlBinaryBlock@@QAEXPBXH@Z 10057820 f   tier1:utlstring.obj
 0001:00056890       ?Set@CUtlString@@QAEXPBD@Z 10057890 f   tier1:utlstring.obj
 0001:000568d0       ?Get@CUtlString@@QAEPADXZ  100578d0 f   tier1:utlstring.obj
 0001:00056910       ??4CUtlString@@QAEAAV0@PBD@Z 10057910 f   tier1:utlstring.obj
 0001:00056950       ??0CUtlString@@QAE@PBD@Z   10057950 f   tier1:utlstring.obj
 0001:00056990       ??0CUtlString@@QAE@ABV0@@Z 10057990 f   tier1:utlstring.obj
 0001:000569e0       ??0CUtlString@@QAE@XZ      100579e0 f   tier1:utlstring.obj
 0001:000569f0       ?Links@?$CUtlRBTree@VCStringPoolIndex@CUtlSymbolTable@@GVCLess@2@V?$CUtlMemory@U?$UtlRBTreeNode_t@VCStringPoolIndex@CUtlSymbolTable@@G@@G@@@@IBEABU?$UtlRBTreeLinks_t@G@@G@Z 100579f0 f i tier1:utlsymbol.obj
 0001:00056a50       ??RCLess@CUtlSymbolTable@@QBE_NABVCStringPoolIndex@1@0@Z 10057a50 f   tier1:utlsymbol.obj
 0001:00056b40       ?FindPoolWithSpace@CUtlSymbolTable@@ABEHH@Z 10057b40 f   tier1:utlsymbol.obj
 0001:00056b80       ?FindInsertionPosition@?$CUtlRBTree@VCStringPoolIndex@CUtlSymbolTable@@GVCLess@2@V?$CUtlMemory@U?$UtlRBTreeNode_t@VCStringPoolIndex@CUtlSymbolTable@@G@@G@@@@IAEXABVCStringPoolIndex@CUtlSymbolTable@@AAGAA_N@Z 10057b80 f i tier1:utlsymbol.obj
 0001:00056c90       ?RotateLeft@?$CUtlRBTree@VCStringPoolIndex@CUtlSymbolTable@@GVCLess@2@V?$CUtlMemory@U?$UtlRBTreeNode_t@VCStringPoolIndex@CUtlSymbolTable@@G@@G@@@@IAEXG@Z 10057c90 f i tier1:utlsymbol.obj
 0001:00056d90       ?RotateRight@?$CUtlRBTree@VCStringPoolIndex@CUtlSymbolTable@@GVCLess@2@V?$CUtlMemory@U?$UtlRBTreeNode_t@VCStringPoolIndex@CUtlSymbolTable@@G@@G@@@@IAEXG@Z 10057d90 f i tier1:utlsymbol.obj
 0001:00056e90       ?String@CUtlSymbolTable@@QBEPBDVCUtlSymbol@@@Z 10057e90 f   tier1:utlsymbol.obj
 0001:00056ed0       ??0?$CUtlRBTree@VCStringPoolIndex@CUtlSymbolTable@@GVCLess@2@V?$CUtlMemory@U?$UtlRBTreeNode_t@VCStringPoolIndex@CUtlSymbolTable@@G@@G@@@@QAE@HHABVCLess@CUtlSymbolTable@@@Z 10057ed0 f i tier1:utlsymbol.obj
 0001:00056f30       ?Find@?$CUtlRBTree@VCStringPoolIndex@CUtlSymbolTable@@GVCLess@2@V?$CUtlMemory@U?$UtlRBTreeNode_t@VCStringPoolIndex@CUtlSymbolTable@@G@@G@@@@QBEGABVCStringPoolIndex@CUtlSymbolTable@@@Z 10057f30 f i tier1:utlsymbol.obj
 0001:00057040       ?RemoveAll@?$CUtlRBTree@VCStringPoolIndex@CUtlSymbolTable@@GVCLess@2@V?$CUtlMemory@U?$UtlRBTreeNode_t@VCStringPoolIndex@CUtlSymbolTable@@G@@G@@@@QAEXXZ 10058040 f i tier1:utlsymbol.obj
 0001:00057100       ?InsertRebalance@?$CUtlRBTree@VCStringPoolIndex@CUtlSymbolTable@@GVCLess@2@V?$CUtlMemory@U?$UtlRBTreeNode_t@VCStringPoolIndex@CUtlSymbolTable@@G@@G@@@@IAEXG@Z 10058100 f i tier1:utlsymbol.obj
 0001:00057670       ?String@CUtlSymbolTableMT@@QBEPBDVCUtlSymbol@@@Z 10058670 f i tier1:utlsymbol.obj
 0001:000576d0       ?Find@CUtlSymbolTable@@QBE?AVCUtlSymbol@@PBD@Z 100586d0 f   tier1:utlsymbol.obj
 0001:00057730       ?LinkToParent@?$CUtlRBTree@VCStringPoolIndex@CUtlSymbolTable@@GVCLess@2@V?$CUtlMemory@U?$UtlRBTreeNode_t@VCStringPoolIndex@CUtlSymbolTable@@G@@G@@@@IAEXGG_N@Z 10058730 f i tier1:utlsymbol.obj
 0001:000577a0       ?RemoveAll@CUtlSymbolTable@@QAEXXZ 100587a0 f   tier1:utlsymbol.obj
 0001:00057820       ??1?$CUtlRBTree@VCStringPoolIndex@CUtlSymbolTable@@GVCLess@2@V?$CUtlMemory@U?$UtlRBTreeNode_t@VCStringPoolIndex@CUtlSymbolTable@@G@@G@@@@QAE@XZ 10058820 f i tier1:utlsymbol.obj
 0001:00057880       ??1CUtlSymbolTable@@QAE@XZ 10058880 f   tier1:utlsymbol.obj
 0001:000578a0       ?Insert@?$CUtlRBTree@VCStringPoolIndex@CUtlSymbolTable@@GVCLess@2@V?$CUtlMemory@U?$UtlRBTreeNode_t@VCStringPoolIndex@CUtlSymbolTable@@G@@G@@@@QAEGABVCStringPoolIndex@CUtlSymbolTable@@@Z 100588a0 f i tier1:utlsymbol.obj
 0001:00057900       ??0CUtlSymbolTable@@QAE@HH_N@Z 10058900 f   tier1:utlsymbol.obj
 0001:00057940       ?AddString@CUtlSymbolTable@@QAE?AVCUtlSymbol@@PBD@Z 10058940 f   tier1:utlsymbol.obj
 0001:00057a80       ?Initialize@CUtlSymbol@@KAXXZ 10058a80 f   tier1:utlsymbol.obj
 0001:00057b20       ??0CUtlSymbol@@QAE@PBD@Z   10058b20 f   tier1:utlsymbol.obj
 0001:00057b70       ?String@CUtlSymbol@@QBEPBDXZ 10058b70 f   tier1:utlsymbol.obj
 0001:00057b90       ?StrLessInsensitive@@YA_NABQBD0@Z 10058b90 f   tier1:stringpool.obj
 0001:00057bb0       ?StrLessSensitive@@YA_NABQBD0@Z 10058bb0 f   tier1:stringpool.obj
 0001:00057bd0       ?Next@?$CUtlMemory@U?$UtlRBTreeNode_t@VCStringPoolIndex@CUtlSymbolTable@@G@@G@@QBE?AVIterator_t@1@ABV21@@Z 10058bd0 f i tier1:utlsymbol.obj
 0001:00057bd0       ?Next@?$CUtlMemory@U?$UtlRBTreeNode_t@PAXG@@G@@QBE?AVIterator_t@1@ABV21@@Z 10058bd0 f i vgui_controls:AnimationController.obj
 0001:00057bd0       ?Next@?$CUtlMemory@U?$UtlRBTreeNode_t@PBDG@@G@@QBE?AVIterator_t@1@ABV21@@Z 10058bd0 f i tier1:stringpool.obj
 0001:00057c10       ?Links@?$CUtlRBTree@PBDGP6A_NABQBD0@ZV?$CUtlMemory@U?$UtlRBTreeNode_t@PBDG@@G@@@@IBEABU?$UtlRBTreeLinks_t@G@@G@Z 10058c10 f i tier1:stringpool.obj
 0001:00057c70       ?Grow@?$CUtlMemory@U?$UtlRBTreeNode_t@PAXG@@G@@QAEXH@Z 10058c70 f i vgui_controls:AnimationController.obj
 0001:00057c70       ?Grow@?$CUtlMemory@U?$UtlRBTreeNode_t@VCStringPoolIndex@CUtlSymbolTable@@G@@G@@QAEXH@Z 10058c70 f i tier1:utlsymbol.obj
 0001:00057c70       ?Grow@?$CUtlMemory@U?$UtlRBTreeNode_t@PBDG@@G@@QAEXH@Z 10058c70 f i tier1:stringpool.obj
 0001:00057d20       ?FindInsertionPosition@?$CUtlRBTree@PBDGP6A_NABQBD0@ZV?$CUtlMemory@U?$UtlRBTreeNode_t@PBDG@@G@@@@IAEXABQBDAAGAA_N@Z 10058d20 f i tier1:stringpool.obj
 0001:00057e30       ?RotateLeft@?$CUtlRBTree@PBDGP6A_NABQBD0@ZV?$CUtlMemory@U?$UtlRBTreeNode_t@PBDG@@G@@@@IAEXG@Z 10058e30 f i tier1:stringpool.obj
 0001:00057f30       ?RotateRight@?$CUtlRBTree@PBDGP6A_NABQBD0@ZV?$CUtlMemory@U?$UtlRBTreeNode_t@PBDG@@G@@@@IAEXG@Z 10058f30 f i tier1:stringpool.obj
 0001:00058030       ?Find@?$CUtlRBTree@PBDGP6A_NABQBD0@ZV?$CUtlMemory@U?$UtlRBTreeNode_t@PBDG@@G@@@@QBEGABQBD@Z 10059030 f i tier1:stringpool.obj
 0001:00058140       ?RemoveAll@?$CUtlRBTree@PBDGP6A_NABQBD0@ZV?$CUtlMemory@U?$UtlRBTreeNode_t@PBDG@@G@@@@QAEXXZ 10059140 f i tier1:stringpool.obj
 0001:00058200       ?FirstInorder@?$CUtlRBTree@PBDGP6A_NABQBD0@ZV?$CUtlMemory@U?$UtlRBTreeNode_t@PBDG@@G@@@@QBEGXZ 10059200 f i tier1:stringpool.obj
 0001:000582c0       ?NextInorder@?$CUtlRBTree@PBDGP6A_NABQBD0@ZV?$CUtlMemory@U?$UtlRBTreeNode_t@PBDG@@G@@@@QBEGG@Z 100592c0 f i tier1:stringpool.obj
 0001:00058480       ?InsertRebalance@?$CUtlRBTree@PBDGP6A_NABQBD0@ZV?$CUtlMemory@U?$UtlRBTreeNode_t@PBDG@@G@@@@IAEXG@Z 10059480 f i tier1:stringpool.obj
 0001:000589f0       ?FreeAll@CStringPool@@QAEXXZ 100599f0 f   tier1:stringpool.obj
 0001:00058a40       ??1?$CUtlRBTree@PBDGP6A_NABQBD0@ZV?$CUtlMemory@U?$UtlRBTreeNode_t@PBDG@@G@@@@QAE@XZ 10059a40 f i tier1:stringpool.obj
 0001:00058aa0       ?LinkToParent@?$CUtlRBTree@PBDGP6A_NABQBD0@ZV?$CUtlMemory@U?$UtlRBTreeNode_t@PBDG@@G@@@@IAEXGG_N@Z 10059aa0 f i tier1:stringpool.obj
 0001:00058b10       ??0CStringPool@@QAE@W4StringPoolCase_t@@@Z 10059b10 f   tier1:stringpool.obj
 0001:00058b80       ??1CStringPool@@QAE@XZ     10059b80 f   tier1:stringpool.obj
 0001:00058b90       ?Insert@?$CUtlRBTree@PBDGP6A_NABQBD0@ZV?$CUtlMemory@U?$UtlRBTreeNode_t@PBDG@@G@@@@QAEGABQBD@Z 10059b90 f i tier1:stringpool.obj
 0001:00058bf0       ?Allocate@CStringPool@@QAEPBDPBD@Z 10059bf0 f   tier1:stringpool.obj
 0001:00058c40       ?DefaultConditionalSymbolProc@@YA_NPBD@Z 10059c40 f   tier1:exprevaluator.obj
 0001:00058cb0       ?DefaultConditionalErrorProc@@YAXPBD@Z 10059cb0 f   tier1:exprevaluator.obj
 0001:00058cd0       ??0CExpressionEvaluator@@QAE@XZ 10059cd0 f   tier1:exprevaluator.obj
 0001:00058ce0       ?GetNextToken@CExpressionEvaluator@@AAEDXZ 10059ce0 f   tier1:exprevaluator.obj
 0001:00058d20       ?FreeTree@CExpressionEvaluator@@AAEXAAPAUExprNode@@@Z 10059d20 f   tier1:exprevaluator.obj
 0001:00058d60       ?IsIdentifierOrConstant@CExpressionEvaluator@@AAE_ND@Z 10059d60 f   tier1:exprevaluator.obj
 0001:00058e40       ?SimplifyNode@CExpressionEvaluator@@AAE_NAAPAUExprNode@@@Z 10059e40 f   tier1:exprevaluator.obj
 0001:00058ed0       ??0?$CFmtStrN@$0BAA@@@QAA@PBDZZ 10059ed0 f i tier1:exprevaluator.obj
 0001:00058f00       ??1CExpressionEvaluator@@QAE@XZ 10059f00 f   tier1:exprevaluator.obj
 0001:00058f30       ?IsConditional@CExpressionEvaluator@@AAE_NAA_ND@Z 10059f30 f   tier1:exprevaluator.obj
 0001:00058fc0       ?MakeExprNode@CExpressionEvaluator@@AAE_NAAPAUExprNode@@DW4Kind@@PAU2@2@Z 10059fc0 f   tier1:exprevaluator.obj
 0001:000590c0       ?MakeFactor@CExpressionEvaluator@@AAE_NAAPAUExprNode@@@Z 1005a0c0 f   tier1:exprevaluator.obj
 0001:00059170       ?MakeTerm@CExpressionEvaluator@@AAE_NAAPAUExprNode@@@Z 1005a170 f   tier1:exprevaluator.obj
 0001:00059200       ?MakeExpression@CExpressionEvaluator@@AAE_NAAPAUExprNode@@@Z 1005a200 f   tier1:exprevaluator.obj
 0001:000592c0       ?BuildExpression@CExpressionEvaluator@@AAE_NXZ 1005a2c0 f   tier1:exprevaluator.obj
 0001:00059300       ?Evaluate@CExpressionEvaluator@@QAE_NAA_NPBDP6A_N1@ZP6AX1@Z@Z 1005a300 f   tier1:exprevaluator.obj
 0001:00059400       ?CharacterSetBuild@@YAXPAUcharacterset_t@@PBD@Z 1005a400 f   tier1:characterset.obj
 0001:00059450       ?HashString@@YIIPBD@Z      1005a450 f   tier1:generichash.obj
 0001:00059490       ?HashStringCaseless@@YIIPBD@Z 1005a490 f   tier1:generichash.obj
 0001:00059500       ?ConnectTier2Libraries@@YAXPAP6APAXPBDPAH@ZH@Z 1005a500 f   tier2:tier2.obj
 0001:00059550       ?DisconnectTier2Libraries@@YAXXZ 1005a550 f   tier2:tier2.obj
 0001:00059580       ?Install@CSchemaClassBindingBase@@SAXXZ 1005a580 f   tier2:schemaclassbinding.obj
 0001:000595b0       ?RegisterAll@CBaseResourcePrecacher@@SAXXZ 1005a5b0 f   tier2:resourceprecacher.obj
 0001:000595e0       ?GetPanelClassName@Frame@vgui@@SAPBDXZ 1005a5e0 f i vgui_controls:Frame.obj
 0001:000595f0       ?GetVar_m_iTitleTextInsetXOverride@Frame@vgui@@CAPAXPAVPanel@2@@Z 1005a5f0 f i vgui_controls:Frame.obj
 0001:00059600       ?GetVar_m_iTitleTextInsetYOverride@Frame@vgui@@CAPAXPAVPanel@2@@Z 1005a600 f i vgui_controls:Frame.obj
 0001:00059610       ?GetPanelClassName@Panel@vgui@@SAPBDXZ 1005a610 f i vgui_controls:Frame.obj
 0001:00059620       ?moved@GripPanel@?A0x499e46f6@@UAEXHH@Z 1005a620 f i vgui_controls:Frame.obj
 0001:00059790       ?OnCursorMoved@GripPanel@?A0x499e46f6@@UAEXHH@Z 1005a790 f i vgui_controls:Frame.obj
 0001:00059880       ?OnMousePressed@GripPanel@?A0x499e46f6@@UAEXW4ButtonCode_t@@@Z 1005a880 f i vgui_controls:Frame.obj
 0001:00059990       ?OnMouseDoublePressed@GripPanel@?A0x499e46f6@@UAEXW4ButtonCode_t@@@Z 1005a990 f i vgui_controls:Frame.obj
 0001:000599b0       ?Paint@GripPanel@?A0x499e46f6@@UAEXXZ 1005a9b0 f i vgui_controls:Frame.obj
 0001:00059a20       ?PaintBackground@GripPanel@?A0x499e46f6@@UAEXXZ 1005aa20 f i vgui_controls:Frame.obj
 0001:00059a90       ?OnMouseReleased@GripPanel@?A0x499e46f6@@UAEXW4ButtonCode_t@@@Z 1005aa90 f i vgui_controls:Frame.obj
 0001:00059ac0       ?OnMouseCaptureLost@GripPanel@?A0x499e46f6@@UAEXXZ 1005aac0 f i vgui_controls:Frame.obj
 0001:00059ae0       ?ApplySchemeSettings@GripPanel@?A0x499e46f6@@UAEXPAVIScheme@vgui@@@Z 1005aae0 f i vgui_controls:Frame.obj
 0001:00059bb0       ??0CaptionGripPanel@?A0x499e46f6@@QAE@PAVFrame@vgui@@PBD@Z 1005abb0 f i vgui_controls:Frame.obj
 0001:00059c30       ?getInsideSnapPosition@CaptionGripPanel@?A0x499e46f6@@QAE_NHHHHAAH0@Z 1005ac30 f i vgui_controls:Frame.obj
 0001:00059cf0       ?getOutsideSnapPosition@CaptionGripPanel@?A0x499e46f6@@QAE_NHHHHAAH0@Z 1005acf0 f i vgui_controls:Frame.obj
 0001:00059e60       ??0FrameButton@vgui@@QAE@PAVPanel@1@PBD1@Z 1005ae60 f i vgui_controls:Frame.obj
 0001:00059f20       ?GetPanelClassName@Button@vgui@@SAPBDXZ 1005af20 f i vgui_controls:Frame.obj
 0001:00059f30       ?GetUnpackStructure@Button@vgui@@UBEPBUDmxElementUnpackStructure_t@@XZ 1005af30 f i vgui_controls:Frame.obj
 0001:00059f40       ?OnHotkey@Button@vgui@@UAEXXZ 1005af40 f i vgui_controls:Frame.obj
 0001:00059f50       ?ApplySchemeSettings@FrameButton@vgui@@UAEXPAVIScheme@2@@Z 1005af50 f i vgui_controls:Frame.obj
 0001:0005a030       ?GetBorder@FrameButton@vgui@@UAEPAVIBorder@2@_N000@Z 1005b030 f i vgui_controls:Frame.obj
 0001:0005a060       ?SetDisabledLook@FrameButton@vgui@@UAEX_N@Z 1005b060 f i vgui_controls:Frame.obj
 0001:0005a120       ?PerformLayout@FrameButton@vgui@@UAEXXZ 1005b120 f i vgui_controls:Frame.obj
 0001:0005a140       ?GetPanelClassName@FrameSystemButton@vgui@@SAPBDXZ 1005b140 f i vgui_controls:Frame.obj
 0001:0005a150       ?GetImageSize@FrameSystemButton@vgui@@QAEXAAH0@Z 1005b150 f i vgui_controls:Frame.obj
 0001:0005a1d0       ?SetEnabled@FrameSystemButton@vgui@@UAEX_N@Z 1005b1d0 f i vgui_controls:Frame.obj
 0001:0005a2e0       ??1Frame@vgui@@UAE@XZ      1005b2e0 f   vgui_controls:Frame.obj
 0001:0005a350       ?SetupResizeCursors@Frame@vgui@@AAEXXZ 1005b350 f   vgui_controls:Frame.obj
 0001:0005a4d0       ?Activate@Frame@vgui@@UAEXXZ 1005b4d0 f   vgui_controls:Frame.obj
 0001:0005a550       ?DoModal@Frame@vgui@@UAEXXZ 1005b550 f   vgui_controls:Frame.obj
 0001:0005a5b0       ?CloseModal@Frame@vgui@@UAEXXZ 1005b5b0 f   vgui_controls:Frame.obj
 0001:0005a620       ?ActivateMinimized@Frame@vgui@@UAEXXZ 1005b620 f   vgui_controls:Frame.obj
 0001:0005a6e0       ?IsMinimized@Frame@vgui@@UAE_NXZ 1005b6e0 f   vgui_controls:Frame.obj
 0001:0005a700       ?MoveToCenterOfScreen@Frame@vgui@@UAEXXZ 1005b700 f   vgui_controls:Frame.obj
 0001:0005a760       ?LayoutProportional@Frame@vgui@@AAEXPAVFrameButton@2@@Z 1005b760 f   vgui_controls:Frame.obj
 0001:0005a880       ?OnFrameFocusChanged@Frame@vgui@@AAEX_N@Z 1005b880 f   vgui_controls:Frame.obj
 0001:0005aa70       ?GetDraggerSize@Frame@vgui@@UAEHXZ 1005ba70 f   vgui_controls:Frame.obj
 0001:0005aa90       ?GetCornerSize@Frame@vgui@@UAEHXZ 1005ba90 f   vgui_controls:Frame.obj
 0001:0005aab0       ?GetBottomRightSize@Frame@vgui@@UAEHXZ 1005bab0 f   vgui_controls:Frame.obj
 0001:0005aad0       ?GetCaptionHeight@Frame@vgui@@UAEHXZ 1005bad0 f   vgui_controls:Frame.obj
 0001:0005aaf0       ?PerformLayout@Frame@vgui@@MAEXXZ 1005baf0 f   vgui_controls:Frame.obj
 0001:0005aed0       ?SetTitle@Frame@vgui@@UAEXPBD_N@Z 1005bed0 f   vgui_controls:Frame.obj
 0001:0005afc0       ?SetTitle@Frame@vgui@@UAEXPB_W_N@Z 1005bfc0 f   vgui_controls:Frame.obj
 0001:0005b040       ?InternalSetTitle@Frame@vgui@@EAEXPBD@Z 1005c040 f   vgui_controls:Frame.obj
 0001:0005b060       ?SetMoveable@Frame@vgui@@UAEX_N@Z 1005c060 f   vgui_controls:Frame.obj
 0001:0005b080       ?SetSizeable@Frame@vgui@@UAEX_N@Z 1005c080 f   vgui_controls:Frame.obj
 0001:0005b0a0       ?SetClipToParent@Frame@vgui@@UAEX_N@Z 1005c0a0 f   vgui_controls:Frame.obj
 0001:0005b0c0       ?GetClipToParent@Frame@vgui@@UBE_NXZ 1005c0c0 f   vgui_controls:Frame.obj
 0001:0005b0d0       ?IsMoveable@Frame@vgui@@UAE_NXZ 1005c0d0 f   vgui_controls:Frame.obj
 0001:0005b0e0       ?IsSizeable@Frame@vgui@@UAE_NXZ 1005c0e0 f   vgui_controls:Frame.obj
 0001:0005b0f0       ?GetSizerClientArea@Frame@vgui@@MAEXAAH000@Z 1005c0f0 f   vgui_controls:Frame.obj
 0001:0005b100       ?GetClientArea@Frame@vgui@@MAEXAAH000@Z 1005c100 f   vgui_controls:Frame.obj
 0001:0005b1c0       ?ApplyUserConfigSettings@Frame@vgui@@MAEXPAVKeyValues@@@Z 1005c1c0 f   vgui_controls:Frame.obj
 0001:0005b390       ?GetUserConfigSettings@Frame@vgui@@MAEXPAVKeyValues@@@Z 1005c390 f   vgui_controls:Frame.obj
 0001:0005b420       ?GetDefaultScreenPosition@Frame@vgui@@MAE_NAAH000@Z 1005c420 f   vgui_controls:Frame.obj
 0001:0005b430       ?PaintBackground@Frame@vgui@@MAEXXZ 1005c430 f   vgui_controls:Frame.obj
 0001:0005b5a0       ?ApplySchemeSettings@Frame@vgui@@MAEXPAVIScheme@2@@Z 1005c5a0 f   vgui_controls:Frame.obj
 0001:0005b880       ?ApplySettings@Frame@vgui@@MAEXPAVKeyValues@@@Z 1005c880 f   vgui_controls:Frame.obj
 0001:0005b970       ?GetSettings@Frame@vgui@@MAEXPAVKeyValues@@@Z 1005c970 f   vgui_controls:Frame.obj
 0001:0005ba10       ?GetDescription@Frame@vgui@@MAEPBDXZ 1005ca10 f   vgui_controls:Frame.obj
 0001:0005ba40       ?OnCloseFrameButtonPressed@Frame@vgui@@MAEXXZ 1005ca40 f   vgui_controls:Frame.obj
 0001:0005ba50       ?OnCommand@Frame@vgui@@UAEXPBD@Z 1005ca50 f   vgui_controls:Frame.obj
 0001:0005baf0       ?GetSysMenu@Frame@vgui@@UAEPAVMenu@2@XZ 1005caf0 f   vgui_controls:Frame.obj
 0001:0005bc60       ?SetSysMenu@Frame@vgui@@UAEXPAVMenu@2@@Z 1005cc60 f   vgui_controls:Frame.obj
 0001:0005bca0       ?Close@Frame@vgui@@UAEXXZ  1005cca0 f   vgui_controls:Frame.obj
 0001:0005bcb0       ?FinishClose@Frame@vgui@@AAEXXZ 1005ccb0 f   vgui_controls:Frame.obj
 0001:0005bcf0       ?OnMinimize@Frame@vgui@@MAEXXZ 1005ccf0 f   vgui_controls:Frame.obj
 0001:0005bd10       ?OnMousePressed@Frame@vgui@@MAEXW4ButtonCode_t@@@Z 1005cd10 f   vgui_controls:Frame.obj
 0001:0005bd80       ?SetMenuButtonVisible@Frame@vgui@@UAEX_N@Z 1005cd80 f   vgui_controls:Frame.obj
 0001:0005bd90       ?SetMenuButtonResponsive@Frame@vgui@@QAEX_N@Z 1005cd90 f   vgui_controls:Frame.obj
 0001:0005bdb0       ?SetMinimizeButtonVisible@Frame@vgui@@UAEX_N@Z 1005cdb0 f   vgui_controls:Frame.obj
 0001:0005bdc0       ?SetMaximizeButtonVisible@Frame@vgui@@UAEX_N@Z 1005cdc0 f   vgui_controls:Frame.obj
 0001:0005bdd0       ?SetMinimizeToSysTrayButtonVisible@Frame@vgui@@UAEX_N@Z 1005cdd0 f   vgui_controls:Frame.obj
 0001:0005bde0       ?SetCloseButtonVisible@Frame@vgui@@UAEX_N@Z 1005cde0 f   vgui_controls:Frame.obj
 0001:0005bdf0       ?InternalFlashWindow@Frame@vgui@@EAEXXZ 1005cdf0 f   vgui_controls:Frame.obj
 0001:0005be90       ?OnChildAdded@Frame@vgui@@MAEXI@Z 1005ce90 f   vgui_controls:Frame.obj
 0001:0005bea0       ?FlashWindow@Frame@vgui@@UAEXXZ 1005cea0 f   vgui_controls:Frame.obj
 0001:0005bec0       ?FlashWindowStop@Frame@vgui@@UAEXXZ 1005cec0 f   vgui_controls:Frame.obj
 0001:0005bef0       ?LoadControlSettings@Frame@vgui@@UAEXPBD0PAVKeyValues@@1@Z 1005cef0 f   vgui_controls:Frame.obj
 0001:0005bf40       ?OnKeyCodeTyped@Frame@vgui@@MAEXW4ButtonCode_t@@@Z 1005cf40 f   vgui_controls:Frame.obj
 0001:0005c1b0       ?OnKeyTyped@Frame@vgui@@MAEX_W@Z 1005d1b0 f   vgui_controls:Frame.obj
 0001:0005c210       ?SetTitleBarVisible@Frame@vgui@@UAEX_N@Z 1005d210 f   vgui_controls:Frame.obj
 0001:0005c270       ?SetDeleteSelfOnClose@Frame@vgui@@UAEX_N@Z 1005d270 f   vgui_controls:Frame.obj
 0001:0005c290       ?OnDialogVariablesChanged@Frame@vgui@@EAEXPAVKeyValues@@@Z 1005d290 f   vgui_controls:Frame.obj
 0001:0005c2f0       ?OnScreenSizeChanged@Frame@vgui@@MAEXHH@Z 1005d2f0 f   vgui_controls:Frame.obj
 0001:0005c3b0       ?SetSmallCaption@Frame@vgui@@UAEX_N@Z 1005d3b0 f   vgui_controls:Frame.obj
 0001:0005c3e0       ?IsSmallCaption@Frame@vgui@@UBE_NXZ 1005d3e0 f   vgui_controls:Frame.obj
 0001:0005c3f0       ?PlaceUnderCursor@Frame@vgui@@QAEXXZ 1005d3f0 f   vgui_controls:Frame.obj
 0001:0005c4b0       ?OnGripPanelMoved@Frame@vgui@@UAEXHHHH@Z 1005d4b0 f   vgui_controls:Frame.obj
 0001:0005c4c0       ??_9Frame@vgui@@$BDMA@AE   1005d4c0 f i vgui_controls:Frame.obj
 0001:0005c4c0       ??_9TextEntry@vgui@@$BDMA@AE 1005d4c0 f i vgui_controls:TextEntry.obj
 0001:0005c4d0       ??_9Frame@vgui@@$BEEM@AE   1005d4d0 f i vgui_controls:Frame.obj
 0001:0005c4d0       ??_9ListPanel@vgui@@$BEEM@AE 1005d4d0 f i vgui_controls:ListPanel.obj
 0001:0005c4e0       ??_9ListPanel@vgui@@$BEEA@AE 1005d4e0 f i vgui_controls:ListPanel.obj
 0001:0005c4e0       ??_9Frame@vgui@@$BEEA@AE   1005d4e0 f i vgui_controls:Frame.obj
 0001:0005c4f0       ??_9Frame@vgui@@$BEFA@AE   1005d4f0 f i vgui_controls:Frame.obj
 0001:0005c500       ??_9Frame@vgui@@$BEFE@AE   1005d500 f i vgui_controls:Frame.obj
 0001:0005c510       ??_9Frame@vgui@@$BEDI@AE   1005d510 f i vgui_controls:Frame.obj
 0001:0005c520       ??_9TextEntry@vgui@@$BDLM@AE 1005d520 f i vgui_controls:TextEntry.obj
 0001:0005c520       ??_9Frame@vgui@@$BDLM@AE   1005d520 f i vgui_controls:Frame.obj
 0001:0005c530       ?GetMessageMap@Panel@vgui@@UAEPAUPanelMessageMap@2@XZ 1005d530 f i vgui_controls:Frame.obj
 0001:0005c560       ?GetAnimMap@Panel@vgui@@UAEPAUPanelAnimationMap@@XZ 1005d560 f i vgui_controls:Frame.obj
 0001:0005c570       ?GetKBMap@Panel@vgui@@UAEPAUPanelKeyBindingMap@2@XZ 1005d570 f i vgui_controls:Frame.obj
 0001:0005c5a0       ?GetMessageMap@Frame@vgui@@UAEPAUPanelMessageMap@2@XZ 1005d5a0 f i vgui_controls:Frame.obj
 0001:0005c5d0       ?GetAnimMap@Frame@vgui@@UAEPAUPanelAnimationMap@@XZ 1005d5d0 f i vgui_controls:Frame.obj
 0001:0005c5e0       ?GetKBMap@Frame@vgui@@UAEPAUPanelKeyBindingMap@2@XZ 1005d5e0 f i vgui_controls:Frame.obj
 0001:0005c610       ?GetMessageMap@Button@vgui@@UAEPAUPanelMessageMap@2@XZ 1005d610 f i vgui_controls:Frame.obj
 0001:0005c640       ?GetAnimMap@Button@vgui@@UAEPAUPanelAnimationMap@@XZ 1005d640 f i vgui_controls:Frame.obj
 0001:0005c650       ?GetKBMap@Button@vgui@@UAEPAUPanelKeyBindingMap@2@XZ 1005d650 f i vgui_controls:Frame.obj
 0001:0005c680       ?tryToDock@CaptionGripPanel@?A0x499e46f6@@QAEXIAAH0@Z 1005d680 f i vgui_controls:Frame.obj
 0001:0005c770       ??_GFrame@vgui@@UAEPAXI@Z  1005d770 f i vgui_controls:Frame.obj
 0001:0005c770       ??_EFrame@vgui@@UAEPAXI@Z  1005d770 f i vgui_controls:Frame.obj
 0001:0005c790       ?OnThink@Frame@vgui@@MAEXXZ 1005d790 f   vgui_controls:Frame.obj
 0001:0005c910       ?OnClose@Frame@vgui@@MAEXXZ 1005d910 f   vgui_controls:Frame.obj
 0001:0005ca20       ?moved@CaptionGripPanel@?A0x499e46f6@@UAEXHH@Z 1005da20 f i vgui_controls:Frame.obj
 0001:0005cbc0       ?InsertBefore@?$CUtlVector@UOverridableColorEntry@vgui@@V?$CUtlMemory@UOverridableColorEntry@vgui@@H@@@@QAEHH@Z 1005dbc0 f i vgui_controls:Frame.obj
 0001:0005cc30       ?AddToMap@Frame@vgui@@SAXPBDP8Panel@2@AEXXZHH0H0@Z 1005dc30 f i vgui_controls:Frame.obj
 0001:0005ccb0       ?InitVar@PanelMessageFunc_Close@Frame@vgui@@SAXXZ 1005dcb0 f i vgui_controls:Frame.obj
 0001:0005cd10       ?InitVar@PanelMessageFunc_CloseModal@Frame@vgui@@SAXXZ 1005dd10 f i vgui_controls:Frame.obj
 0001:0005cd70       ?InitVar@PanelMessageFunc_OnMinimize@Frame@vgui@@SAXXZ 1005dd70 f i vgui_controls:Frame.obj
 0001:0005cdd0       ?InitVar@PanelMessageFunc_OnCloseFrameButtonPressed@Frame@vgui@@SAXXZ 1005ddd0 f i vgui_controls:Frame.obj
 0001:0005ce30       ?InitVar@PanelMessageFunc_InternalSetTitle@Frame@vgui@@SAXXZ 1005de30 f i vgui_controls:Frame.obj
 0001:0005ce90       ?InitVar@PanelMessageFunc_InternalFlashWindow@Frame@vgui@@SAXXZ 1005de90 f i vgui_controls:Frame.obj
 0001:0005cef0       ?InitVar@PanelMessageFunc_OnDialogVariablesChanged@Frame@vgui@@SAXXZ 1005def0 f i vgui_controls:Frame.obj
 0001:0005cf50       ?InitVar@PanelAnimationVar_m_iTitleTextInsetXOverride@Frame@vgui@@SAXXZ 1005df50 f i vgui_controls:Frame.obj
 0001:0005cfe0       ?InitVar@PanelAnimationVar_m_iTitleTextInsetYOverride@Frame@vgui@@SAXXZ 1005dfe0 f i vgui_controls:Frame.obj
 0001:0005d040       ??0FrameSystemButton@vgui@@QAE@PAVPanel@1@PBD@Z 1005e040 f i vgui_controls:Frame.obj
 0001:0005d160       ?GetID@BlankImage@@UAEKXZ  1005e160 f i vgui_controls:ImageList.obj
 0001:0005d160       ?GetCurrentKeyFocus@Panel@vgui@@UAEIXZ 1005e160 f i vgui_controls:Panel.obj
 0001:0005d160       ?DefaultCompletionFunc@@YAHPBDQAY0EA@D@Z 1005e160 f i tier1:convar.obj
 0001:0005d160       ?GetSplitScreenPlayerSlot@ConVar@@UBEHXZ 1005e160 f i tier1:convar.obj
 0001:0005d160       ?GetDependencies@?$CBaseAppSystem@VIASW_Mission_Chooser@@@@UAEPBUAppSystemInfo_t@@XZ 1005e160 f i asw_mission_chooser.obj
 0001:0005d160       ?GetNumFrames@Image@vgui@@UAEHXZ 1005e160 f i vgui_controls:Image.obj
 0001:0005d160       ?GetBufferType@CCodecBuffer@@UBE?BW4_CodecBufferType@@XZ 1005e160 f i bitmap:CodecBuffer.obj
 0001:0005d160       ?OnCheckMenuItemCount@MenuButton@vgui@@UAEHXZ 1005e160 f i vgui_controls:Frame.obj
 0001:0005d160       ?GetID@Image@vgui@@UAEKXZ  1005e160 f i vgui_controls:Image.obj
 0001:0005d160       ?GetScrollBarSize@CTreeViewListControl@vgui@@UAEHXZ 1005e160 f i vgui_controls:TreeViewListControl.obj
 0001:0005d160       ?GetIdentityValue@CTilegenExpression_Add@@UAEHXZ 1005e160 f i tilegen_class_factories.obj
 0001:0005d160       ?GetNumFrames@BlankImage@@UAEHXZ 1005e160 f i vgui_controls:ImageList.obj
 0001:0005d170       ?ApplySchemeSettings@FrameSystemButton@vgui@@UAEXPAVIScheme@2@@Z 1005e170 f i vgui_controls:Frame.obj
 0001:0005d270       ?GetBorder@CheckButton@vgui@@MAEPAVIBorder@2@_N000@Z 1005e270 f i vgui_controls:CheckButton.obj
 0001:0005d270       ?GetBorder@MenuItem@vgui@@MAEPAVIBorder@2@_N000@Z 1005e270 f i vgui_controls:MenuItem.obj
 0001:0005d270       ?GetBorder@FrameSystemButton@vgui@@UAEPAVIBorder@2@_N000@Z 1005e270 f i vgui_controls:Frame.obj
 0001:0005d270       ?GetBorder@RadioButton@vgui@@MAEPAVIBorder@2@_N000@Z 1005e270 f i vgui_controls:RadioButton.obj
 0001:0005d270       ?GetBorder@ExpandButton@vgui@@MAEPAVIBorder@2@_N000@Z 1005e270 f i vgui_controls:ExpandButton.obj
 0001:0005d270       ?GetBorder@ComboBoxButton@vgui@@UAEPAVIBorder@2@_N000@Z 1005e270 f i vgui_controls:ComboBox.obj
 0001:0005d280       ?OnMousePressed@FrameSystemButton@vgui@@UAEXW4ButtonCode_t@@@Z 1005e280 f i vgui_controls:Frame.obj
 0001:0005d2a0       ?OnMouseDoublePressed@FrameSystemButton@vgui@@UAEXW4ButtonCode_t@@@Z 1005e2a0 f i vgui_controls:Frame.obj
 0001:0005d310       ?GetMessageMap@FrameSystemButton@vgui@@UAEPAUPanelMessageMap@2@XZ 1005e310 f i vgui_controls:Frame.obj
 0001:0005d340       ?GetAnimMap@FrameSystemButton@vgui@@UAEPAUPanelAnimationMap@@XZ 1005e340 f i vgui_controls:Frame.obj
 0001:0005d350       ?GetKBMap@FrameSystemButton@vgui@@UAEPAUPanelKeyBindingMap@2@XZ 1005e350 f i vgui_controls:Frame.obj
 0001:0005d380       ??1FrameSystemButton@vgui@@UAE@XZ 1005e380 f i vgui_controls:Frame.obj
 0001:0005d3f0       ??_EFrameSystemButton@vgui@@UAEPAXI@Z 1005e3f0 f i vgui_controls:Frame.obj
 0001:0005d3f0       ??_GFrameSystemButton@vgui@@UAEPAXI@Z 1005e3f0 f i vgui_controls:Frame.obj
 0001:0005d410       ??0Frame@vgui@@QAE@PAVPanel@1@PBD_N2@Z 1005e410 f   vgui_controls:Frame.obj
 0001:0005dd20       ?GetBaseButtonCode@@YA?AW4ButtonCode_t@@W41@@Z 1005ed20 f i vgui_controls:Panel.obj
 0001:0005dd90       ??0CBitFieldInfo__pinCorner@Panel@vgui@@QAE@XZ 1005ed90 f i vgui_controls:Panel.obj
 0001:0005de60       ??0CBitFieldInfo__autoResizeDirection@Panel@vgui@@QAE@XZ 1005ee60 f i vgui_controls:Panel.obj
 0001:0005df30       ??0CBitFieldInfo_m_bUseSchemeColors@Panel@vgui@@QAE@XZ 1005ef30 f i vgui_controls:Panel.obj
 0001:0005e000       ??0CBitFieldInfo_m_bIsSilent@Panel@vgui@@QAE@XZ 1005f000 f i vgui_controls:Panel.obj
 0001:0005e0d0       ?GetVar_m_flAlpha@Panel@vgui@@CAPAXPAV12@@Z 1005f0d0 f i vgui_controls:Panel.obj
 0001:0005e0e0       ?GetVar_m_nPaintBackgroundType@Panel@vgui@@CAPAXPAV12@@Z 1005f0e0 f i vgui_controls:Panel.obj
 0001:0005e0f0       ?GetVar_m_nBgTextureId1@Panel@vgui@@CAPAXPAV12@@Z 1005f0f0 f i vgui_controls:Panel.obj
 0001:0005e100       ?GetVar_m_nBgTextureId2@Panel@vgui@@CAPAXPAV12@@Z 1005f100 f i vgui_controls:Panel.obj
 0001:0005e110       ?GetVar_m_nBgTextureId3@Panel@vgui@@CAPAXPAV12@@Z 1005f110 f i vgui_controls:Panel.obj
 0001:0005e120       ?GetVar_m_nBgTextureId4@Panel@vgui@@CAPAXPAV12@@Z 1005f120 f i vgui_controls:Panel.obj
 0001:0005e130       ??$DmxElementUnpackInitvgui@VPanel@vgui@@@vgui@@YAPAUDmxElementUnpackStructure_t@@PAVPanel@0@@Z 1005f130 f   vgui_controls:Panel.obj
 0001:0005e5c0       ?GetPanelClassName@CDragDropHelperPanel@@SAPBDXZ 1005f5c0 f i vgui_controls:Panel.obj
 0001:0005e5d0       ??0BoundKey_t@vgui@@QAE@ABU01@@Z 1005f5d0 f   vgui_controls:Panel.obj
 0001:0005e640       ?KeyBindingContextHandleLessFunc@CKeyBindingsMgr@@SA_NABUKBContext_t@1@0@Z 1005f640 f i vgui_controls:Panel.obj
 0001:0005e660       ?SetName@Panel@vgui@@QAEXPBD@Z 1005f660 f   vgui_controls:Panel.obj
 0001:0005e670       ?GetName@Panel@vgui@@UAEPBDXZ 1005f670 f   vgui_controls:Panel.obj
 0001:0005e680       ?GetModuleName@Panel@vgui@@UAEPBDXZ 1005f680 f   vgui_controls:Panel.obj
 0001:0005e690       ?GetClassName@Panel@vgui@@UAEPBDXZ 1005f690 f   vgui_controls:Panel.obj
 0001:0005e6b0       ?SetPos@Panel@vgui@@QAEXHH@Z 1005f6b0 f   vgui_controls:Panel.obj
 0001:0005e700       ?GetPos@Panel@vgui@@QAEXAAH0@Z 1005f700 f   vgui_controls:Panel.obj
 0001:0005e730       ?SetSize@Panel@vgui@@QAEXHH@Z 1005f730 f   vgui_controls:Panel.obj
 0001:0005e760       ?GetSize@Panel@vgui@@QAEXAAH0@Z 1005f760 f   vgui_controls:Panel.obj
 0001:0005e790       ?SetBounds@Panel@vgui@@QAEXHHHH@Z 1005f790 f   vgui_controls:Panel.obj
 0001:0005e800       ?GetBounds@Panel@vgui@@QAEXAAH000@Z 1005f800 f   vgui_controls:Panel.obj
 0001:0005e850       ?GetVParent@Panel@vgui@@UAEIXZ 1005f850 f   vgui_controls:Panel.obj
 0001:0005e870       ?GetParent@Panel@vgui@@UAEPAV12@XZ 1005f870 f   vgui_controls:Panel.obj
 0001:0005e8c0       ?SetVisible@Panel@vgui@@UAEX_N@Z 1005f8c0 f   vgui_controls:Panel.obj
 0001:0005e8f0       ?IsVisible@Panel@vgui@@UAE_NXZ 1005f8f0 f   vgui_controls:Panel.obj
 0001:0005e910       ?IsFullyVisible@Panel@vgui@@UAE_NXZ 1005f910 f   vgui_controls:Panel.obj
 0001:0005e930       ?SetEnabled@Panel@vgui@@UAEX_N@Z 1005f930 f   vgui_controls:Panel.obj
 0001:0005e9a0       ?IsEnabled@Panel@vgui@@UAE_NXZ 1005f9a0 f   vgui_controls:Panel.obj
 0001:0005e9c0       ?IsPopup@Panel@vgui@@UAE_NXZ 1005f9c0 f   vgui_controls:Panel.obj
 0001:0005e9e0       ?PaintBorder@Panel@vgui@@UAEXXZ 1005f9e0 f   vgui_controls:Panel.obj
 0001:0005ea00       ?PaintBuildOverlay@Panel@vgui@@UAEXXZ 1005fa00 f   vgui_controls:Panel.obj
 0001:0005eac0       ?SetParent@Panel@vgui@@UAEXPAV12@@Z 1005fac0 f   vgui_controls:Panel.obj
 0001:0005eb00       ?OnSizeChanged@Panel@vgui@@UAEXHH@Z 1005fb00 f   vgui_controls:Panel.obj
 0001:0005eb20       ?SetZPos@Panel@vgui@@QAEXH@Z 1005fb20 f   vgui_controls:Panel.obj
 0001:0005eb50       ?GetZPos@Panel@vgui@@QAEHXZ 1005fb50 f   vgui_controls:Panel.obj
 0001:0005eb70       ?SetAlpha@Panel@vgui@@QAEXH@Z 1005fb70 f   vgui_controls:Panel.obj
 0001:0005eb90       ?GetAlpha@Panel@vgui@@QAEHXZ 1005fb90 f   vgui_controls:Panel.obj
 0001:0005eba0       ?MoveToFront@Panel@vgui@@UAEXXZ 1005fba0 f   vgui_controls:Panel.obj
 0001:0005ebf0       ?HasParent@Panel@vgui@@UAE_NI@Z 1005fbf0 f   vgui_controls:Panel.obj
 0001:0005ec20       ?FindSiblingByName@Panel@vgui@@QAEPAV12@PBD@Z 1005fc20 f   vgui_controls:Panel.obj
 0001:0005ed00       ?CallParentFunction@Panel@vgui@@QAEXPAVKeyValues@@@Z 1005fd00 f   vgui_controls:Panel.obj
 0001:0005ed60       ?GetScheme@Panel@vgui@@UAEKXZ 1005fd60 f   vgui_controls:Panel.obj
 0001:0005edb0       ?SetScheme@Panel@vgui@@UAEXPBD@Z 1005fdb0 f   vgui_controls:Panel.obj
 0001:0005ee10       ?SetScheme@Panel@vgui@@UAEXK@Z 1005fe10 f   vgui_controls:Panel.obj
 0001:0005ee30       ?HasHotkey@Panel@vgui@@UAEPAV12@_W@Z 1005fe30 f   vgui_controls:Panel.obj
 0001:0005ee40       ?InternalCursorEntered@Panel@vgui@@EAEXXZ 1005fe40 f   vgui_controls:Panel.obj
 0001:0005eea0       ?InternalCursorExited@Panel@vgui@@EAEXXZ 1005fea0 f   vgui_controls:Panel.obj
 0001:0005eef0       ?IsChildOfSurfaceModalPanel@Panel@vgui@@QAE_NXZ 1005fef0 f   vgui_controls:Panel.obj
 0001:0005efa0       ?InternalMouseTriplePressed@Panel@vgui@@EAEXH@Z 1005ffa0 f   vgui_controls:Panel.obj
 0001:0005f010       ?InternalMouseWheeled@Panel@vgui@@EAEXH@Z 10060010 f   vgui_controls:Panel.obj
 0001:0005f060       ?InternalKeyCodePressed@Panel@vgui@@EAEXH@Z 10060060 f   vgui_controls:Panel.obj
 0001:0005f0e0       ?IsValidKeyBindingsContext@Panel@vgui@@UBE_NXZ 100600e0 f   vgui_controls:Panel.obj
 0001:0005f100       ?InternalKeyFocusTicked@Panel@vgui@@EAEXXZ 10060100 f   vgui_controls:Panel.obj
 0001:0005f120       ?OnMouseWheeled@TreeNodeImage@vgui@@UAEXH@Z 10060120 f   vgui_controls:TreeView.obj
 0001:0005f120       ?OnMouseWheeled@TreeViewSubPanel@vgui@@UAEXH@Z 10060120 f   vgui_controls:TreeView.obj
 0001:0005f120       ?OnMouseWheeled@TreeNode@vgui@@UAEXH@Z 10060120 f   vgui_controls:TreeView.obj
 0001:0005f120       ?OnMouseWheeled@Panel@vgui@@UAEXH@Z 10060120 f   vgui_controls:Panel.obj
 0001:0005f170       ?OnKeyTyped@Panel@vgui@@UAEX_W@Z 10060170 f   vgui_controls:Panel.obj
 0001:0005f1c0       ?OnKeyCodeReleased@Panel@vgui@@UAEXW4ButtonCode_t@@@Z 100601c0 f   vgui_controls:Panel.obj
 0001:0005f210       ?OnKeyFocusTicked@Panel@vgui@@UAEXXZ 10060210 f   vgui_controls:Panel.obj
 0001:0005f250       ?OnMouseFocusTicked@Panel@vgui@@UAEXXZ 10060250 f   vgui_controls:Panel.obj
 0001:0005f290       ?IsWithin@Panel@vgui@@QAE_NHH@Z 10060290 f   vgui_controls:Panel.obj
 0001:0005f2f0       ?LocalToScreen@Panel@vgui@@QAEXAAH0@Z 100602f0 f   vgui_controls:Panel.obj
 0001:0005f340       ?ScreenToLocal@Panel@vgui@@QAEXAAH0@Z 10060340 f   vgui_controls:Panel.obj
 0001:0005f390       ?ParentLocalToScreen@Panel@vgui@@QAEXAAH0@Z 10060390 f   vgui_controls:Panel.obj
 0001:0005f3e0       ?MakePopup@Panel@vgui@@QAEX_N0@Z 100603e0 f   vgui_controls:Panel.obj
 0001:0005f410       ?SetCursor@Panel@vgui@@UAEXK@Z 10060410 f   vgui_controls:Panel.obj
 0001:0005f420       ?GetCursor@Panel@vgui@@UAEKXZ 10060420 f   vgui_controls:Panel.obj
 0001:0005f430       ?SetMinimumSize@Panel@vgui@@QAEXHH@Z 10060430 f   vgui_controls:Panel.obj
 0001:0005f460       ?GetMinimumSize@Panel@vgui@@QAEXAAH0@Z 10060460 f   vgui_controls:Panel.obj
 0001:0005f490       ?SetBuildModeEditable@Panel@vgui@@QAEX_N@Z 10060490 f   vgui_controls:Panel.obj
 0001:0005f4b0       ?IsBuildModeDeletable@Panel@vgui@@QAE_NXZ 100604b0 f   vgui_controls:Panel.obj
 0001:0005f4c0       ?SetBuildModeDeletable@Panel@vgui@@QAEX_N@Z 100604c0 f   vgui_controls:Panel.obj
 0001:0005f4e0       ?GetClipRect@Panel@vgui@@UAEXAAH000@Z 100604e0 f   vgui_controls:Panel.obj
 0001:0005f520       ?GetChildCount@Panel@vgui@@QAEHXZ 10060520 f   vgui_controls:Panel.obj
 0001:0005f540       ?GetChild@Panel@vgui@@QAEPAV12@H@Z 10060540 f   vgui_controls:Panel.obj
 0001:0005f590       ?RequestFocusPrev@Panel@vgui@@UAE_NI@Z 10060590 f   vgui_controls:Panel.obj
 0001:0005f5e0       ?RequestFocusNext@Panel@vgui@@UAE_NI@Z 100605e0 f   vgui_controls:Panel.obj
 0001:0005f630       ?RequestFocus@Panel@vgui@@UAEXH@Z 10060630 f   vgui_controls:Panel.obj
 0001:0005f650       ?OnRequestFocus@Panel@vgui@@MAEXII@Z 10060650 f   vgui_controls:Panel.obj
 0001:0005f6a0       ?HasFocus@Panel@vgui@@UAE_NXZ 100606a0 f   vgui_controls:Panel.obj
 0001:0005f6d0       ?SetTabPosition@Panel@vgui@@UAEXH@Z 100606d0 f   vgui_controls:Panel.obj
 0001:0005f6e0       ?GetTabPosition@Panel@vgui@@UAEHXZ 100606e0 f   vgui_controls:Panel.obj
 0001:0005f6f0       ?GetUserConfigSettings@Panel@vgui@@UAEXPAVKeyValues@@@Z 100606f0 f   vgui_controls:Panel.obj
 0001:0005f6f0       ?OnPanelEnteredDroppablePanel@Panel@vgui@@UAEXAAV?$CUtlVector@PAVKeyValues@@V?$CUtlMemory@PAVKeyValues@@H@@@@@Z 100606f0 f   vgui_controls:Panel.obj
 0001:0005f6f0       ?OnGetAdditionalDragPanels@Panel@vgui@@UAEXAAV?$CUtlVector@PAVPanel@vgui@@V?$CUtlMemory@PAVPanel@vgui@@H@@@@@Z 100606f0 f   vgui_controls:Panel.obj
 0001:0005f6f0       ?OnShowMenu@MenuButton@vgui@@UAEXPAVMenu@2@@Z 100606f0 f   vgui_controls:Frame.obj
 0001:0005f6f0       ?SetValue@CEmptyConVar@@UAEXPBD@Z 100606f0 f   tier1:convar.obj
 0001:0005f6f0       ?OnKeyCodeReleased@Frame@vgui@@MAEXW4ButtonCode_t@@@Z 100606f0 f   vgui_controls:Frame.obj
 0001:0005f6f0       ?OnExpanded@ExpandButton@vgui@@MAEXPAVPanel@2@@Z 100606f0 f   vgui_controls:ExpandButton.obj
 0001:0005f6f0       ?ApplyUserConfigSettings@Panel@vgui@@UAEXPAVKeyValues@@@Z 100606f0 f   vgui_controls:Panel.obj
 0001:0005f6f0       ?OnShowMenu@ComboBox@vgui@@UAEXPAVMenu@2@@Z 100606f0 f   vgui_controls:ComboBox.obj
 0001:0005f6f0       ?SetFrame@Image@vgui@@UAEXH@Z 100606f0 f   vgui_controls:Image.obj
 0001:0005f6f0       ?SetFrame@BlankImage@@UAEXH@Z 100606f0 f   vgui_controls:ImageList.obj
 0001:0005f6f0       ?OnMouseReleased@Panel@vgui@@UAEXW4ButtonCode_t@@@Z 100606f0 f   vgui_controls:Panel.obj
 0001:0005f6f0       ?OnStateChanged@ITilegenAction@@UAEXPAVCLayoutSystem@@@Z 100606f0 f   tilegen_actions.obj
 0001:0005f6f0       ?OnDragFailed@Panel@vgui@@UAEXAAV?$CUtlVector@PAVKeyValues@@V?$CUtlMemory@PAVKeyValues@@H@@@@@Z 100606f0 f   vgui_controls:Panel.obj
 0001:0005f6f0       ?OnBeginGeneration@ITilegenAction@@UAEXPAVCLayoutSystem@@@Z 100606f0 f   tilegen_actions.obj
 0001:0005f6f0       ?SetColor@BlankImage@@UAEXVColor@@@Z 100606f0 f   vgui_controls:ImageList.obj
 0001:0005f6f0       ?OnMouseDoublePressed@Panel@vgui@@UAEXW4ButtonCode_t@@@Z 100606f0 f   vgui_controls:Panel.obj
 0001:0005f6f0       ?SetRotation@BlankImage@@UAEXH@Z 100606f0 f   vgui_controls:ImageList.obj
 0001:0005f6f0       ?OnCreateDragData@Panel@vgui@@UAEXPAVKeyValues@@@Z 100606f0 f   vgui_controls:Panel.obj
 0001:0005f6f0       ?OnMouseDoublePressed@ListViewPanel@vgui@@MAEXW4ButtonCode_t@@@Z 100606f0 f   vgui_controls:ListViewPanel.obj
 0001:0005f6f0       ?OnMouseTriplePressed@Panel@vgui@@UAEXW4ButtonCode_t@@@Z 100606f0 f   vgui_controls:Panel.obj
 0001:0005f6f0       ?OnNavigateFrom@Panel@vgui@@UAEXPBD@Z 100606f0 f   vgui_controls:Panel.obj
 0001:0005f6f0       ?OnCheckButtonChecked@CheckButton@vgui@@MAEXPAVPanel@2@@Z 100606f0 f   vgui_controls:CheckButton.obj
 0001:0005f6f0       ?InternalFocusChanged@Panel@vgui@@EAEX_N@Z 100606f0 f   vgui_controls:Panel.obj
 0001:0005f6f0       ?OnDropContextHoverShow@Panel@vgui@@UAEXAAV?$CUtlVector@PAVKeyValues@@V?$CUtlMemory@PAVKeyValues@@H@@@@@Z 100606f0 f   vgui_controls:Panel.obj
 0001:0005f6f0       ?SetValue@CEmptyConVar@@UAEXM@Z 100606f0 f   tier1:convar.obj
 0001:0005f6f0       ?OnHideMenu@MenuButton@vgui@@UAEXPAVMenu@2@@Z 100606f0 f   vgui_controls:Frame.obj
 0001:0005f6f0       ?OnMousePressed@Panel@vgui@@UAEXW4ButtonCode_t@@@Z 100606f0 f   vgui_controls:Panel.obj
 0001:0005f6f0       ?OnPanelExitedDroppablePanel@Panel@vgui@@UAEXAAV?$CUtlVector@PAVKeyValues@@V?$CUtlMemory@PAVKeyValues@@H@@@@@Z 100606f0 f   vgui_controls:Panel.obj
 0001:0005f6f0       ?SetValue@CEmptyConVar@@UAEXH@Z 100606f0 f   tier1:convar.obj
 0001:0005f6f0       ?OnChildAdded@Panel@vgui@@UAEXI@Z 100606f0 f   vgui_controls:Panel.obj
 0001:0005f6f0       ?SetRotation@Image@vgui@@UAEXH@Z 100606f0 f   vgui_controls:CheckButton.obj
 0001:0005f6f0       ?OnDropContextHoverHide@Panel@vgui@@UAEXAAV?$CUtlVector@PAVKeyValues@@V?$CUtlMemory@PAVKeyValues@@H@@@@@Z 100606f0 f   vgui_controls:Panel.obj
 0001:0005f6f0       ?OnNavigateTo@Panel@vgui@@UAEXPBD@Z 100606f0 f   vgui_controls:Panel.obj
 0001:0005f6f0       ?GenerateChildrenOfNode@TreeView@vgui@@MAEXH@Z 100606f0 f   vgui_controls:TreeView.obj
 0001:0005f6f0       ?OnHideMenu@ComboBox@vgui@@UAEXPAVMenu@2@@Z 100606f0 f   vgui_controls:ComboBox.obj
 0001:0005f6f0       ?OnPanelDropped@Panel@vgui@@UAEXAAV?$CUtlVector@PAVKeyValues@@V?$CUtlMemory@PAVKeyValues@@H@@@@@Z 100606f0 f   vgui_controls:Panel.obj
 0001:0005f700       ?OnMouseCaptureLost@Panel@vgui@@UAEXXZ 10060700 f   vgui_controls:Panel.obj
 0001:0005f710       ?SetBorder@Panel@vgui@@UAEXPAVIBorder@2@@Z 10060710 f   vgui_controls:Panel.obj
 0001:0005f7c0       ?SetPaintBackgroundType@Panel@vgui@@UAEXH@Z 100607c0 f   vgui_controls:Panel.obj
 0001:0005f7f0       ?GetInset@Panel@vgui@@UAEXAAH000@Z 100607f0 f   vgui_controls:Panel.obj
 0001:0005f830       ?GetPaintSize@Panel@vgui@@UAEXAAH0@Z 10060830 f   vgui_controls:Panel.obj
 0001:0005f8b0       ?GetWide@Panel@vgui@@QAEHXZ 100608b0 f   vgui_controls:Panel.obj
 0001:0005f8e0       ?GetTall@Panel@vgui@@QAEHXZ 100608e0 f   vgui_controls:Panel.obj
 0001:0005f910       ?SetTall@Panel@vgui@@QAEXH@Z 10060910 f   vgui_controls:Panel.obj
 0001:0005f970       ?GetSizerClientArea@Panel@vgui@@UAEXAAH000@Z 10060970 f   vgui_controls:Panel.obj
 0001:0005f9f0       ?GetSizer@Panel@vgui@@QAEPAVCSizerBase@2@XZ 100609f0 f   vgui_controls:Panel.obj
 0001:0005fa00       ?SetSizer@Panel@vgui@@QAEXPAVCSizerBase@2@@Z 10060a00 f   vgui_controls:Panel.obj
 0001:0005fa40       ?GetMinSize@CSizerBase@vgui@@QAEXAAH0@Z 10060a40 f   vgui_controls:Panel.obj
 0001:0005fa70       ?Fill@CSizerMember@CSizerBase@vgui@@QAEXABUSizerAddArgs_t@3@@Z 10060a70 f   vgui_controls:Panel.obj
 0001:0005faa0       ?GetMemberMinSize@CSizerMember@CSizerBase@vgui@@QAEXAAH0@Z 10060aa0 f   vgui_controls:Panel.obj
 0001:0005fba0       ?Place@CSizerMember@CSizerBase@vgui@@QAEXHHHH@Z 10060ba0 f   vgui_controls:Panel.obj
 0001:0005fc40       ?SetBgColor@Panel@vgui@@UAEXVColor@@@Z 10060c40 f   vgui_controls:Panel.obj
 0001:0005fc50       ?SetFgColor@Panel@vgui@@UAEXVColor@@@Z 10060c50 f   vgui_controls:Panel.obj
 0001:0005fc60       ?GetBgColor@Panel@vgui@@UAE?AVColor@@XZ 10060c60 f   vgui_controls:Panel.obj
 0001:0005fc70       ?GetFgColor@Panel@vgui@@UAE?AVColor@@XZ 10060c70 f   vgui_controls:Panel.obj
 0001:0005fc80       ?IsCursorNone@Panel@vgui@@UAE_NXZ 10060c80 f   vgui_controls:Panel.obj
 0001:0005fc90       ?IsCursorOver@Panel@vgui@@UAE_NXZ 10060c90 f   vgui_controls:Panel.obj
 0001:0005fcd0       ?OnCommand@Panel@vgui@@UAEXPBD@Z 10060cd0 f   vgui_controls:Panel.obj
 0001:0005fd20       ?OnSliderMoved@TextEntry@vgui@@MAEXXZ 10060d20 f   vgui_controls:TextEntry.obj
 0001:0005fd20       ?OnKillFocus@Panel@vgui@@UAEXXZ 10060d20 f   vgui_controls:Panel.obj
 0001:0005fd20       ?OnSetFocus@Panel@vgui@@UAEXXZ 10060d20 f   vgui_controls:Panel.obj
 0001:0005fd30       ?SetAutoResize@Panel@vgui@@QAEXW4PinCorner_e@12@W4AutoResize_e@12@HHHH@Z 10060d30 f   vgui_controls:Panel.obj
 0001:0005fd80       ?SetPinCorner@Panel@vgui@@QAEXW4PinCorner_e@12@HH@Z 10060d80 f   vgui_controls:Panel.obj
 0001:0005fdc0       ?GetPinCorner@Panel@vgui@@QAE?AW4PinCorner_e@12@XZ 10060dc0 f   vgui_controls:Panel.obj
 0001:0005fdd0       ?GetPinOffset@Panel@vgui@@QAEXAAH0@Z 10060dd0 f   vgui_controls:Panel.obj
 0001:0005fdf0       ?GetAutoResize@Panel@vgui@@QAE?AW4AutoResize_e@12@XZ 10060df0 f   vgui_controls:Panel.obj
 0001:0005fe00       ?GetResizeOffset@Panel@vgui@@QAEXAAH0@Z 10060e00 f   vgui_controls:Panel.obj
 0001:0005fe20       ?ApplyAutoResizeSettings@Panel@vgui@@AAEXPAVKeyValues@@@Z 10060e20 f   vgui_controls:Panel.obj
 0001:00060160       ?OnUnserialized@Panel@vgui@@UAEXPAVCDmxElement@@@Z 10061160 f   vgui_controls:Panel.obj
 0001:00060190       ?GetSchemeColor@Panel@vgui@@UAE?AVColor@@PBDV3@PAVIScheme@2@@Z 10061190 f   vgui_controls:Panel.obj
 0001:000601c0       ?GetDescription@Panel@vgui@@UAEPBDXZ 100611c0 f   vgui_controls:Panel.obj
 0001:000601d0       ?InternalInvalidateLayout@Panel@vgui@@EAEXXZ 100611d0 f   vgui_controls:Panel.obj
 0001:000601d0       ?RereadAllItems@ListPanel@vgui@@UAEXXZ 100611d0 f   vgui_controls:ListPanel.obj
 0001:000601e0       ?InternalMove@Panel@vgui@@EAEXXZ 100611e0 f   vgui_controls:Panel.obj
 0001:00060290       ?QueryInterface@Panel@vgui@@MAEPAXW4EInterfaceID@2@@Z 10061290 f   vgui_controls:Panel.obj
 0001:000602a0       ?GetPanelMap@Panel@vgui@@UAEPAUPanelMap_t@2@XZ 100612a0 f   vgui_controls:Panel.obj
 0001:000602b0       ?PostMessage@Panel@vgui@@UAEXPAV12@PAVKeyValues@@M@Z 100612b0 f   vgui_controls:Panel.obj
 0001:000602f0       ?PostMessage@Panel@vgui@@UAEXIPAVKeyValues@@M@Z 100612f0 f   vgui_controls:Panel.obj
 0001:00060320       ?SetSilentMode@Panel@vgui@@UAEX_N@Z 10061320 f   vgui_controls:Panel.obj
 0001:00060340       ?PreparePanelMap@Panel@vgui@@AAEXPAUPanelMap_t@2@@Z 10061340 f   vgui_controls:Panel.obj
 0001:00060420       ?OnDelete@Panel@vgui@@UAEXXZ 10061420 f   vgui_controls:Panel.obj
 0001:00060440       ?Get@PHandle@vgui@@QAEPAVPanel@2@XZ 10061440 f   vgui_controls:Panel.obj
 0001:00060480       ?Get@VPanelHandle@vgui@@QAEIXZ 10061480 f   vgui_controls:Panel.obj
 0001:000604a0       ?Set@VPanelHandle@vgui@@QAEII@Z 100614a0 f   vgui_controls:Panel.obj
 0001:000604d0       ?SetKeyBoardInputEnabled@Panel@vgui@@UAEX_N@Z 100614d0 f   vgui_controls:Panel.obj
 0001:000605e0       ?SetMouseInputEnabled@Panel@vgui@@UAEX_N@Z 100615e0 f   vgui_controls:Panel.obj
 0001:00060620       ?IsKeyBoardInputEnabled@Panel@vgui@@UAE_NXZ 10061620 f   vgui_controls:Panel.obj
 0001:00060640       ?IsMouseInputEnabled@Panel@vgui@@UAE_NXZ 10061640 f   vgui_controls:Panel.obj
 0001:00060660       ?IsAvailableNPC@CASW_Spawn_Selection@@UAE_NPBD@Z 10061660 f   asw_spawn_selection.obj
 0001:00060660       ?HandleMouseCode@Panel@vgui@@UAE_NW4ButtonCode_t@@@Z 10061660 f   vgui_controls:Panel.obj
 0001:00060660       ?LoadFromKeyValues@CTilegenExpression_LastPlacedRoom@@UAE_NPAVKeyValues@@@Z 10061660 f   tilegen_class_factories.obj
 0001:00060660       ?LoadFromKeyValues@CTilegenAction_FinishGeneration@@UAE_NPAVKeyValues@@@Z 10061660 f   tilegen_class_factories.obj
 0001:00060660       ?LoadFromKeyValues@CTilegenAction_EpicFail@@UAE_NPAVKeyValues@@@Z 10061660 f   tilegen_class_factories.obj
 0001:00060670       ?GetData@CProportionalFloatProperty@@UAEXPAVPanel@vgui@@PAVKeyValues@@PAUPanelAnimationMapEntry@@@Z 10061670 f i vgui_controls:Panel.obj
 0001:000606d0       ?SetData@CProportionalFloatProperty@@UAEXPAVPanel@vgui@@PAVKeyValues@@PAUPanelAnimationMapEntry@@@Z 100616d0 f i vgui_controls:Panel.obj
 0001:00060730       ?InitFromDefault@CProportionalFloatProperty@@UAEXPAVPanel@vgui@@PAUPanelAnimationMapEntry@@@Z 10061730 f i vgui_controls:Panel.obj
 0001:00060790       ?GetData@CIntProperty@@UAEXPAVPanel@vgui@@PAVKeyValues@@PAUPanelAnimationMapEntry@@@Z 10061790 f i vgui_controls:Panel.obj
 0001:000607c0       ?SetData@CIntProperty@@UAEXPAVPanel@vgui@@PAVKeyValues@@PAUPanelAnimationMapEntry@@@Z 100617c0 f i vgui_controls:Panel.obj
 0001:000607f0       ?InitFromDefault@CIntProperty@@UAEXPAVPanel@vgui@@PAUPanelAnimationMapEntry@@@Z 100617f0 f i vgui_controls:Panel.obj
 0001:00060820       ?SetData@CProportionalIntProperty@@UAEXPAVPanel@vgui@@PAVKeyValues@@PAUPanelAnimationMapEntry@@@Z 10061820 f i vgui_controls:Panel.obj
 0001:00060870       ?InitFromDefault@CProportionalIntProperty@@UAEXPAVPanel@vgui@@PAUPanelAnimationMapEntry@@@Z 10061870 f i vgui_controls:Panel.obj
 0001:000608c0       ?GetData@CColorProperty@@UAEXPAVPanel@vgui@@PAVKeyValues@@PAUPanelAnimationMapEntry@@@Z 100618c0 f i vgui_controls:Panel.obj
 0001:000608f0       ?GetData@CBoolProperty@@UAEXPAVPanel@vgui@@PAVKeyValues@@PAUPanelAnimationMapEntry@@@Z 100618f0 f i vgui_controls:Panel.obj
 0001:00060920       ?SetData@CBoolProperty@@UAEXPAVPanel@vgui@@PAVKeyValues@@PAUPanelAnimationMapEntry@@@Z 10061920 f i vgui_controls:Panel.obj
 0001:00060950       ?InitFromDefault@CBoolProperty@@UAEXPAVPanel@vgui@@PAUPanelAnimationMapEntry@@@Z 10061950 f i vgui_controls:Panel.obj
 0001:000609a0       ?GetData@CStringProperty@@UAEXPAVPanel@vgui@@PAVKeyValues@@PAUPanelAnimationMapEntry@@@Z 100619a0 f i vgui_controls:Panel.obj
 0001:000609d0       ?SetData@CStringProperty@@UAEXPAVPanel@vgui@@PAVKeyValues@@PAUPanelAnimationMapEntry@@@Z 100619d0 f i vgui_controls:Panel.obj
 0001:00060a20       ?InitFromDefault@CStringProperty@@UAEXPAVPanel@vgui@@PAUPanelAnimationMapEntry@@@Z 10061a20 f i vgui_controls:Panel.obj
 0001:00060a50       ?GetData@CHFontProperty@@UAEXPAVPanel@vgui@@PAVKeyValues@@PAUPanelAnimationMapEntry@@@Z 10061a50 f i vgui_controls:Panel.obj
 0001:00060aa0       ?SetData@CHFontProperty@@UAEXPAVPanel@vgui@@PAVKeyValues@@PAUPanelAnimationMapEntry@@@Z 10061aa0 f i vgui_controls:Panel.obj
 0001:00060b10       ?InitFromDefault@CHFontProperty@@UAEXPAVPanel@vgui@@PAUPanelAnimationMapEntry@@@Z 10061b10 f i vgui_controls:Panel.obj
 0001:00060b70       ?GetData@CTextureIdProperty@@UAEXPAVPanel@vgui@@PAVKeyValues@@PAUPanelAnimationMapEntry@@@Z 10061b70 f i vgui_controls:Panel.obj
 0001:00060bf0       ?SetData@CTextureIdProperty@@UAEXPAVPanel@vgui@@PAVKeyValues@@PAUPanelAnimationMapEntry@@@Z 10061bf0 f i vgui_controls:Panel.obj
 0001:00060c70       ?InitFromDefault@CTextureIdProperty@@UAEXPAVPanel@vgui@@PAUPanelAnimationMapEntry@@@Z 10061c70 f i vgui_controls:Panel.obj
 0001:00060d80       ?SetData@CProportionalXPosProperty@@UAEXPAVPanel@vgui@@PAVKeyValues@@PAUPanelAnimationMapEntry@@@Z 10061d80 f i vgui_controls:Panel.obj
 0001:00060e10       ?InitFromDefault@CProportionalXPosProperty@@UAEXPAVPanel@vgui@@PAUPanelAnimationMapEntry@@@Z 10061e10 f i vgui_controls:Panel.obj
 0001:00060e90       ?GetData@CProportionalIntProperty@@UAEXPAVPanel@vgui@@PAVKeyValues@@PAUPanelAnimationMapEntry@@@Z 10061e90 f i vgui_controls:Panel.obj
 0001:00060e90       ?GetData@CProportionalXPosProperty@@UAEXPAVPanel@vgui@@PAVKeyValues@@PAUPanelAnimationMapEntry@@@Z 10061e90 f i vgui_controls:Panel.obj
 0001:00060e90       ?GetData@CProportionalYPosProperty@@UAEXPAVPanel@vgui@@PAVKeyValues@@PAUPanelAnimationMapEntry@@@Z 10061e90 f i vgui_controls:Panel.obj
 0001:00060ee0       ?SetData@CProportionalYPosProperty@@UAEXPAVPanel@vgui@@PAVKeyValues@@PAUPanelAnimationMapEntry@@@Z 10061ee0 f i vgui_controls:Panel.obj
 0001:00060f70       ?InitFromDefault@CProportionalYPosProperty@@UAEXPAVPanel@vgui@@PAUPanelAnimationMapEntry@@@Z 10061f70 f i vgui_controls:Panel.obj
 0001:00060ff0       ?GetPaintBackgroundType@Panel@vgui@@UAEHXZ 10061ff0 f   vgui_controls:Panel.obj
 0001:00061000       ?GetCornerTextureSize@Panel@vgui@@UAEXAAH0@Z 10062000 f   vgui_controls:Panel.obj
 0001:00061050       ?DrawBox@Panel@vgui@@UAEXHHHHVColor@@M_N@Z 10062050 f   vgui_controls:Panel.obj
 0001:000612c0       ?DrawBoxFade@Panel@vgui@@UAEXHHHHVColor@@MII_N1@Z 100622c0 f   vgui_controls:Panel.obj
 0001:00061790       ?DrawHollowBox@Panel@vgui@@UAEXHHHHVColor@@M@Z 10062790 f   vgui_controls:Panel.obj
 0001:000617c0       ?DrawTexturedBox@Panel@vgui@@UAEXHHHHVColor@@M@Z 100627c0 f   vgui_controls:Panel.obj
 0001:00061840       ?SetDragEnabled@Panel@vgui@@UAEX_N@Z 10062840 f   vgui_controls:Panel.obj
 0001:00061880       ?IsDragEnabled@Panel@vgui@@UBE_NXZ 10062880 f   vgui_controls:Panel.obj
 0001:00061890       ?SetShowDragHelper@Panel@vgui@@UAEX_N@Z 10062890 f   vgui_controls:Panel.obj
 0001:000618a0       ?SetBlockDragChaining@Panel@vgui@@UAEX_N@Z 100628a0 f   vgui_controls:Panel.obj
 0001:000618b0       ?IsBlockingDragChaining@Panel@vgui@@UBE_NXZ 100628b0 f   vgui_controls:Panel.obj
 0001:000618c0       ?GetDragStartTolerance@Panel@vgui@@UBEHXZ 100628c0 f   vgui_controls:Panel.obj
 0001:000618d0       ?SetDragSTartTolerance@Panel@vgui@@UAEXH@Z 100628d0 f   vgui_controls:Panel.obj
 0001:000618e0       ?SetDropEnabled@Panel@vgui@@UAEX_NM@Z 100628e0 f   vgui_controls:Panel.obj
 0001:00061900       ?IsDropEnabled@Panel@vgui@@UBE_NXZ 10062900 f   vgui_controls:Panel.obj
 0001:00061910       ?GetDropTarget@Panel@vgui@@UAEPAV12@AAV?$CUtlVector@PAVKeyValues@@V?$CUtlMemory@PAVKeyValues@@H@@@@@Z 10062910 f   vgui_controls:Panel.obj
 0001:00061970       ?GetDragPanel@Panel@vgui@@UAEPAV12@XZ 10062970 f   vgui_controls:Panel.obj
 0001:000619b0       ?IsDroppable@Panel@vgui@@UAE_NAAV?$CUtlVector@PAVKeyValues@@V?$CUtlMemory@PAVKeyValues@@H@@@@@Z 100629b0 f   vgui_controls:Panel.obj
 0001:000619b0       ?IsFlagSet@CEmptyConVar@@UBE_NH@Z 100629b0 f   tier1:convar.obj
 0001:000619b0       ?GetOverflow@CUtlBuffer@@IAE_NH@Z 100629b0 f   tier1:utlbuffer.obj
 0001:000619c0       ?GetDropCursor@Panel@vgui@@UAEKAAV?$CUtlVector@PAVKeyValues@@V?$CUtlMemory@PAVKeyValues@@H@@@@@Z 100629c0 f   vgui_controls:Panel.obj
 0001:000619d0       ?GetDragDropInfo@Panel@vgui@@UAEPAUDragDrop_t@2@XZ 100629d0 f   vgui_controls:Panel.obj
 0001:000619e0       ?IsKeyOverridden@Panel@vgui@@UAE_NW4ButtonCode_t@@H@Z 100629e0 f   vgui_controls:Panel.obj
 0001:000619e0       ?GetDropContextMenu@Panel@vgui@@UAE_NPAVMenu@2@AAV?$CUtlVector@PAVKeyValues@@V?$CUtlMemory@PAVKeyValues@@H@@@@@Z 100629e0 f   vgui_controls:Panel.obj
 0001:000619f0       ?IsWithinTraverse@CDragDropHelperPanel@@UAEIHH_N@Z 100629f0 f   vgui_controls:Panel.obj
 0001:00061a00       ?IsBeingDragged@Panel@vgui@@UAE_NXZ 10062a00 f   vgui_controls:Panel.obj
 0001:00061ad0       ?FillRectSkippingPanel@Panel@vgui@@UAEXVColor@@HHHHPAV12@@Z 10062ad0 f   vgui_controls:Panel.obj
 0001:00061c40       ?ToHandle@Panel@vgui@@QBEKXZ 10062c40 f   vgui_controls:Panel.obj
 0001:00061c60       ?NavigateTo@Panel@vgui@@UAEXXZ 10062c60 f   vgui_controls:Panel.obj
 0001:00061cb0       ?NavigateFrom@Panel@vgui@@UAEXXZ 10062cb0 f   vgui_controls:Panel.obj
 0001:00061df0       ?NavigateToChild@Panel@vgui@@UAEXPAV12@@Z 10062df0 f   vgui_controls:Panel.obj
 0001:00061eb0       ?IsConsoleStylePanel@Panel@vgui@@QBE_NXZ 10062eb0 f   vgui_controls:Panel.obj
 0001:00061ec0       ?Set@PHandle@vgui@@QAEPAVPanel@2@PAV32@@Z 10062ec0 f i vgui_controls:Panel.obj
 0001:00061ec0       ??4?$DHANDLE@VCDragDropHelperPanel@@@vgui@@QAEPAVCDragDropHelperPanel@@PAV2@@Z 10062ec0 f i vgui_controls:Panel.obj
 0001:00061ec0       ??4PHandle@vgui@@QAEPAVPanel@1@PAV21@@Z 10062ec0 f i vgui_controls:Panel.obj
 0001:00061f00       ??_9Panel@vgui@@$BDCE@AE   10062f00 f i vgui_controls:Panel.obj
 0001:00061f10       ??_9Panel@vgui@@$BDDE@AE   10062f10 f i vgui_controls:Panel.obj
 0001:00061f20       ??_9Panel@vgui@@$BCNI@AE   10062f20 f i vgui_controls:Panel.obj
 0001:00061f30       ??_9Panel@vgui@@$BCPI@AE   10062f30 f i vgui_controls:Panel.obj
 0001:00061f40       ??_9Panel@vgui@@$BBIE@AE   10062f40 f i vgui_controls:Panel.obj
 0001:00061f50       ??_9Panel@vgui@@$BBA@AE    10062f50 f i vgui_controls:Panel.obj
 0001:00061f60       ??_9Panel@vgui@@$BDAI@AE   10062f60 f i vgui_controls:Panel.obj
 0001:00061f70       ??_9Panel@vgui@@$BDA@AE    10062f70 f i vgui_controls:Panel.obj
 0001:00061f80       ??_9Panel@vgui@@$BDBI@AE   10062f80 f i vgui_controls:Panel.obj
 0001:00061f90       ??_9Panel@vgui@@$BDCI@AE   10062f90 f i vgui_controls:Panel.obj
 0001:00061fa0       ??_9Panel@vgui@@$BDDI@AE   10062fa0 f i vgui_controls:Panel.obj
 0001:00061fb0       ??_9Panel@vgui@@$BCNM@AE   10062fb0 f i vgui_controls:Panel.obj
 0001:00061fc0       ??_9Panel@vgui@@$BCPM@AE   10062fc0 f i vgui_controls:Panel.obj
 0001:00061fd0       ??_9Panel@vgui@@$BBII@AE   10062fd0 f i vgui_controls:Panel.obj
 0001:00061fe0       ??_9Panel@vgui@@$BDAM@AE   10062fe0 f i vgui_controls:Panel.obj
 0001:00061ff0       ??_9Panel@vgui@@$BBJI@AE   10062ff0 f i vgui_controls:Panel.obj
 0001:00062000       ??_9Panel@vgui@@$BDBM@AE   10063000 f i vgui_controls:Panel.obj
 0001:00062010       ??_9Panel@vgui@@$BDCM@AE   10063010 f i vgui_controls:Panel.obj
 0001:00062020       ??_9Panel@vgui@@$BDDM@AE   10063020 f i vgui_controls:Panel.obj
 0001:00062030       ??_9Panel@vgui@@$BBPI@AE   10063030 f i vgui_controls:Panel.obj
 0001:00062040       ??_9Panel@vgui@@$BDAA@AE   10063040 f i vgui_controls:Panel.obj
 0001:00062050       ??_9Panel@vgui@@$BBIM@AE   10063050 f i vgui_controls:Panel.obj
 0001:00062060       ??_9Panel@vgui@@$BDBA@AE   10063060 f i vgui_controls:Panel.obj
 0001:00062070       ??_9Panel@vgui@@$BDCA@AE   10063070 f i vgui_controls:Panel.obj
 0001:00062080       ??_9Panel@vgui@@$BDDA@AE   10063080 f i vgui_controls:Panel.obj
 0001:00062090       ??_9Panel@vgui@@$BBIA@AE   10063090 f i vgui_controls:Panel.obj
 0001:000620a0       ??_9Panel@vgui@@$BDAE@AE   100630a0 f i vgui_controls:Panel.obj
 0001:000620b0       ??_9Panel@vgui@@$BBJA@AE   100630b0 f i vgui_controls:Panel.obj
 0001:000620c0       ??_9Panel@vgui@@$BDBE@AE   100630c0 f i vgui_controls:Panel.obj
 0001:000620d0       ?Get@?$DHANDLE@VCDragDropHelperPanel@@@vgui@@QAEPAVCDragDropHelperPanel@@XZ 100630d0 f i vgui_controls:Panel.obj
 0001:000620d0       ??B?$DHANDLE@VMenu@vgui@@@vgui@@QAEPAVMenu@1@XZ 100630d0 f i vgui_controls:Panel.obj
 0001:000620d0       ??C?$DHANDLE@VCDragDropHelperPanel@@@vgui@@QAEPAVCDragDropHelperPanel@@XZ 100630d0 f i vgui_controls:Panel.obj
 0001:000620d0       ??CPHandle@vgui@@QAEPAVPanel@1@XZ 100630d0 f i vgui_controls:Panel.obj
 0001:00062110       ??BPHandle@vgui@@QAE_NXZ   10063110 f i vgui_controls:Panel.obj
 0001:00062170       ?OnScreenSizeChanged@Panel@vgui@@MAEXHH@Z 10063170 f   vgui_controls:Panel.obj
 0001:00062300       ?Repaint@Panel@vgui@@UAEXXZ 10063300 f   vgui_controls:Panel.obj
 0001:00062330       ?PaintBackground@Panel@vgui@@UAEXXZ 10063330 f   vgui_controls:Panel.obj
 0001:00062600       ?IsOpaque@Panel@vgui@@UAE_NXZ 10063600 f   vgui_controls:Panel.obj
 0001:00062630       ?SetMessageContextId_R@Panel@vgui@@QAEXH@Z 10063630 f   vgui_controls:Panel.obj
 0001:00062700       ?FindChildByName@Panel@vgui@@QAEPAV12@PBD_N@Z 10063700 f   vgui_controls:Panel.obj
 0001:000627f0       ?SetAutoDelete@Panel@vgui@@UAEX_N@Z 100637f0 f   vgui_controls:Panel.obj
 0001:00062810       ?IsAutoDeleteSet@Panel@vgui@@UAE_NXZ 10063810 f   vgui_controls:Panel.obj
 0001:00062820       ?DeletePanel@Panel@vgui@@UAEXXZ 10063820 f   vgui_controls:Panel.obj
 0001:00062840       ?SetTriplePressAllowed@Panel@vgui@@UAEX_N@Z 10063840 f   vgui_controls:Panel.obj
 0001:00062860       ?IsTriplePressAllowed@Panel@vgui@@UBE_NXZ 10063860 f   vgui_controls:Panel.obj
 0001:00062870       ?SetAllowKeyBindingChainToParent@Panel@vgui@@QAEX_N@Z 10063870 f   vgui_controls:Panel.obj
 0001:00062890       ?OnKeyCodePressed@Panel@vgui@@UAEXW4ButtonCode_t@@@Z 10063890 f   vgui_controls:Panel.obj
 0001:00062a80       ?OnKeyCodeTyped@Panel@vgui@@UAEXW4ButtonCode_t@@@Z 10063a80 f   vgui_controls:Panel.obj
 0001:00062c60       ?SetPaintBorderEnabled@Panel@vgui@@UAEX_N@Z 10063c60 f   vgui_controls:Panel.obj
 0001:00062c80       ?SetPaintBackgroundEnabled@Panel@vgui@@UAEX_N@Z 10063c80 f   vgui_controls:Panel.obj
 0001:00062ca0       ?SetPaintEnabled@Panel@vgui@@UAEX_N@Z 10063ca0 f   vgui_controls:Panel.obj
 0001:00062cc0       ?SetPostChildPaintEnabled@Panel@vgui@@UAEX_N@Z 10063cc0 f   vgui_controls:Panel.obj
 0001:00062ce0       ?SetWide@Panel@vgui@@QAEXH@Z 10063ce0 f   vgui_controls:Panel.obj
 0001:00062d40       ?GetSizerMinimumSize@Panel@vgui@@UAEXAAH0@Z 10063d40 f   vgui_controls:Panel.obj
 0001:00062d90       ?InvalidateLayout@Panel@vgui@@UAEX_N0@Z 10063d90 f   vgui_controls:Panel.obj
 0001:00062e90       ?MarkForDeletion@Panel@vgui@@UAEXXZ 10063e90 f   vgui_controls:Panel.obj
 0001:00062ef0       ?IsLayoutInvalid@Panel@vgui@@UAE_NXZ 10063ef0 f   vgui_controls:Panel.obj
 0001:00062f00       ?UpdateSiblingPin@Panel@vgui@@QAEXXZ 10063f00 f   vgui_controls:Panel.obj
 0001:00063030       ?GetSchemeColor@Panel@vgui@@UAE?AVColor@@PBDPAVIScheme@2@@Z 10064030 f   vgui_controls:Panel.obj
 0001:00063070       ?OnOldMessage@Panel@vgui@@AAEXPAVKeyValues@@I@Z 10064070 f   vgui_controls:Panel.obj
 0001:00063830       ?RequestInfoFromChild@Panel@vgui@@UAE_NPBDPAVKeyValues@@@Z 10064830 f   vgui_controls:Panel.obj
 0001:00063860       ?PostMessageToChild@Panel@vgui@@UAEXPBDPAVKeyValues@@@Z 10064860 f   vgui_controls:Panel.obj
 0001:000638c0       ?GetTooltip@Panel@vgui@@QAEPAVTooltip@2@XZ 100648c0 f   vgui_controls:Panel.obj
 0001:00063900       ?SetProportional@Panel@vgui@@UAEX_N@Z 10064900 f   vgui_controls:Panel.obj
 0001:000639e0       ?SetData@CColorProperty@@UAEXPAVPanel@vgui@@PAVKeyValues@@PAUPanelAnimationMapEntry@@@Z 100649e0 f i vgui_controls:Panel.obj
 0001:00063aa0       ?InitFromDefault@CColorProperty@@UAEXPAVPanel@vgui@@PAUPanelAnimationMapEntry@@@Z 10064aa0 f i vgui_controls:Panel.obj
 0001:00063b10       ?GetData@CFloatProperty@@UAEXPAVPanel@vgui@@PAVKeyValues@@PAUPanelAnimationMapEntry@@@Z 10064b10 f i vgui_controls:Panel.obj
 0001:00063b40       ?SetData@CFloatProperty@@UAEXPAVPanel@vgui@@PAVKeyValues@@PAUPanelAnimationMapEntry@@@Z 10064b40 f i vgui_controls:Panel.obj
 0001:00063b70       ?InitFromDefault@CFloatProperty@@UAEXPAVPanel@vgui@@PAUPanelAnimationMapEntry@@@Z 10064b70 f i vgui_controls:Panel.obj
 0001:00063ba0       ?OnStartDragging@Panel@vgui@@MAEXXZ 10064ba0 f   vgui_controls:Panel.obj
 0001:00063c20       ?CanStartDragging@Panel@vgui@@UAE_NHHHH@Z 10064c20 f   vgui_controls:Panel.obj
 0001:00063cd0       ?OnDraggablePanelPaint@Panel@vgui@@UAEXXZ 10064cd0 f   vgui_controls:Panel.obj
 0001:00063e10       ?OnDroppablePanelPaint@Panel@vgui@@UAEXAAV?$CUtlVector@PAVKeyValues@@V?$CUtlMemory@PAVKeyValues@@H@@@@AAV?$CUtlVector@PAVPanel@vgui@@V?$CUtlMemory@PAVPanel@vgui@@H@@@@@Z 10064e10 f   vgui_controls:Panel.obj
 0001:00063ed0       ?GetDropFrameColor@Panel@vgui@@QAE?AVColor@@XZ 10064ed0 f   vgui_controls:Panel.obj
 0001:00063ee0       ?DragDropStartDragging@Panel@vgui@@MAEXXZ 10064ee0 f   vgui_controls:Panel.obj
 0001:00064010       ?SetSkipChildDuringPainting@Panel@vgui@@UAEXPAV12@@Z 10065010 f   vgui_controls:Panel.obj
 0001:00064050       ?GetNavUp@Panel@vgui@@QAEPAV12@PAV12@@Z 10065050 f   vgui_controls:Panel.obj
 0001:00064180       ?GetNavDown@Panel@vgui@@QAEPAV12@PAV12@@Z 10065180 f   vgui_controls:Panel.obj
 0001:000642c0       ?GetNavLeft@Panel@vgui@@QAEPAV12@PAV12@@Z 100652c0 f   vgui_controls:Panel.obj
 0001:00064400       ?GetNavRight@Panel@vgui@@QAEPAV12@PAV12@@Z 10065400 f   vgui_controls:Panel.obj
 0001:00064540       ?Grow@?$CUtlMemory@VColor@@H@@QAEXH@Z 10065540 f i vgui_controls:Panel.obj
 0001:00064540       ?Grow@?$CUtlMemory@UDragHelperPanel_t@CDragDropHelperPanel@@H@@QAEXH@Z 10065540 f i vgui_controls:Panel.obj
 0001:00064540       ?Grow@?$CUtlMemory@PAVMenuButton@vgui@@H@@QAEXH@Z 10065540 f i vgui_controls:MenuBar.obj
 0001:00064540       ?Grow@?$CUtlMemory@PA_WH@@QAEXH@Z 10065540 f i vgui_controls:TextImage.obj
 0001:00064540       ?Grow@?$CUtlMemory@PAUFileData_t@vgui@@H@@QAEXH@Z 10065540 f i vgui_controls:FileOpenDialog.obj
 0001:00064540       ?Grow@?$CUtlMemory@PAVClickPanel@vgui@@H@@QAEXH@Z 10065540 f i vgui_controls:RichText.obj
 0001:00064540       ?Grow@?$CUtlMemory@V?$DHANDLE@VMenu@vgui@@@vgui@@H@@QAEXH@Z 10065540 f i vgui_controls:Menu.obj
 0001:00064540       ?Grow@?$CUtlMemory@IH@@QAEXH@Z 10065540 f i vgui_controls:Panel.obj
 0001:00064540       ?Grow@?$CUtlMemory@PAVBuildModeDialog@vgui@@H@@QAEXH@Z 10065540 f i vgui_controls:BuildModeDialog.obj
 0001:00064540       ?Grow@?$CUtlMemory@VPHandle@vgui@@H@@QAEXH@Z 10065540 f i vgui_controls:Panel.obj
 0001:00064540       ?Grow@?$CUtlMemory@PAVTreeNode@vgui@@H@@QAEXH@Z 10065540 f i vgui_controls:TreeView.obj
 0001:00064540       ?Grow@?$CUtlMemory@PAUStringPool_t@CUtlSymbolTable@@H@@QAEXH@Z 10065540 f i tier1:utlsymbol.obj
 0001:00064540       ?Grow@?$CUtlMemory@PAVMenuSeparator@vgui@@H@@QAEXH@Z 10065540 f i vgui_controls:Menu.obj
 0001:00064540       ?Grow@?$CUtlMemory@KH@@QAEXH@Z 10065540 f i vgui_controls:Panel.obj
 0001:00064540       ?Grow@?$CUtlMemory@PAVIImage@vgui@@H@@QAEXH@Z 10065540 f i vgui_controls:AnimatingImagePanel.obj
 0001:00064540       ?Grow@?$CUtlMemory@P6AXPAVIConVar@@PBDM@ZH@@QAEXH@Z 10065540 f i tier1:convar.obj
 0001:00064540       ?Grow@?$CUtlMemory@PAVPanel@vgui@@H@@QAEXH@Z 10065540 f i vgui_controls:Panel.obj
 0001:00064540       ?Grow@?$CUtlMemory@PAVPageTab@vgui@@H@@QAEXH@Z 10065540 f i vgui_controls:PropertySheet.obj
 0001:000645d0       ?Parent@?$CUtlRBTree@UNode_t@?$CUtlMap@PBDPAVIPanelAnimationPropertyConverter@vgui@@H@@HVCKeyLess@2@V?$CUtlMemory@U?$UtlRBTreeNode_t@UNode_t@?$CUtlMap@PBDPAVIPanelAnimationPropertyConverter@vgui@@H@@H@@H@@@@QBEHH@Z 100655d0 f i vgui_controls:Panel.obj
 0001:00064620       ?Grow@?$CUtlMemory@U?$UtlRBTreeNode_t@UNode_t@?$CUtlMap@PBDPAVIPanelAnimationPropertyConverter@vgui@@H@@H@@H@@QAEXH@Z 10065620 f i vgui_controls:Panel.obj
 0001:00064620       ?Grow@?$CUtlMemory@U?$UtlRBTreeNode_t@UIndexItem_t@ListPanel@vgui@@H@@H@@QAEXH@Z 10065620 f i vgui_controls:ListPanel.obj
 0001:00064620       ?Grow@?$CUtlMemory@U?$UtlRBTreeNode_t@UNode_t@?$CUtlMap@PBDUPanelMessageMapDictionaryEntry@CPanelMessageMapDictionary@@H@@H@@H@@QAEXH@Z 10065620 f i vgui_controls:Panel.obj
 0001:00064620       ?Grow@?$CUtlMemory@U?$UtlRBTreeNode_t@UNode_t@?$CUtlMap@PBDUPanelKeyBindingMapDictionaryEntry@CPanelKeyBindingMapDictionary@@H@@H@@H@@QAEXH@Z 10065620 f i vgui_controls:Panel.obj
 0001:00064620       ?Grow@?$CUtlMemory@U?$UtlRBTreeNode_t@UNode_t@?$CUtlMap@PBDUPanelAnimationMapDictionaryEntry@CPanelAnimationDictionary@@H@@H@@H@@QAEXH@Z 10065620 f i vgui_controls:AnimationController.obj
 0001:000646c0       ?MakeReadyForUse@Panel@vgui@@QAEXXZ 100656c0 f   vgui_controls:Panel.obj
 0001:000646f0       ?Think@Panel@vgui@@EAEXXZ  100656f0 f   vgui_controls:Panel.obj
 0001:00064750       ?SetParent@Panel@vgui@@UAEXI@Z 10065750 f   vgui_controls:Panel.obj
 0001:000648e0       ?LookupBinding@Panel@vgui@@QAEPAUKeyBindingMap_t@2@PBD@Z 100658e0 f   vgui_controls:Panel.obj
 0001:00064950       ?LookupMapForBinding@Panel@vgui@@QAEPAUPanelKeyBindingMap@2@PBD@Z 10065950 f   vgui_controls:Panel.obj
 0001:000649b0       ?LookupBindingByKeyCode@Panel@vgui@@QAEPAUKeyBindingMap_t@2@W4ButtonCode_t@@H@Z 100659b0 f   vgui_controls:Panel.obj
 0001:00064a20       ?IsKeyRebound@Panel@vgui@@UAE_NW4ButtonCode_t@@H@Z 10065a20 f   vgui_controls:Panel.obj
 0001:00064ad0       ?IsWithinTraverse@Panel@vgui@@UAEIHH_N@Z 10065ad0 f   vgui_controls:Panel.obj
 0001:00064ca0       ?PostActionSignal@Panel@vgui@@UAEXPAVKeyValues@@@Z 10065ca0 f   vgui_controls:Panel.obj
 0001:00064d80       ?GetElementType@CSizerBase@vgui@@QAE?AW4SizerElementType_t@2@H@Z 10065d80 f   vgui_controls:Panel.obj
 0001:00064dc0       ?GetPanel@CSizerBase@vgui@@QAEPAVPanel@2@H@Z 10065dc0 f   vgui_controls:Panel.obj
 0001:00064de0       ?RecursiveInvalidateCachedSize@CSizerBase@vgui@@QAEXXZ 10065de0 f   vgui_controls:Panel.obj
 0001:00064e30       ?CalculateSize@CBoxSizer@vgui@@UAEXXZ 10065e30 f   vgui_controls:Panel.obj
 0001:00064f10       ?DoLayout@CBoxSizer@vgui@@UAEXHHHH@Z 10065f10 f   vgui_controls:Panel.obj
 0001:000650e0       ?PerformLayout@Panel@vgui@@UAEXXZ 100660e0 f   vgui_controls:Panel.obj
 0001:00065160       ?PinToSibling@Panel@vgui@@QAEXPBDW4PinCorner_e@12@1@Z 10066160 f   vgui_controls:Panel.obj
 0001:00065200       ?GetSettings@Panel@vgui@@UAEXPAVKeyValues@@@Z 10066200 f   vgui_controls:Panel.obj
 0001:00065710       ?ApplyOverridableColors@Panel@vgui@@IAEXPAVIScheme@2@@Z 10066710 f   vgui_controls:Panel.obj
 0001:000657b0       ?SetOverridableColor@Panel@vgui@@IAEXPAVColor@@ABV3@@Z 100667b0 f   vgui_controls:Panel.obj
 0001:000657f0       ?PreparePanelMessageMap@@YAXPAUPanelMessageMap@vgui@@@Z 100667f0 f   vgui_controls:Panel.obj
 0001:000658c0       ?OnMessage@Panel@vgui@@UAEXPBVKeyValues@@I@Z 100668c0 f   vgui_controls:Panel.obj
 0001:00065fb0       ?FindPanelAnimationEntry@Panel@vgui@@AAEPAUPanelAnimationMapEntry@@PBDPAUPanelAnimationMap@@@Z 10066fb0 f   vgui_controls:Panel.obj
 0001:00066010       ?IsSelfDroppable@@YA_NAAV?$CUtlVector@PAVKeyValues@@V?$CUtlMemory@PAVKeyValues@@H@@@@@Z 10067010 f   vgui_controls:Panel.obj
 0001:00066040       ?NavigateUp@Panel@vgui@@UAEPAV12@XZ 10067040 f   vgui_controls:Panel.obj
 0001:00066080       ?NavigateDown@Panel@vgui@@UAEPAV12@XZ 10067080 f   vgui_controls:Panel.obj
 0001:000660c0       ?NavigateLeft@Panel@vgui@@UAEPAV12@XZ 100670c0 f   vgui_controls:Panel.obj
 0001:00066100       ?NavigateRight@Panel@vgui@@UAEPAV12@XZ 10067100 f   vgui_controls:Panel.obj
 0001:00066140       ?LeftChild@?$CUtlRBTree@UKBContext_t@CKeyBindingsMgr@@HP6A_NABU12@0@ZV?$CUtlMemory@U?$UtlRBTreeNode_t@UKBContext_t@CKeyBindingsMgr@@H@@H@@@@QBEHH@Z 10067140 f i vgui_controls:Panel.obj
 0001:00066190       ?LeftChild@?$CUtlRBTree@UNode_t@?$CUtlMap@PBDPAVIPanelAnimationPropertyConverter@vgui@@H@@HVCKeyLess@2@V?$CUtlMemory@U?$UtlRBTreeNode_t@UNode_t@?$CUtlMap@PBDPAVIPanelAnimationPropertyConverter@vgui@@H@@H@@H@@@@QBEHH@Z 10067190 f i vgui_controls:Panel.obj
 0001:000661e0       ?RightChild@?$CUtlRBTree@UNode_t@?$CUtlMap@PBDPAVIPanelAnimationPropertyConverter@vgui@@H@@HVCKeyLess@2@V?$CUtlMemory@U?$UtlRBTreeNode_t@UNode_t@?$CUtlMap@PBDPAVIPanelAnimationPropertyConverter@vgui@@H@@H@@H@@@@QBEHH@Z 100671e0 f i vgui_controls:Panel.obj
 0001:00066230       ?FindInsertionPosition@?$CUtlRBTree@UNode_t@?$CUtlMap@PBDPAVIPanelAnimationPropertyConverter@vgui@@H@@HVCKeyLess@2@V?$CUtlMemory@U?$UtlRBTreeNode_t@UNode_t@?$CUtlMap@PBDPAVIPanelAnimationPropertyConverter@vgui@@H@@H@@H@@@@IAEXABUNode_t@?$CUtlMap@PBDPAVIPanelAnimationPropertyConverter@vgui@@H@@AAHAA_N@Z 10067230 f i vgui_controls:Panel.obj
 0001:00066320       ?Parent@?$CUtlRBTree@UNode_t@?$CUtlMap@PBDUPanelMessageMapDictionaryEntry@CPanelMessageMapDictionary@@H@@HVCKeyLess@2@V?$CUtlMemory@U?$UtlRBTreeNode_t@UNode_t@?$CUtlMap@PBDUPanelMessageMapDictionaryEntry@CPanelMessageMapDictionary@@H@@H@@H@@@@QBEHH@Z 10067320 f i vgui_controls:Panel.obj
 0001:00066370       ?LeftChild@?$CUtlRBTree@UNode_t@?$CUtlMap@PBDUPanelMessageMapDictionaryEntry@CPanelMessageMapDictionary@@H@@HVCKeyLess@2@V?$CUtlMemory@U?$UtlRBTreeNode_t@UNode_t@?$CUtlMap@PBDUPanelMessageMapDictionaryEntry@CPanelMessageMapDictionary@@H@@H@@H@@@@QBEHH@Z 10067370 f i vgui_controls:Panel.obj
 0001:000663c0       ?RightChild@?$CUtlRBTree@UNode_t@?$CUtlMap@PBDUPanelMessageMapDictionaryEntry@CPanelMessageMapDictionary@@H@@HVCKeyLess@2@V?$CUtlMemory@U?$UtlRBTreeNode_t@UNode_t@?$CUtlMap@PBDUPanelMessageMapDictionaryEntry@CPanelMessageMapDictionary@@H@@H@@H@@@@QBEHH@Z 100673c0 f i vgui_controls:Panel.obj
 0001:00066410       ?FindInsertionPosition@?$CUtlRBTree@UNode_t@?$CUtlMap@PBDUPanelMessageMapDictionaryEntry@CPanelMessageMapDictionary@@H@@HVCKeyLess@2@V?$CUtlMemory@U?$UtlRBTreeNode_t@UNode_t@?$CUtlMap@PBDUPanelMessageMapDictionaryEntry@CPanelMessageMapDictionary@@H@@H@@H@@@@IAEXABUNode_t@?$CUtlMap@PBDUPanelMessageMapDictionaryEntry@CPanelMessageMapDictionary@@H@@AAHAA_N@Z 10067410 f i vgui_controls:Panel.obj
 0001:00066500       ?Parent@?$CUtlRBTree@UNode_t@?$CUtlMap@PBDUPanelKeyBindingMapDictionaryEntry@CPanelKeyBindingMapDictionary@@H@@HVCKeyLess@2@V?$CUtlMemory@U?$UtlRBTreeNode_t@UNode_t@?$CUtlMap@PBDUPanelKeyBindingMapDictionaryEntry@CPanelKeyBindingMapDictionary@@H@@H@@H@@@@QBEHH@Z 10067500 f i vgui_controls:Panel.obj
 0001:00066550       ?LeftChild@?$CUtlRBTree@UNode_t@?$CUtlMap@PBDUPanelKeyBindingMapDictionaryEntry@CPanelKeyBindingMapDictionary@@H@@HVCKeyLess@2@V?$CUtlMemory@U?$UtlRBTreeNode_t@UNode_t@?$CUtlMap@PBDUPanelKeyBindingMapDictionaryEntry@CPanelKeyBindingMapDictionary@@H@@H@@H@@@@QBEHH@Z 10067550 f i vgui_controls:Panel.obj
 0001:000665a0       ?RightChild@?$CUtlRBTree@UNode_t@?$CUtlMap@PBDUPanelKeyBindingMapDictionaryEntry@CPanelKeyBindingMapDictionary@@H@@HVCKeyLess@2@V?$CUtlMemory@U?$UtlRBTreeNode_t@UNode_t@?$CUtlMap@PBDUPanelKeyBindingMapDictionaryEntry@CPanelKeyBindingMapDictionary@@H@@H@@H@@@@QBEHH@Z 100675a0 f i vgui_controls:Panel.obj
 0001:000665f0       ?FindInsertionPosition@?$CUtlRBTree@UNode_t@?$CUtlMap@PBDUPanelKeyBindingMapDictionaryEntry@CPanelKeyBindingMapDictionary@@H@@HVCKeyLess@2@V?$CUtlMemory@U?$UtlRBTreeNode_t@UNode_t@?$CUtlMap@PBDUPanelKeyBindingMapDictionaryEntry@CPanelKeyBindingMapDictionary@@H@@H@@H@@@@IAEXABUNode_t@?$CUtlMap@PBDUPanelKeyBindingMapDictionaryEntry@CPanelKeyBindingMapDictionary@@H@@AAHAA_N@Z 100675f0 f i vgui_controls:Panel.obj
 0001:000666e0       ?FirstInorder@?$CUtlRBTree@UNode_t@?$CUtlMap@PBDPAVIPanelAnimationPropertyConverter@vgui@@H@@HVCKeyLess@2@V?$CUtlMemory@U?$UtlRBTreeNode_t@UNode_t@?$CUtlMap@PBDPAVIPanelAnimationPropertyConverter@vgui@@H@@H@@H@@@@QBEHXZ 100676e0 f i vgui_controls:Panel.obj
 0001:00066780       ?NewNode@?$CUtlRBTree@UNode_t@?$CUtlMap@PBDUPanelAnimationMapDictionaryEntry@CPanelAnimationDictionary@@H@@HVCKeyLess@2@V?$CUtlMemory@U?$UtlRBTreeNode_t@UNode_t@?$CUtlMap@PBDUPanelAnimationMapDictionaryEntry@CPanelAnimationDictionary@@H@@H@@H@@@@QAEHXZ 10067780 f i vgui_controls:AnimationController.obj
 0001:00066780       ?NewNode@?$CUtlRBTree@UNode_t@?$CUtlMap@PBDUPanelMessageMapDictionaryEntry@CPanelMessageMapDictionary@@H@@HVCKeyLess@2@V?$CUtlMemory@U?$UtlRBTreeNode_t@UNode_t@?$CUtlMap@PBDUPanelMessageMapDictionaryEntry@CPanelMessageMapDictionary@@H@@H@@H@@@@QAEHXZ 10067780 f i vgui_controls:Panel.obj
 0001:00066780       ?NewNode@?$CUtlRBTree@UNode_t@?$CUtlMap@PBDUPanelKeyBindingMapDictionaryEntry@CPanelKeyBindingMapDictionary@@H@@HVCKeyLess@2@V?$CUtlMemory@U?$UtlRBTreeNode_t@UNode_t@?$CUtlMap@PBDUPanelKeyBindingMapDictionaryEntry@CPanelKeyBindingMapDictionary@@H@@H@@H@@@@QAEHXZ 10067780 f i vgui_controls:Panel.obj
 0001:00066780       ?NewNode@?$CUtlRBTree@UNode_t@?$CUtlMap@PBDPAVIPanelAnimationPropertyConverter@vgui@@H@@HVCKeyLess@2@V?$CUtlMemory@U?$UtlRBTreeNode_t@UNode_t@?$CUtlMap@PBDPAVIPanelAnimationPropertyConverter@vgui@@H@@H@@H@@@@QAEHXZ 10067780 f i vgui_controls:Panel.obj
 0001:00066780       ?NewNode@?$CUtlRBTree@UIndexItem_t@ListPanel@vgui@@HP6A_NABU123@0@ZV?$CUtlMemory@U?$UtlRBTreeNode_t@UIndexItem_t@ListPanel@vgui@@H@@H@@@@QAEHXZ 10067780 f i vgui_controls:ListPanel.obj
 0001:00066850       ?IsLeftChild@?$CUtlRBTree@UNode_t@?$CUtlMap@PBDPAVIPanelAnimationPropertyConverter@vgui@@H@@HVCKeyLess@2@V?$CUtlMemory@U?$UtlRBTreeNode_t@UNode_t@?$CUtlMap@PBDPAVIPanelAnimationPropertyConverter@vgui@@H@@H@@H@@@@QBE_NH@Z 10067850 f i vgui_controls:Panel.obj
 0001:000668c0       ?RotateLeft@?$CUtlRBTree@UNode_t@?$CUtlMap@PBDPAVIPanelAnimationPropertyConverter@vgui@@H@@HVCKeyLess@2@V?$CUtlMemory@U?$UtlRBTreeNode_t@UNode_t@?$CUtlMap@PBDPAVIPanelAnimationPropertyConverter@vgui@@H@@H@@H@@@@IAEXH@Z 100678c0 f i vgui_controls:Panel.obj
 0001:000669f0       ?RotateRight@?$CUtlRBTree@UNode_t@?$CUtlMap@PBDPAVIPanelAnimationPropertyConverter@vgui@@H@@HVCKeyLess@2@V?$CUtlMemory@U?$UtlRBTreeNode_t@UNode_t@?$CUtlMap@PBDPAVIPanelAnimationPropertyConverter@vgui@@H@@H@@H@@@@IAEXH@Z 100679f0 f i vgui_controls:Panel.obj
 0001:00066af0       ?IsLeftChild@?$CUtlRBTree@UNode_t@?$CUtlMap@PBDUPanelMessageMapDictionaryEntry@CPanelMessageMapDictionary@@H@@HVCKeyLess@2@V?$CUtlMemory@U?$UtlRBTreeNode_t@UNode_t@?$CUtlMap@PBDUPanelMessageMapDictionaryEntry@CPanelMessageMapDictionary@@H@@H@@H@@@@QBE_NH@Z 10067af0 f i vgui_controls:Panel.obj
 0001:00066b60       ?RotateLeft@?$CUtlRBTree@UNode_t@?$CUtlMap@PBDUPanelMessageMapDictionaryEntry@CPanelMessageMapDictionary@@H@@HVCKeyLess@2@V?$CUtlMemory@U?$UtlRBTreeNode_t@UNode_t@?$CUtlMap@PBDUPanelMessageMapDictionaryEntry@CPanelMessageMapDictionary@@H@@H@@H@@@@IAEXH@Z 10067b60 f i vgui_controls:Panel.obj
 0001:00066c90       ?RotateRight@?$CUtlRBTree@UNode_t@?$CUtlMap@PBDUPanelMessageMapDictionaryEntry@CPanelMessageMapDictionary@@H@@HVCKeyLess@2@V?$CUtlMemory@U?$UtlRBTreeNode_t@UNode_t@?$CUtlMap@PBDUPanelMessageMapDictionaryEntry@CPanelMessageMapDictionary@@H@@H@@H@@@@IAEXH@Z 10067c90 f i vgui_controls:Panel.obj
 0001:00066d90       ?IsLeftChild@?$CUtlRBTree@UNode_t@?$CUtlMap@PBDUPanelKeyBindingMapDictionaryEntry@CPanelKeyBindingMapDictionary@@H@@HVCKeyLess@2@V?$CUtlMemory@U?$UtlRBTreeNode_t@UNode_t@?$CUtlMap@PBDUPanelKeyBindingMapDictionaryEntry@CPanelKeyBindingMapDictionary@@H@@H@@H@@@@QBE_NH@Z 10067d90 f i vgui_controls:Panel.obj
 0001:00066e00       ?RotateLeft@?$CUtlRBTree@UNode_t@?$CUtlMap@PBDUPanelKeyBindingMapDictionaryEntry@CPanelKeyBindingMapDictionary@@H@@HVCKeyLess@2@V?$CUtlMemory@U?$UtlRBTreeNode_t@UNode_t@?$CUtlMap@PBDUPanelKeyBindingMapDictionaryEntry@CPanelKeyBindingMapDictionary@@H@@H@@H@@@@IAEXH@Z 10067e00 f i vgui_controls:Panel.obj
 0001:00066f30       ?RotateRight@?$CUtlRBTree@UNode_t@?$CUtlMap@PBDUPanelKeyBindingMapDictionaryEntry@CPanelKeyBindingMapDictionary@@H@@HVCKeyLess@2@V?$CUtlMemory@U?$UtlRBTreeNode_t@UNode_t@?$CUtlMap@PBDUPanelKeyBindingMapDictionaryEntry@CPanelKeyBindingMapDictionary@@H@@H@@H@@@@IAEXH@Z 10067f30 f i vgui_controls:Panel.obj
 0001:00067030       ?RemoveAllMembers@CSizerBase@vgui@@QAEX_N@Z 10068030 f   vgui_controls:Panel.obj
 0001:00067070       ?RecursiveRemove@CSizerMember@CSizerBase@vgui@@AAEX_N@Z 10068070 f   vgui_controls:Panel.obj
 0001:000670c0       ?RemovePanel@CDragDropHelperPanel@@QAEXPAVPanel@vgui@@@Z 100680c0 f   vgui_controls:Panel.obj
 0001:00067180       ?InsertBefore@?$CUtlVector@VCSizerMember@CSizerBase@vgui@@V?$CUtlMemory@VCSizerMember@CSizerBase@vgui@@H@@@@QAEHHABVCSizerMember@CSizerBase@vgui@@@Z 10068180 f i vgui_controls:Panel.obj
 0001:00067220       ?Find@?$CUtlRBTree@UKBContext_t@CKeyBindingsMgr@@HP6A_NABU12@0@ZV?$CUtlMemory@U?$UtlRBTreeNode_t@UKBContext_t@CKeyBindingsMgr@@H@@H@@@@QBEHABUKBContext_t@CKeyBindingsMgr@@@Z 10068220 f i vgui_controls:Panel.obj
 0001:00067310       ?InsertBefore@?$CUtlVector@VColor@@V?$CUtlMemory@VColor@@H@@@@QAEHHABVColor@@@Z 10068310 f i vgui_controls:Panel.obj
 0001:00067310       ?InsertBefore@?$CUtlVector@P6AXPAVIConVar@@PBDM@ZV?$CUtlMemory@P6AXPAVIConVar@@PBDM@ZH@@@@QAEHHABQ6AXPAVIConVar@@PBDM@Z@Z 10068310 f i tier1:convar.obj
 0001:00067310       ?InsertBefore@?$CUtlVector@VPHandle@vgui@@V?$CUtlMemory@VPHandle@vgui@@H@@@@QAEHHABVPHandle@vgui@@@Z 10068310 f i vgui_controls:Panel.obj
 0001:00067310       ?InsertBefore@?$CUtlVector@IV?$CUtlMemory@IH@@@@QAEHHABI@Z 10068310 f i vgui_controls:Panel.obj
 0001:00067310       ?InsertBefore@?$CUtlVector@PAVPanel@vgui@@V?$CUtlMemory@PAVPanel@vgui@@H@@@@QAEHHABQAVPanel@vgui@@@Z 10068310 f i vgui_controls:Panel.obj
 0001:00067310       ?InsertBefore@?$CUtlVector@PAVClickPanel@vgui@@V?$CUtlMemory@PAVClickPanel@vgui@@H@@@@QAEHHABQAVClickPanel@vgui@@@Z 10068310 f i vgui_controls:RichText.obj
 0001:00067310       ?InsertBefore@?$CUtlVector@PA_WV?$CUtlMemory@PA_WH@@@@QAEHHABQA_W@Z 10068310 f i vgui_controls:TextImage.obj
 0001:00067310       ?InsertBefore@?$CUtlVector@PAVBuildModeDialog@vgui@@V?$CUtlMemory@PAVBuildModeDialog@vgui@@H@@@@QAEHHABQAVBuildModeDialog@vgui@@@Z 10068310 f i vgui_controls:BuildModeDialog.obj
 0001:00067310       ?InsertBefore@?$CUtlVector@PAUStringPool_t@CUtlSymbolTable@@V?$CUtlMemory@PAUStringPool_t@CUtlSymbolTable@@H@@@@QAEHHABQAUStringPool_t@CUtlSymbolTable@@@Z 10068310 f i tier1:utlsymbol.obj
 0001:00067310       ?InsertBefore@?$CUtlVector@PAVMenuButton@vgui@@V?$CUtlMemory@PAVMenuButton@vgui@@H@@@@QAEHHABQAVMenuButton@vgui@@@Z 10068310 f i vgui_controls:MenuBar.obj
 0001:00067310       ?InsertBefore@?$CUtlVector@KV?$CUtlMemory@KH@@@@QAEHHABK@Z 10068310 f i vgui_controls:Panel.obj
 0001:00067310       ?InsertBefore@?$CUtlVector@PAVIImage@vgui@@V?$CUtlMemory@PAVIImage@vgui@@H@@@@QAEHHABQAVIImage@vgui@@@Z 10068310 f i vgui_controls:AnimatingImagePanel.obj
 0001:00067310       ?InsertBefore@?$CUtlVector@PAVMenuSeparator@vgui@@V?$CUtlMemory@PAVMenuSeparator@vgui@@H@@@@QAEHHABQAVMenuSeparator@vgui@@@Z 10068310 f i vgui_controls:Menu.obj
 0001:00067310       ?InsertBefore@?$CUtlVector@PAVPageTab@vgui@@V?$CUtlMemory@PAVPageTab@vgui@@H@@@@QAEHHABQAVPageTab@vgui@@@Z 10068310 f i vgui_controls:PropertySheet.obj
 0001:00067310       ?InsertBefore@?$CUtlVector@PAVTreeNode@vgui@@V?$CUtlMemory@PAVTreeNode@vgui@@H@@@@QAEHHABQAVTreeNode@vgui@@@Z 10068310 f i vgui_controls:TreeView.obj
 0001:00067380       ?InsertBefore@?$CUtlVector@UBoundKey_t@vgui@@V?$CUtlMemory@UBoundKey_t@vgui@@H@@@@QAEHHABUBoundKey_t@vgui@@@Z 10068380 f i vgui_controls:Panel.obj
 0001:000673f0       ?Find@?$CUtlRBTree@UNode_t@?$CUtlMap@PBDPAVIPanelAnimationPropertyConverter@vgui@@H@@HVCKeyLess@2@V?$CUtlMemory@U?$UtlRBTreeNode_t@UNode_t@?$CUtlMap@PBDPAVIPanelAnimationPropertyConverter@vgui@@H@@H@@H@@@@QBEHABUNode_t@?$CUtlMap@PBDPAVIPanelAnimationPropertyConverter@vgui@@H@@@Z 100683f0 f i vgui_controls:Panel.obj
 0001:000674e0       ?Find@?$CUtlRBTree@UNode_t@?$CUtlMap@PBDUPanelMessageMapDictionaryEntry@CPanelMessageMapDictionary@@H@@HVCKeyLess@2@V?$CUtlMemory@U?$UtlRBTreeNode_t@UNode_t@?$CUtlMap@PBDUPanelMessageMapDictionaryEntry@CPanelMessageMapDictionary@@H@@H@@H@@@@QBEHABUNode_t@?$CUtlMap@PBDUPanelMessageMapDictionaryEntry@CPanelMessageMapDictionary@@H@@@Z 100684e0 f i vgui_controls:Panel.obj
 0001:000675d0       ?RemoveAll@?$CUtlRBTree@UNode_t@?$CUtlMap@PBDUPanelMessageMapDictionaryEntry@CPanelMessageMapDictionary@@H@@HVCKeyLess@2@V?$CUtlMemory@U?$UtlRBTreeNode_t@UNode_t@?$CUtlMap@PBDUPanelMessageMapDictionaryEntry@CPanelMessageMapDictionary@@H@@H@@H@@@@QAEXXZ 100685d0 f i vgui_controls:Panel.obj
 0001:00067660       ?FirstInorder@?$CUtlRBTree@UNode_t@?$CUtlMap@PBDUPanelMessageMapDictionaryEntry@CPanelMessageMapDictionary@@H@@HVCKeyLess@2@V?$CUtlMemory@U?$UtlRBTreeNode_t@UNode_t@?$CUtlMap@PBDUPanelMessageMapDictionaryEntry@CPanelMessageMapDictionary@@H@@H@@H@@@@QBEHXZ 10068660 f i vgui_controls:Panel.obj
 0001:00067700       ?NextInorder@?$CUtlRBTree@UNode_t@?$CUtlMap@PBDUPanelMessageMapDictionaryEntry@CPanelMessageMapDictionary@@H@@HVCKeyLess@2@V?$CUtlMemory@U?$UtlRBTreeNode_t@UNode_t@?$CUtlMap@PBDUPanelMessageMapDictionaryEntry@CPanelMessageMapDictionary@@H@@H@@H@@@@QBEHH@Z 10068700 f i vgui_controls:Panel.obj
 0001:00067890       ?Find@?$CUtlRBTree@UNode_t@?$CUtlMap@PBDUPanelKeyBindingMapDictionaryEntry@CPanelKeyBindingMapDictionary@@H@@HVCKeyLess@2@V?$CUtlMemory@U?$UtlRBTreeNode_t@UNode_t@?$CUtlMap@PBDUPanelKeyBindingMapDictionaryEntry@CPanelKeyBindingMapDictionary@@H@@H@@H@@@@QBEHABUNode_t@?$CUtlMap@PBDUPanelKeyBindingMapDictionaryEntry@CPanelKeyBindingMapDictionary@@H@@@Z 10068890 f i vgui_controls:Panel.obj
 0001:00067980       ?RemoveAll@?$CUtlRBTree@UNode_t@?$CUtlMap@PBDUPanelKeyBindingMapDictionaryEntry@CPanelKeyBindingMapDictionary@@H@@HVCKeyLess@2@V?$CUtlMemory@U?$UtlRBTreeNode_t@UNode_t@?$CUtlMap@PBDUPanelKeyBindingMapDictionaryEntry@CPanelKeyBindingMapDictionary@@H@@H@@H@@@@QAEXXZ 10068980 f i vgui_controls:Panel.obj
 0001:00067a10       ?FirstInorder@?$CUtlRBTree@UNode_t@?$CUtlMap@PBDUPanelKeyBindingMapDictionaryEntry@CPanelKeyBindingMapDictionary@@H@@HVCKeyLess@2@V?$CUtlMemory@U?$UtlRBTreeNode_t@UNode_t@?$CUtlMap@PBDUPanelKeyBindingMapDictionaryEntry@CPanelKeyBindingMapDictionary@@H@@H@@H@@@@QBEHXZ 10068a10 f i vgui_controls:Panel.obj
 0001:00067ab0       ?NextInorder@?$CUtlRBTree@UNode_t@?$CUtlMap@PBDUPanelKeyBindingMapDictionaryEntry@CPanelKeyBindingMapDictionary@@H@@HVCKeyLess@2@V?$CUtlMemory@U?$UtlRBTreeNode_t@UNode_t@?$CUtlMap@PBDUPanelKeyBindingMapDictionaryEntry@CPanelKeyBindingMapDictionary@@H@@H@@H@@@@QBEHH@Z 10068ab0 f i vgui_controls:Panel.obj
 0001:00067c40       ?RemoveAll@?$CUtlRBTree@UNode_t@?$CUtlMap@PBDPAVIPanelAnimationPropertyConverter@vgui@@H@@HVCKeyLess@2@V?$CUtlMemory@U?$UtlRBTreeNode_t@UNode_t@?$CUtlMap@PBDPAVIPanelAnimationPropertyConverter@vgui@@H@@H@@H@@@@QAEXXZ 10068c40 f i vgui_controls:Panel.obj
 0001:00067cd0       ?NextInorder@?$CUtlRBTree@UNode_t@?$CUtlMap@PBDPAVIPanelAnimationPropertyConverter@vgui@@H@@HVCKeyLess@2@V?$CUtlMemory@U?$UtlRBTreeNode_t@UNode_t@?$CUtlMap@PBDPAVIPanelAnimationPropertyConverter@vgui@@H@@H@@H@@@@QBEHH@Z 10068cd0 f i vgui_controls:Panel.obj
 0001:00067e60       ?InsertRebalance@?$CUtlRBTree@UNode_t@?$CUtlMap@PBDPAVIPanelAnimationPropertyConverter@vgui@@H@@HVCKeyLess@2@V?$CUtlMemory@U?$UtlRBTreeNode_t@UNode_t@?$CUtlMap@PBDPAVIPanelAnimationPropertyConverter@vgui@@H@@H@@H@@@@IAEXH@Z 10068e60 f i vgui_controls:Panel.obj
 0001:000683a0       ?InsertRebalance@?$CUtlRBTree@UNode_t@?$CUtlMap@PBDUPanelMessageMapDictionaryEntry@CPanelMessageMapDictionary@@H@@HVCKeyLess@2@V?$CUtlMemory@U?$UtlRBTreeNode_t@UNode_t@?$CUtlMap@PBDUPanelMessageMapDictionaryEntry@CPanelMessageMapDictionary@@H@@H@@H@@@@IAEXH@Z 100693a0 f i vgui_controls:Panel.obj
 0001:000688e0       ?InsertRebalance@?$CUtlRBTree@UNode_t@?$CUtlMap@PBDUPanelKeyBindingMapDictionaryEntry@CPanelKeyBindingMapDictionary@@H@@HVCKeyLess@2@V?$CUtlMemory@U?$UtlRBTreeNode_t@UNode_t@?$CUtlMap@PBDUPanelKeyBindingMapDictionaryEntry@CPanelKeyBindingMapDictionary@@H@@H@@H@@@@IAEXH@Z 100698e0 f i vgui_controls:Panel.obj
 0001:00068e20       ??0DragDrop_t@vgui@@QAE@XZ 10069e20 f i vgui_controls:Panel.obj
 0001:00068e80       ?OnThink@Panel@vgui@@UAEXXZ 10069e80 f   vgui_controls:Panel.obj
 0001:00069160       ?RemoveActionSignalTarget@Panel@vgui@@UAEXPAV12@@Z 1006a160 f   vgui_controls:Panel.obj
 0001:000691a0       ??1CSizerBase@vgui@@UAE@XZ 1006a1a0 f   vgui_controls:Panel.obj
 0001:00069250       ?InsertPanel@CSizerBase@vgui@@QAEXHPAVPanel@2@ABUSizerAddArgs_t@2@@Z 1006a250 f   vgui_controls:Panel.obj
 0001:000692c0       ?InsertSizer@CSizerBase@vgui@@QAEXHPAV12@ABUSizerAddArgs_t@2@@Z 1006a2c0 f   vgui_controls:Panel.obj
 0001:00069330       ?InsertSpacer@CSizerBase@vgui@@QAEXHABUSizerAddArgs_t@2@@Z 1006a330 f   vgui_controls:Panel.obj
 0001:000693a0       ??0CBoxSizer@vgui@@QAE@W4SizerLayoutDirection_t@1@@Z 1006a3a0 f   vgui_controls:Panel.obj
 0001:000693d0       ?Get@?$CUtlHandle@VBuildGroup@vgui@@@@QAEPAVBuildGroup@vgui@@XZ 1006a3d0 f i vgui_controls:Panel.obj
 0001:000693d0       ??C?$CUtlHandle@VBuildGroup@vgui@@@@QAEPAVBuildGroup@vgui@@XZ 1006a3d0 f i vgui_controls:Panel.obj
 0001:00069420       ??1?$CUtlRBTree@UNode_t@?$CUtlMap@PBDUPanelMessageMapDictionaryEntry@CPanelMessageMapDictionary@@H@@HVCKeyLess@2@V?$CUtlMemory@U?$UtlRBTreeNode_t@UNode_t@?$CUtlMap@PBDUPanelMessageMapDictionaryEntry@CPanelMessageMapDictionary@@H@@H@@H@@@@QAE@XZ 1006a420 f i vgui_controls:Panel.obj
 0001:00069480       ??1?$CUtlRBTree@UNode_t@?$CUtlMap@PBDUPanelKeyBindingMapDictionaryEntry@CPanelKeyBindingMapDictionary@@H@@HVCKeyLess@2@V?$CUtlMemory@U?$UtlRBTreeNode_t@UNode_t@?$CUtlMap@PBDUPanelKeyBindingMapDictionaryEntry@CPanelKeyBindingMapDictionary@@H@@H@@H@@@@QAE@XZ 1006a480 f i vgui_controls:Panel.obj
 0001:000694e0       ?LinkToParent@?$CUtlRBTree@UNode_t@?$CUtlMap@PBDPAVIPanelAnimationPropertyConverter@vgui@@H@@HVCKeyLess@2@V?$CUtlMemory@U?$UtlRBTreeNode_t@UNode_t@?$CUtlMap@PBDPAVIPanelAnimationPropertyConverter@vgui@@H@@H@@H@@@@IAEXHH_N@Z 1006a4e0 f i vgui_controls:Panel.obj
 0001:00069550       ?LinkToParent@?$CUtlRBTree@UNode_t@?$CUtlMap@PBDUPanelMessageMapDictionaryEntry@CPanelMessageMapDictionary@@H@@HVCKeyLess@2@V?$CUtlMemory@U?$UtlRBTreeNode_t@UNode_t@?$CUtlMap@PBDUPanelMessageMapDictionaryEntry@CPanelMessageMapDictionary@@H@@H@@H@@@@IAEXHH_N@Z 1006a550 f i vgui_controls:Panel.obj
 0001:000695c0       ?LinkToParent@?$CUtlRBTree@UNode_t@?$CUtlMap@PBDUPanelKeyBindingMapDictionaryEntry@CPanelKeyBindingMapDictionary@@H@@HVCKeyLess@2@V?$CUtlMemory@U?$UtlRBTreeNode_t@UNode_t@?$CUtlMap@PBDUPanelKeyBindingMapDictionaryEntry@CPanelKeyBindingMapDictionary@@H@@H@@H@@@@IAEXHH_N@Z 1006a5c0 f i vgui_controls:Panel.obj
 0001:00069630       ?InitVar@PanelAnimationVar_m_flAlpha@Panel@vgui@@SAXXZ 1006a630 f i vgui_controls:Panel.obj
 0001:00069690       ?InitVar@PanelAnimationVar_m_nPaintBackgroundType@Panel@vgui@@SAXXZ 1006a690 f i vgui_controls:Panel.obj
 0001:000696f0       ?InitVar@PanelAnimationVar_m_nBgTextureId1@Panel@vgui@@SAXXZ 1006a6f0 f i vgui_controls:Panel.obj
 0001:00069750       ?InitVar@PanelAnimationVar_m_nBgTextureId2@Panel@vgui@@SAXXZ 1006a750 f i vgui_controls:Panel.obj
 0001:000697b0       ?InitVar@PanelAnimationVar_m_nBgTextureId3@Panel@vgui@@SAXXZ 1006a7b0 f i vgui_controls:Panel.obj
 0001:00069810       ?InitVar@PanelAnimationVar_m_nBgTextureId4@Panel@vgui@@SAXXZ 1006a810 f i vgui_controls:Panel.obj
 0001:00069870       ?Find@CKeyBindingsMgr@@QAEPAUKBContext_t@1@W4KeyBindingContextHandle_t@vgui@@@Z 1006a870 f i vgui_controls:Panel.obj
 0001:000698e0       ?Init@Panel@vgui@@AAEXHHHH@Z 1006a8e0 f   vgui_controls:Panel.obj
 0001:00069b00       ?PaintTraverse@Panel@vgui@@MAEX_N0@Z 1006ab00 f   vgui_controls:Panel.obj
 0001:0006a010       ?InternalCursorMoved@Panel@vgui@@EAEXHH@Z 1006b010 f   vgui_controls:Panel.obj
 0001:0006a1f0       ?InternalMousePressed@Panel@vgui@@EAEXH@Z 1006b1f0 f   vgui_controls:Panel.obj
 0001:0006a2f0       ?InternalMouseDoublePressed@Panel@vgui@@EAEXH@Z 1006b2f0 f   vgui_controls:Panel.obj
 0001:0006a380       ?InternalMouseReleased@Panel@vgui@@EAEXH@Z 1006b380 f   vgui_controls:Panel.obj
 0001:0006a500       ?AddKeyBinding@Panel@vgui@@UAEXPBDHH@Z 1006b500 f   vgui_controls:Panel.obj
 0001:0006a590       ?GetKeyBindingsFile@Panel@vgui@@UBEPBDXZ 1006b590 f   vgui_controls:Panel.obj
 0001:0006a5c0       ?GetKeyBindingsFilePathID@Panel@vgui@@UBEPBDXZ 1006b5c0 f   vgui_controls:Panel.obj
 0001:0006a5f0       ?InternalKeyCodeTyped@Panel@vgui@@EAEXH@Z 1006b5f0 f   vgui_controls:Panel.obj
 0001:0006a7c0       ?InternalKeyTyped@Panel@vgui@@EAEXH@Z 1006b7c0 f   vgui_controls:Panel.obj
 0001:0006a870       ?InternalKeyCodeReleased@Panel@vgui@@EAEXH@Z 1006b870 f   vgui_controls:Panel.obj
 0001:0006a920       ?InternalSetCursor@Panel@vgui@@AAEXXZ 1006b920 f   vgui_controls:Panel.obj
 0001:0006aa30       ?IsBuildModeActive@Panel@vgui@@QAE_NXZ 1006ba30 f   vgui_controls:Panel.obj
 0001:0006aa50       ??_GCSizerBase@vgui@@UAEPAXI@Z 1006ba50 f i vgui_controls:Panel.obj
 0001:0006aa50       ??_ECBoxSizer@vgui@@UAEPAXI@Z 1006ba50 f i vgui_controls:Panel.obj
 0001:0006aa50       ??_GCBoxSizer@vgui@@UAEPAXI@Z 1006ba50 f i vgui_controls:Panel.obj
 0001:0006aa50       ??_ECSizerBase@vgui@@UAEPAXI@Z 1006ba50 f i vgui_controls:Panel.obj
 0001:0006aa70       ?SetBuildGroup@Panel@vgui@@UAEXPAVBuildGroup@2@@Z 1006ba70 f   vgui_controls:Panel.obj
 0001:0006aae0       ?IsBuildGroupEnabled@Panel@vgui@@UAE_NXZ 1006bae0 f   vgui_controls:Panel.obj
 0001:0006ab80       ?ApplySchemeSettings@Panel@vgui@@UAEXPAVIScheme@2@@Z 1006bb80 f   vgui_controls:Panel.obj
 0001:0006ac80       ?OnFinishDragging@Panel@vgui@@MAEX_NW4ButtonCode_t@@0@Z 1006bc80 f   vgui_controls:Panel.obj
 0001:0006b0e0       ?CreateDragData@Panel@vgui@@MAEXXZ 1006c0e0 f   vgui_controls:Panel.obj
 0001:0006b320       ?GetDragData@Panel@vgui@@MAEXAAV?$CUtlVector@PAVKeyValues@@V?$CUtlMemory@PAVKeyValues@@H@@@@@Z 1006c320 f   vgui_controls:Panel.obj
 0001:0006b3c0       ?PostChildPaint@CDragDropHelperPanel@@UAEXXZ 1006c3c0 f   vgui_controls:Panel.obj
 0001:0006b630       ?AddPanel@CDragDropHelperPanel@@QAEXPAVPanel@vgui@@@Z 1006c630 f   vgui_controls:Panel.obj
 0001:0006b7e0       ?FindDropTargetPanel_R@Panel@vgui@@AAEXAAV?$CUtlVector@IV?$CUtlMemory@IH@@@@HHI@Z 1006c7e0 f   vgui_controls:Panel.obj
 0001:0006b890       ?FindDropTargetPanel@Panel@vgui@@AAEPAV12@XZ 1006c890 f   vgui_controls:Panel.obj
 0001:0006bab0       ?RemoveAll@?$CUtlDict@UPanelMessageMapDictionaryEntry@CPanelMessageMapDictionary@@H@@QAEXXZ 1006cab0 f i vgui_controls:Panel.obj
 0001:0006bb00       ?RemoveAll@?$CUtlDict@UPanelKeyBindingMapDictionaryEntry@CPanelKeyBindingMapDictionary@@H@@QAEXXZ 1006cb00 f i vgui_controls:Panel.obj
 0001:0006bb50       ??1?$CUtlRBTree@UNode_t@?$CUtlMap@PBDPAVIPanelAnimationPropertyConverter@vgui@@H@@HVCKeyLess@2@V?$CUtlMemory@U?$UtlRBTreeNode_t@UNode_t@?$CUtlMap@PBDPAVIPanelAnimationPropertyConverter@vgui@@H@@H@@H@@@@QAE@XZ 1006cb50 f i vgui_controls:Panel.obj
 0001:0006bbb0       ?RemoveAll@?$CUtlDict@PAVIPanelAnimationPropertyConverter@vgui@@H@@QAEXXZ 1006cbb0 f i vgui_controls:Panel.obj
 0001:0006bc00       ?AddPanelToContext@CKeyBindingsMgr@@QAEXW4KeyBindingContextHandle_t@vgui@@PAVPanel@3@@Z 1006cc00 f i vgui_controls:Panel.obj
 0001:0006bc70       ??1Panel@vgui@@UAE@XZ      1006cc70 f   vgui_controls:Panel.obj
 0001:0006bec0       ?SetKeyBindingsContext@Panel@vgui@@UAEXW4KeyBindingContextHandle_t@2@@Z 1006cec0 f   vgui_controls:Panel.obj
 0001:0006bee0       ?InternalMouseFocusTicked@Panel@vgui@@EAEXXZ 1006cee0 f   vgui_controls:Panel.obj
 0001:0006bf30       ?AddActionSignalTarget@Panel@vgui@@UAEXPAV12@@Z 1006cf30 f   vgui_controls:Panel.obj
 0001:0006bf90       ?AddActionSignalTarget@Panel@vgui@@UAEXI@Z 1006cf90 f   vgui_controls:Panel.obj
 0001:0006c000       ?FindPanelMessageMap@CPanelMessageMapDictionary@@QAEPAUPanelMessageMap@vgui@@PBD@Z 1006d000 f   vgui_controls:Panel.obj
 0001:0006c060       ?FindPanelKeyBindingMap@CPanelKeyBindingMapDictionary@@QAEPAUPanelKeyBindingMap@vgui@@PBD@Z 1006d060 f   vgui_controls:Panel.obj
 0001:0006c0c0       ?Insert@?$CUtlRBTree@UNode_t@?$CUtlMap@PBDPAVIPanelAnimationPropertyConverter@vgui@@H@@HVCKeyLess@2@V?$CUtlMemory@U?$UtlRBTreeNode_t@UNode_t@?$CUtlMap@PBDPAVIPanelAnimationPropertyConverter@vgui@@H@@H@@H@@@@QAEHABUNode_t@?$CUtlMap@PBDPAVIPanelAnimationPropertyConverter@vgui@@H@@@Z 1006d0c0 f i vgui_controls:Panel.obj
 0001:0006c120       ?Insert@?$CUtlRBTree@UNode_t@?$CUtlMap@PBDUPanelMessageMapDictionaryEntry@CPanelMessageMapDictionary@@H@@HVCKeyLess@2@V?$CUtlMemory@U?$UtlRBTreeNode_t@UNode_t@?$CUtlMap@PBDUPanelMessageMapDictionaryEntry@CPanelMessageMapDictionary@@H@@H@@H@@@@QAEHABUNode_t@?$CUtlMap@PBDUPanelMessageMapDictionaryEntry@CPanelMessageMapDictionary@@H@@@Z 1006d120 f i vgui_controls:Panel.obj
 0001:0006c180       ?Insert@?$CUtlRBTree@UNode_t@?$CUtlMap@PBDUPanelKeyBindingMapDictionaryEntry@CPanelKeyBindingMapDictionary@@H@@HVCKeyLess@2@V?$CUtlMemory@U?$UtlRBTreeNode_t@UNode_t@?$CUtlMap@PBDUPanelKeyBindingMapDictionaryEntry@CPanelKeyBindingMapDictionary@@H@@H@@H@@@@QAEHABUNode_t@?$CUtlMap@PBDUPanelKeyBindingMapDictionaryEntry@CPanelKeyBindingMapDictionary@@H@@@Z 1006d180 f i vgui_controls:Panel.obj
 0001:0006c1e0       ?RemoveAll@?$CUtlRBTree@UKBContext_t@CKeyBindingsMgr@@HP6A_NABU12@0@ZV?$CUtlMemory@U?$UtlRBTreeNode_t@UKBContext_t@CKeyBindingsMgr@@H@@H@@@@QAEXXZ 1006d1e0 f i vgui_controls:Panel.obj
 0001:0006c270       ??0CPanelMessageMapDictionary@@QAE@XZ 1006d270 f i vgui_controls:Panel.obj
 0001:0006c2c0       ??0CPanelKeyBindingMapDictionary@@QAE@XZ 1006d2c0 f i vgui_controls:Panel.obj
 0001:0006c310       ??1?$CUtlRBTree@UKBContext_t@CKeyBindingsMgr@@HP6A_NABU12@0@ZV?$CUtlMemory@U?$UtlRBTreeNode_t@UKBContext_t@CKeyBindingsMgr@@H@@H@@@@QAE@XZ 1006d310 f i vgui_controls:Panel.obj
 0001:0006c420       ?AddPropertyConverter@Panel@vgui@@SAXPBDPAVIPanelAnimationPropertyConverter@2@@Z 1006d420 f   vgui_controls:Panel.obj
 0001:0006c4a0       ?InitPropertyConverters@Panel@vgui@@SAXXZ 1006d4a0 f   vgui_controls:Panel.obj
 0001:0006c580       ?InternalRequestInfo@Panel@vgui@@AAE_NPAUPanelAnimationMap@@PAVKeyValues@@@Z 1006d580 f   vgui_controls:Panel.obj
 0001:0006c5e0       ?InternalSetInfo@Panel@vgui@@AAE_NPAUPanelAnimationMap@@PAVKeyValues@@@Z 1006d5e0 f   vgui_controls:Panel.obj
 0001:0006c640       ?InternalApplySettings@Panel@vgui@@AAEXPAUPanelAnimationMap@@PAVKeyValues@@@Z 1006d640 f   vgui_controls:Panel.obj
 0001:0006c6f0       ?InternalInitDefaultValues@Panel@vgui@@IAEXPAUPanelAnimationMap@@@Z 1006d6f0 f   vgui_controls:Panel.obj
 0001:0006c850       ?FindOrAddPanelMessageMap@CPanelMessageMapDictionary@@QAEPAUPanelMessageMap@vgui@@PBD@Z 1006d850 f   vgui_controls:Panel.obj
 0001:0006c8f0       ?FindOrAddPanelKeyBindingMap@CPanelKeyBindingMapDictionary@@QAEPAUPanelKeyBindingMap@vgui@@PBD@Z 1006d8f0 f   vgui_controls:Panel.obj
 0001:0006c9e0       ?FindOrAddPanelMessageMap@vgui@@YAPAUPanelMessageMap@1@PBD@Z 1006d9e0 f   vgui_controls:Panel.obj
 0001:0006ca20       ?FindOrAddPanelKeyBindingMap@vgui@@YAPAUPanelKeyBindingMap@1@PBD@Z 1006da20 f   vgui_controls:Panel.obj
 0001:0006ca60       ?AddToMap@Panel@vgui@@SAXPBDP812@AEXXZHH0H0@Z 1006da60 f i vgui_controls:Panel.obj
 0001:0006cb10       ?ChainToMap@Panel@vgui@@SAXXZ 1006db10 f i vgui_controls:Panel.obj
 0001:0006cb60       ?KB_ChainToMap@Panel@vgui@@SAXXZ 1006db60 f i vgui_controls:Panel.obj
 0001:0006cbb0       ?InitVar@PanelMessageFunc_Repaint@Panel@vgui@@SAXXZ 1006dbb0 f i vgui_controls:Panel.obj
 0001:0006cc10       ?InitVar@PanelMessageFunc_OnCommand@Panel@vgui@@SAXXZ 1006dc10 f i vgui_controls:Panel.obj
 0001:0006cc70       ?InitVar@PanelMessageFunc_OnMouseCaptureLost@Panel@vgui@@SAXXZ 1006dc70 f i vgui_controls:Panel.obj
 0001:0006ccd0       ?InitVar@PanelMessageFunc_OnSetFocus@Panel@vgui@@SAXXZ 1006dcd0 f i vgui_controls:Panel.obj
 0001:0006cd30       ?InitVar@PanelMessageFunc_OnKillFocus@Panel@vgui@@SAXXZ 1006dd30 f i vgui_controls:Panel.obj
 0001:0006cd90       ?InitVar@PanelMessageFunc_OnDelete@Panel@vgui@@SAXXZ 1006dd90 f i vgui_controls:Panel.obj
 0001:0006cdf0       ?InitVar@PanelMessageFunc_OnCursorMoved@Panel@vgui@@SAXXZ 1006ddf0 f i vgui_controls:Panel.obj
 0001:0006ce60       ?InitVar@PanelMessageFunc_OnMouseFocusTicked@Panel@vgui@@SAXXZ 1006de60 f i vgui_controls:Panel.obj
 0001:0006cec0       ?InitVar@PanelMessageFunc_OnNavigateTo@Panel@vgui@@SAXXZ 1006dec0 f i vgui_controls:Panel.obj
 0001:0006cf20       ?InitVar@PanelMessageFunc_OnNavigateFrom@Panel@vgui@@SAXXZ 1006df20 f i vgui_controls:Panel.obj
 0001:0006cf80       ?InitVar@PanelMessageFunc_OnRequestFocus@Panel@vgui@@SAXXZ 1006df80 f i vgui_controls:Panel.obj
 0001:0006d000       ?InitVar@PanelMessageFunc_OnScreenSizeChanged@Panel@vgui@@SAXXZ 1006e000 f i vgui_controls:Panel.obj
 0001:0006d070       ?InitVar@PanelMessageFunc_InternalCursorMoved@Panel@vgui@@SAXXZ 1006e070 f i vgui_controls:Panel.obj
 0001:0006d0e0       ?InitVar@PanelMessageFunc_InternalCursorEntered@Panel@vgui@@SAXXZ 1006e0e0 f i vgui_controls:Panel.obj
 0001:0006d140       ?InitVar@PanelMessageFunc_InternalCursorExited@Panel@vgui@@SAXXZ 1006e140 f i vgui_controls:Panel.obj
 0001:0006d1a0       ?InitVar@PanelMessageFunc_InternalMousePressed@Panel@vgui@@SAXXZ 1006e1a0 f i vgui_controls:Panel.obj
 0001:0006d200       ?InitVar@PanelMessageFunc_InternalMouseDoublePressed@Panel@vgui@@SAXXZ 1006e200 f i vgui_controls:Panel.obj
 0001:0006d260       ?InitVar@PanelMessageFunc_InternalMouseTriplePressed@Panel@vgui@@SAXXZ 1006e260 f i vgui_controls:Panel.obj
 0001:0006d2c0       ?InitVar@PanelMessageFunc_InternalMouseReleased@Panel@vgui@@SAXXZ 1006e2c0 f i vgui_controls:Panel.obj
 0001:0006d320       ?InitVar@PanelMessageFunc_InternalMouseWheeled@Panel@vgui@@SAXXZ 1006e320 f i vgui_controls:Panel.obj
 0001:0006d380       ?InitVar@PanelMessageFunc_InternalKeyCodePressed@Panel@vgui@@SAXXZ 1006e380 f i vgui_controls:Panel.obj
 0001:0006d3e0       ?InitVar@PanelMessageFunc_InternalKeyCodeTyped@Panel@vgui@@SAXXZ 1006e3e0 f i vgui_controls:Panel.obj
 0001:0006d440       ?InitVar@PanelMessageFunc_InternalKeyTyped@Panel@vgui@@SAXXZ 1006e440 f i vgui_controls:Panel.obj
 0001:0006d4a0       ?InitVar@PanelMessageFunc_InternalKeyCodeReleased@Panel@vgui@@SAXXZ 1006e4a0 f i vgui_controls:Panel.obj
 0001:0006d500       ?InitVar@PanelMessageFunc_InternalKeyFocusTicked@Panel@vgui@@SAXXZ 1006e500 f i vgui_controls:Panel.obj
 0001:0006d560       ?InitVar@PanelMessageFunc_InternalMouseFocusTicked@Panel@vgui@@SAXXZ 1006e560 f i vgui_controls:Panel.obj
 0001:0006d5c0       ?InitVar@PanelMessageFunc_InternalInvalidateLayout@Panel@vgui@@SAXXZ 1006e5c0 f i vgui_controls:Panel.obj
 0001:0006d620       ?InitVar@PanelMessageFunc_InternalMove@Panel@vgui@@SAXXZ 1006e620 f i vgui_controls:Panel.obj
 0001:0006d680       ?ChainToMap@CDragDropHelperPanel@@SAXXZ 1006e680 f i vgui_controls:Panel.obj
 0001:0006d6f0       ?KB_ChainToMap@CDragDropHelperPanel@@SAXXZ 1006e6f0 f i vgui_controls:Panel.obj
 0001:0006d760       ??0Panel@vgui@@QAE@XZ      1006e760 f   vgui_controls:Panel.obj
 0001:0006d900       ??0Panel@vgui@@QAE@PAV01@@Z 1006e900 f   vgui_controls:Panel.obj
 0001:0006dad0       ??0Panel@vgui@@QAE@PAV01@PBD@Z 1006ead0 f   vgui_controls:Panel.obj
 0001:0006dcc0       ?PerformApplySchemeSettings@Panel@vgui@@EAEXXZ 1006ecc0 f   vgui_controls:Panel.obj
 0001:0006ddd0       ?ApplySettings@Panel@vgui@@UAEXPAVKeyValues@@@Z 1006edd0 f   vgui_controls:Panel.obj
 0001:0006e8c0       ?RequestInfo@Panel@vgui@@UAE_NPAVKeyValues@@@Z 1006f8c0 f   vgui_controls:Panel.obj
 0001:0006e930       ?SetInfo@Panel@vgui@@UAE_NPAVKeyValues@@@Z 1006f930 f   vgui_controls:Panel.obj
 0001:0006e950       ??0CDragDropHelperPanel@@QAE@XZ 1006f950 f   vgui_controls:Panel.obj
 0001:0006ea90       ?GetAnimMap@CDragDropHelperPanel@@UAEPAUPanelAnimationMap@@XZ 1006fa90 f i vgui_controls:Panel.obj
 0001:0006eaa0       ??_ECDragDropHelperPanel@@UAEPAXI@Z 1006faa0 f i vgui_controls:Panel.obj
 0001:0006eaa0       ??_GCDragDropHelperPanel@@UAEPAXI@Z 1006faa0 f i vgui_controls:Panel.obj
 0001:0006ead0       ?GetMessageMap@CDragDropHelperPanel@@UAEPAUPanelMessageMap@vgui@@XZ 1006fad0 f i vgui_controls:Panel.obj
 0001:0006eb30       ?GetKBMap@CDragDropHelperPanel@@UAEPAUPanelKeyBindingMap@vgui@@XZ 1006fb30 f i vgui_controls:Panel.obj
 0001:0006ebb0       ?OnContinueDragging@Panel@vgui@@MAEXXZ 1006fbb0 f   vgui_controls:Panel.obj
 0001:0006ef30       ?GetPanelClassName@EditablePanel@vgui@@SAPBDXZ 1006ff30 f i vgui_controls:EditablePanel.obj
 0001:0006ef40       ?OnChildAdded@EditablePanel@vgui@@MAEXI@Z 1006ff40 f   vgui_controls:EditablePanel.obj
 0001:0006efa0       ?OnKeyCodeTyped@EditablePanel@vgui@@UAEXW4ButtonCode_t@@@Z 1006ffa0 f   vgui_controls:EditablePanel.obj
 0001:0006f050       ?PerformLayout@EditablePanel@vgui@@UAEXXZ 10070050 f   vgui_controls:EditablePanel.obj
 0001:0006f1f0       ?OnSizeChanged@EditablePanel@vgui@@MAEXHH@Z 100701f0 f   vgui_controls:EditablePanel.obj
 0001:0006f250       ?OnCurrentDefaultButtonSet@EditablePanel@vgui@@MAEXI@Z 10070250 f   vgui_controls:EditablePanel.obj
 0001:0006f2e0       ?OnDefaultButtonSet@EditablePanel@vgui@@MAEXI@Z 100702e0 f   vgui_controls:EditablePanel.obj
 0001:0006f320       ?OnFindDefaultButton@EditablePanel@vgui@@MAEXXZ 10070320 f   vgui_controls:EditablePanel.obj
 0001:0006f3a0       ?ActivateBuildMode@EditablePanel@vgui@@UAEXXZ 100703a0 f   vgui_controls:EditablePanel.obj
 0001:0006f3b0       ?RegisterControlSettingsFile@EditablePanel@vgui@@UAEXPBD0@Z 100703b0 f   vgui_controls:EditablePanel.obj
 0001:0006f3c0       ?LoadUserConfig@EditablePanel@vgui@@UAEXPBDH@Z 100703c0 f   vgui_controls:EditablePanel.obj
 0001:0006f430       ?SaveUserConfig@EditablePanel@vgui@@UAEXXZ 10070430 f   vgui_controls:EditablePanel.obj
 0001:0006f470       ?LoadControlSettingsAndUserConfig@EditablePanel@vgui@@UAEXPBDH@Z 10070470 f   vgui_controls:EditablePanel.obj
 0001:0006f4a0       ?ApplyUserConfigSettings@EditablePanel@vgui@@MAEXPAVKeyValues@@@Z 100704a0 f   vgui_controls:EditablePanel.obj
 0001:0006f510       ?GetUserConfigSettings@EditablePanel@vgui@@MAEXPAVKeyValues@@@Z 10070510 f   vgui_controls:EditablePanel.obj
 0001:0006f580       ?OnClose@EditablePanel@vgui@@MAEXXZ 10070580 f   vgui_controls:EditablePanel.obj
 0001:0006f590       ?RequestInfo@EditablePanel@vgui@@UAE_NPAVKeyValues@@@Z 10070590 f   vgui_controls:EditablePanel.obj
 0001:0006f650       ?GetFocusNavGroup@EditablePanel@vgui@@MAEAAVFocusNavGroup@2@XZ 10070650 f   vgui_controls:EditablePanel.obj
 0001:0006f660       ?RequestFocusNext@EditablePanel@vgui@@UAE_NI@Z 10070660 f   vgui_controls:EditablePanel.obj
 0001:0006f6a0       ?RequestFocusPrev@EditablePanel@vgui@@UAE_NI@Z 100706a0 f   vgui_controls:EditablePanel.obj
 0001:0006f6e0       ?RequestFocus@EditablePanel@vgui@@UAEXH@Z 100706e0 f   vgui_controls:EditablePanel.obj
 0001:0006f710       ?OnSetFocus@EditablePanel@vgui@@UAEXXZ 10070710 f   vgui_controls:EditablePanel.obj
 0001:0006f780       ?ApplySettings@EditablePanel@vgui@@UAEXPAVKeyValues@@@Z 10070780 f   vgui_controls:EditablePanel.obj
 0001:0006f7b0       ?OnRequestFocus@EditablePanel@vgui@@UAEXII@Z 100707b0 f   vgui_controls:EditablePanel.obj
 0001:0006f800       ?GetCurrentKeyFocus@EditablePanel@vgui@@UAEIXZ 10070800 f   vgui_controls:EditablePanel.obj
 0001:0006f860       ?HasHotkey@EditablePanel@vgui@@UAEPAVPanel@2@_W@Z 10070860 f   vgui_controls:EditablePanel.obj
 0001:0006f900       ?SetControlEnabled@EditablePanel@vgui@@UAEXPBD_N@Z 10070900 f   vgui_controls:EditablePanel.obj
 0001:0006f930       ?SetControlVisible@EditablePanel@vgui@@UAEXPBD_N@Z 10070930 f   vgui_controls:EditablePanel.obj
 0001:0006f960       ?SetControlString@EditablePanel@vgui@@UAEXPBD0@Z 10070960 f   vgui_controls:EditablePanel.obj
 0001:0006fa00       ?SetControlString@EditablePanel@vgui@@UAEXPBDPB_W@Z 10070a00 f   vgui_controls:EditablePanel.obj
 0001:0006fa60       ?SetControlInt@EditablePanel@vgui@@UAEXPBDH@Z 10070a60 f   vgui_controls:EditablePanel.obj
 0001:0006fac0       ?GetControlInt@EditablePanel@vgui@@UAEHPBDH@Z 10070ac0 f   vgui_controls:EditablePanel.obj
 0001:0006fb30       ?GetControlString@EditablePanel@vgui@@UAEPBDPBD0@Z 10070b30 f   vgui_controls:EditablePanel.obj
 0001:0006fb60       ?GetControlString@EditablePanel@vgui@@UAEXPBDPADH0@Z 10070b60 f   vgui_controls:EditablePanel.obj
 0001:0006fbf0       ?ForceSubPanelsToUpdateWithNewDialogVariables@EditablePanel@vgui@@AAEXXZ 10070bf0 f   vgui_controls:EditablePanel.obj
 0001:0006fcd0       ?GetDialogVariables@EditablePanel@vgui@@QAEPAVKeyValues@@XZ 10070cd0 f   vgui_controls:EditablePanel.obj
 0001:0006fd10       ?CreateControlByName@EditablePanel@vgui@@UAEPAVPanel@2@PBD@Z 10070d10 f   vgui_controls:EditablePanel.obj
 0001:0006fd20       ??_9EditablePanel@vgui@@$BDKA@AE 10070d20 f i vgui_controls:EditablePanel.obj
 0001:0006fd30       ??_9EditablePanel@vgui@@$BDKE@AE 10070d30 f i vgui_controls:EditablePanel.obj
 0001:0006fd40       ??_9EditablePanel@vgui@@$BDJM@AE 10070d40 f i vgui_controls:EditablePanel.obj
 0001:0006fd50       ??1EditablePanel@vgui@@UAE@XZ 10070d50 f   vgui_controls:EditablePanel.obj
 0001:0006fdb0       ?GetMessageMap@EditablePanel@vgui@@UAEPAUPanelMessageMap@2@XZ 10070db0 f i vgui_controls:EditablePanel.obj
 0001:0006fde0       ?GetAnimMap@EditablePanel@vgui@@UAEPAUPanelAnimationMap@@XZ 10070de0 f i vgui_controls:EditablePanel.obj
 0001:0006fdf0       ?GetKBMap@EditablePanel@vgui@@UAEPAUPanelKeyBindingMap@2@XZ 10070df0 f i vgui_controls:EditablePanel.obj
 0001:0006fe20       ?LoadControlSettings@EditablePanel@vgui@@UAEXPBD0PAVKeyValues@@1@Z 10070e20 f   vgui_controls:EditablePanel.obj
 0001:0006fe60       ?SetDialogVariable@EditablePanel@vgui@@UAEXPBD0@Z 10070e60 f   vgui_controls:EditablePanel.obj
 0001:0006feb0       ?SetDialogVariable@EditablePanel@vgui@@UAEXPBDPB_W@Z 10070eb0 f   vgui_controls:EditablePanel.obj
 0001:0006ff00       ?SetDialogVariable@EditablePanel@vgui@@UAEXPBDH@Z 10070f00 f   vgui_controls:EditablePanel.obj
 0001:0006ff50       ?SetDialogVariable@EditablePanel@vgui@@UAEXPBDM@Z 10070f50 f   vgui_controls:EditablePanel.obj
 0001:0006ffa0       ??_EEditablePanel@vgui@@UAEPAXI@Z 10070fa0 f i vgui_controls:EditablePanel.obj
 0001:0006ffa0       ??_GEditablePanel@vgui@@UAEPAXI@Z 10070fa0 f i vgui_controls:EditablePanel.obj
 0001:0006ffc0       ?AddToMap@EditablePanel@vgui@@SAXPBDP8Panel@2@AEXXZHH0H0@Z 10070fc0 f i vgui_controls:EditablePanel.obj
 0001:00070040       ?InitVar@PanelMessageFunc_OnDefaultButtonSet@EditablePanel@vgui@@SAXXZ 10071040 f i vgui_controls:EditablePanel.obj
 0001:000700a0       ?InitVar@PanelMessageFunc_OnCurrentDefaultButtonSet@EditablePanel@vgui@@SAXXZ 100710a0 f i vgui_controls:EditablePanel.obj
 0001:00070100       ?InitVar@PanelMessageFunc_OnFindDefaultButton@EditablePanel@vgui@@SAXXZ 10071100 f i vgui_controls:EditablePanel.obj
 0001:00070160       ??0EditablePanel@vgui@@QAE@PAVPanel@1@PBD@Z 10071160 f   vgui_controls:EditablePanel.obj
 0001:000702a0       ?GetPanelClassName@AnimationController@vgui@@SAPBDXZ 100712a0 f i vgui_controls:AnimationController.obj
 0001:000702b0       ?LookupAlignment@AnimationController@vgui@@CA?AW4RelativeAlignment@12@PBD@Z 100712b0 f   vgui_controls:AnimationController.obj
 0001:000702f0       ?SetupPosition@AnimationController@vgui@@AAEXAAUAnimCmdAnimate_t@12@PAMPBDH@Z 100712f0 f   vgui_controls:AnimationController.obj
 0001:00070480       ?UpdateScreenSize@AnimationController@vgui@@AAE_NXZ 10071480 f   vgui_controls:AnimationController.obj
 0001:00070550       ?GetInterpolatedValue@AnimationController@vgui@@AAE?AUValue_t@12@HMMMMAAU312@0@Z 10071550 f   vgui_controls:AnimationController.obj
 0001:000706c0       ?RunCmd_SetFont@AnimationController@vgui@@AAEXAAUPostedMessage_t@12@@Z 100716c0 f   vgui_controls:AnimationController.obj
 0001:00070790       ?RunCmd_SetTexture@AnimationController@vgui@@AAEXAAUPostedMessage_t@12@@Z 10071790 f   vgui_controls:AnimationController.obj
 0001:00070790       ?RunCmd_SetString@AnimationController@vgui@@AAEXAAUPostedMessage_t@12@@Z 10071790 f   vgui_controls:AnimationController.obj
 0001:00070840       ?GetRelativeOffset@AnimationController@vgui@@AAEHAAUAnimAlign_t@12@_N@Z 10071840 f   vgui_controls:AnimationController.obj
 0001:00070a20       ?LessFunc@?$CDefOps@PAX@@SA_NABQAX0@Z 10071a20 f i vgui_controls:AnimationController.obj
 0001:00070a40       ?GetValue@AnimationController@vgui@@AAE?AUValue_t@12@AAUActiveAnimation_t@12@PAVPanel@2@G@Z 10071a40 f   vgui_controls:AnimationController.obj
 0001:00071160       ?SetValue@AnimationController@vgui@@AAEXAAUActiveAnimation_t@12@PAVPanel@2@GAAUValue_t@12@@Z 10072160 f   vgui_controls:AnimationController.obj
 0001:00071760       ?Grow@?$CUtlMemory@UAnimCommand_t@AnimationController@vgui@@H@@QAEXH@Z 10072760 f i vgui_controls:AnimationController.obj
 0001:000717f0       ?Grow@?$CUtlMemory@VCSizerMember@CSizerBase@vgui@@H@@QAEXH@Z 100727f0 f i vgui_controls:Panel.obj
 0001:000717f0       ?Grow@?$CUtlMemory@UAnimSequence_t@AnimationController@vgui@@H@@QAEXH@Z 100727f0 f i vgui_controls:AnimationController.obj
 0001:000718a0       ?Grow@?$CUtlMemory@UActiveAnimation_t@AnimationController@vgui@@H@@QAEXH@Z 100728a0 f i vgui_controls:AnimationController.obj
 0001:00071950       ?Links@?$CUtlRBTree@PAXGP6A_NABQAX0@ZV?$CUtlMemory@U?$UtlRBTreeNode_t@PAXG@@G@@@@IBEABU?$UtlRBTreeLinks_t@G@@G@Z 10072950 f i vgui_controls:AnimationController.obj
 0001:000719b0       ?Parent@?$CUtlRBTree@UNode_t@?$CUtlMap@PBDUPanelAnimationMapDictionaryEntry@CPanelAnimationDictionary@@H@@HVCKeyLess@2@V?$CUtlMemory@U?$UtlRBTreeNode_t@UNode_t@?$CUtlMap@PBDUPanelAnimationMapDictionaryEntry@CPanelAnimationDictionary@@H@@H@@H@@@@QBEHH@Z 100729b0 f i vgui_controls:AnimationController.obj
 0001:00071a00       ?FindInsertionPosition@?$CUtlRBTree@PAXGP6A_NABQAX0@ZV?$CUtlMemory@U?$UtlRBTreeNode_t@PAXG@@G@@@@IAEXABQAXAAGAA_N@Z 10072a00 f i vgui_controls:AnimationController.obj
 0001:00071b10       ?LeftChild@?$CUtlRBTree@UNode_t@?$CUtlMap@PBDUPanelAnimationMapDictionaryEntry@CPanelAnimationDictionary@@H@@HVCKeyLess@2@V?$CUtlMemory@U?$UtlRBTreeNode_t@UNode_t@?$CUtlMap@PBDUPanelAnimationMapDictionaryEntry@CPanelAnimationDictionary@@H@@H@@H@@@@QBEHH@Z 10072b10 f i vgui_controls:AnimationController.obj
 0001:00071b60       ?RightChild@?$CUtlRBTree@UNode_t@?$CUtlMap@PBDUPanelAnimationMapDictionaryEntry@CPanelAnimationDictionary@@H@@HVCKeyLess@2@V?$CUtlMemory@U?$UtlRBTreeNode_t@UNode_t@?$CUtlMap@PBDUPanelAnimationMapDictionaryEntry@CPanelAnimationDictionary@@H@@H@@H@@@@QBEHH@Z 10072b60 f i vgui_controls:AnimationController.obj
 0001:00071bb0       ?FindInsertionPosition@?$CUtlRBTree@UNode_t@?$CUtlMap@PBDUPanelAnimationMapDictionaryEntry@CPanelAnimationDictionary@@H@@HVCKeyLess@2@V?$CUtlMemory@U?$UtlRBTreeNode_t@UNode_t@?$CUtlMap@PBDUPanelAnimationMapDictionaryEntry@CPanelAnimationDictionary@@H@@H@@H@@@@IAEXABUNode_t@?$CUtlMap@PBDUPanelAnimationMapDictionaryEntry@CPanelAnimationDictionary@@H@@AAHAA_N@Z 10072bb0 f i vgui_controls:AnimationController.obj
 0001:00071ca0       ?NewNode@?$CUtlRBTree@VCStringPoolIndex@CUtlSymbolTable@@GVCLess@2@V?$CUtlMemory@U?$UtlRBTreeNode_t@VCStringPoolIndex@CUtlSymbolTable@@G@@G@@@@QAEGXZ 10072ca0 f i tier1:utlsymbol.obj
 0001:00071ca0       ?NewNode@?$CUtlRBTree@PBDGP6A_NABQBD0@ZV?$CUtlMemory@U?$UtlRBTreeNode_t@PBDG@@G@@@@QAEGXZ 10072ca0 f i tier1:stringpool.obj
 0001:00071ca0       ?NewNode@?$CUtlRBTree@PAXGP6A_NABQAX0@ZV?$CUtlMemory@U?$UtlRBTreeNode_t@PAXG@@G@@@@QAEGXZ 10072ca0 f i vgui_controls:AnimationController.obj
 0001:00071db0       ?FirstInorder@?$CUtlRBTree@UNode_t@?$CUtlMap@PBDUPanelAnimationMapDictionaryEntry@CPanelAnimationDictionary@@H@@HVCKeyLess@2@V?$CUtlMemory@U?$UtlRBTreeNode_t@UNode_t@?$CUtlMap@PBDUPanelAnimationMapDictionaryEntry@CPanelAnimationDictionary@@H@@H@@H@@@@QBEHXZ 10072db0 f i vgui_controls:AnimationController.obj
 0001:00071e50       ?RotateLeft@?$CUtlRBTree@PAXGP6A_NABQAX0@ZV?$CUtlMemory@U?$UtlRBTreeNode_t@PAXG@@G@@@@IAEXG@Z 10072e50 f i vgui_controls:AnimationController.obj
 0001:00071f50       ?RotateRight@?$CUtlRBTree@PAXGP6A_NABQAX0@ZV?$CUtlMemory@U?$UtlRBTreeNode_t@PAXG@@G@@@@IAEXG@Z 10072f50 f i vgui_controls:AnimationController.obj
 0001:00072050       ?IsLeftChild@?$CUtlRBTree@UNode_t@?$CUtlMap@PBDUPanelAnimationMapDictionaryEntry@CPanelAnimationDictionary@@H@@HVCKeyLess@2@V?$CUtlMemory@U?$UtlRBTreeNode_t@UNode_t@?$CUtlMap@PBDUPanelAnimationMapDictionaryEntry@CPanelAnimationDictionary@@H@@H@@H@@@@QBE_NH@Z 10073050 f i vgui_controls:AnimationController.obj
 0001:000720c0       ?RotateLeft@?$CUtlRBTree@UNode_t@?$CUtlMap@PBDUPanelAnimationMapDictionaryEntry@CPanelAnimationDictionary@@H@@HVCKeyLess@2@V?$CUtlMemory@U?$UtlRBTreeNode_t@UNode_t@?$CUtlMap@PBDUPanelAnimationMapDictionaryEntry@CPanelAnimationDictionary@@H@@H@@H@@@@IAEXH@Z 100730c0 f i vgui_controls:AnimationController.obj
 0001:000721f0       ?RotateRight@?$CUtlRBTree@UNode_t@?$CUtlMap@PBDUPanelAnimationMapDictionaryEntry@CPanelAnimationDictionary@@H@@HVCKeyLess@2@V?$CUtlMemory@U?$UtlRBTreeNode_t@UNode_t@?$CUtlMap@PBDUPanelAnimationMapDictionaryEntry@CPanelAnimationDictionary@@H@@H@@H@@@@IAEXH@Z 100731f0 f i vgui_controls:AnimationController.obj
 0001:000722f0       ?UpdateActiveAnimations@AnimationController@vgui@@AAEX_N@Z 100732f0 f   vgui_controls:AnimationController.obj
 0001:00072490       ?RemoveQueuedAnimationCommands@AnimationController@vgui@@AAEXGPAVPanel@2@@Z 10073490 f   vgui_controls:AnimationController.obj
 0001:000725d0       ?RemoveQueuedAnimationByType@AnimationController@vgui@@AAEXPAVPanel@2@GG@Z 100735d0 f   vgui_controls:AnimationController.obj
 0001:00072680       ?RunCmd_StopPanelAnimations@AnimationController@vgui@@AAEXAAUPostedMessage_t@12@@Z 10073680 f   vgui_controls:AnimationController.obj
 0001:00072740       ?RunCmd_StopAnimation@AnimationController@vgui@@AAEXAAUPostedMessage_t@12@@Z 10073740 f   vgui_controls:AnimationController.obj
 0001:00072780       ?InsertBefore@?$CUtlVector@UActiveAnimation_t@AnimationController@vgui@@V?$CUtlMemory@UActiveAnimation_t@AnimationController@vgui@@H@@@@QAEHH@Z 10073780 f i vgui_controls:AnimationController.obj
 0001:00072800       ?InsertBefore@?$CUtlVector@UPostedMessage_t@AnimationController@vgui@@V?$CUtlMemory@UPostedMessage_t@AnimationController@vgui@@H@@@@QAEHH@Z 10073800 f i vgui_controls:AnimationController.obj
 0001:00072870       ?Find@?$CUtlRBTree@PAXGP6A_NABQAX0@ZV?$CUtlMemory@U?$UtlRBTreeNode_t@PAXG@@G@@@@QBEGABQAX@Z 10073870 f i vgui_controls:AnimationController.obj
 0001:00072980       ?Find@?$CUtlRBTree@UNode_t@?$CUtlMap@PBDUPanelAnimationMapDictionaryEntry@CPanelAnimationDictionary@@H@@HVCKeyLess@2@V?$CUtlMemory@U?$UtlRBTreeNode_t@UNode_t@?$CUtlMap@PBDUPanelAnimationMapDictionaryEntry@CPanelAnimationDictionary@@H@@H@@H@@@@QBEHABUNode_t@?$CUtlMap@PBDUPanelAnimationMapDictionaryEntry@CPanelAnimationDictionary@@H@@@Z 10073980 f i vgui_controls:AnimationController.obj
 0001:00072a70       ?RemoveAll@?$CUtlRBTree@PAXGP6A_NABQAX0@ZV?$CUtlMemory@U?$UtlRBTreeNode_t@PAXG@@G@@@@QAEXXZ 10073a70 f i vgui_controls:AnimationController.obj
 0001:00072b30       ?RemoveAll@?$CUtlRBTree@UNode_t@?$CUtlMap@PBDUPanelAnimationMapDictionaryEntry@CPanelAnimationDictionary@@H@@HVCKeyLess@2@V?$CUtlMemory@U?$UtlRBTreeNode_t@UNode_t@?$CUtlMap@PBDUPanelAnimationMapDictionaryEntry@CPanelAnimationDictionary@@H@@H@@H@@@@QAEXXZ 10073b30 f i vgui_controls:AnimationController.obj
 0001:00072bc0       ?NextInorder@?$CUtlRBTree@UNode_t@?$CUtlMap@PBDUPanelAnimationMapDictionaryEntry@CPanelAnimationDictionary@@H@@HVCKeyLess@2@V?$CUtlMemory@U?$UtlRBTreeNode_t@UNode_t@?$CUtlMap@PBDUPanelAnimationMapDictionaryEntry@CPanelAnimationDictionary@@H@@H@@H@@@@QBEHH@Z 10073bc0 f i vgui_controls:AnimationController.obj
 0001:00072d50       ?InsertRebalance@?$CUtlRBTree@PAXGP6A_NABQAX0@ZV?$CUtlMemory@U?$UtlRBTreeNode_t@PAXG@@G@@@@IAEXG@Z 10073d50 f i vgui_controls:AnimationController.obj
 0001:000732c0       ?InsertRebalance@?$CUtlRBTree@UNode_t@?$CUtlMap@PBDUPanelAnimationMapDictionaryEntry@CPanelAnimationDictionary@@H@@HVCKeyLess@2@V?$CUtlMemory@U?$UtlRBTreeNode_t@UNode_t@?$CUtlMap@PBDUPanelAnimationMapDictionaryEntry@CPanelAnimationDictionary@@H@@H@@H@@@@IAEXH@Z 100742c0 f i vgui_controls:AnimationController.obj
 0001:00073800       ?LinkToParent@?$CUtlRBTree@UNode_t@?$CUtlMap@PBDUPanelAnimationMapDictionaryEntry@CPanelAnimationDictionary@@H@@HVCKeyLess@2@V?$CUtlMemory@U?$UtlRBTreeNode_t@UNode_t@?$CUtlMap@PBDUPanelAnimationMapDictionaryEntry@CPanelAnimationDictionary@@H@@H@@H@@@@IAEXHH_N@Z 10074800 f i vgui_controls:AnimationController.obj
 0001:00073870       ?StartCmd_Animate@AnimationController@vgui@@AAEXPAVPanel@2@GAAUAnimCmdAnimate_t@12@@Z 10074870 f   vgui_controls:AnimationController.obj
 0001:00073910       ??1?$CUtlRBTree@UNode_t@?$CUtlMap@PBDUPanelAnimationMapDictionaryEntry@CPanelAnimationDictionary@@H@@HVCKeyLess@2@V?$CUtlMemory@U?$UtlRBTreeNode_t@UNode_t@?$CUtlMap@PBDUPanelAnimationMapDictionaryEntry@CPanelAnimationDictionary@@H@@H@@H@@@@QAE@XZ 10074910 f i vgui_controls:AnimationController.obj
 0001:00073970       ?RemoveAll@?$CUtlDict@UPanelAnimationMapDictionaryEntry@CPanelAnimationDictionary@@H@@QAEXXZ 10074970 f i vgui_controls:AnimationController.obj
 0001:000739c0       ?RunAnimationCommand@AnimationController@vgui@@QAEXPAVPanel@2@PBDMMMW4Interpolators_e@12@M@Z 100749c0 f   vgui_controls:AnimationController.obj
 0001:00073a60       ?RunAnimationCommand@AnimationController@vgui@@QAEXPAVPanel@2@PBDVColor@@MMW4Interpolators_e@12@M@Z 10074a60 f   vgui_controls:AnimationController.obj
 0001:00073b30       ?StartCmd_Animate@AnimationController@vgui@@AAEXGAAUAnimCmdAnimate_t@12@PAVPanel@2@@Z 10074b30 f   vgui_controls:AnimationController.obj
 0001:00073bb0       ?FindPanelAnimationMap@CPanelAnimationDictionary@@QAEPAUPanelAnimationMap@@PBD@Z 10074bb0 f   vgui_controls:AnimationController.obj
 0001:00073c10       ?InsertBefore@?$CUtlVector@UAnimSequence_t@AnimationController@vgui@@V?$CUtlMemory@UAnimSequence_t@AnimationController@vgui@@H@@@@QAEHH@Z 10074c10 f i vgui_controls:AnimationController.obj
 0001:00073ca0       ?Insert@?$CUtlRBTree@UNode_t@?$CUtlMap@PBDUPanelAnimationMapDictionaryEntry@CPanelAnimationDictionary@@H@@HVCKeyLess@2@V?$CUtlMemory@U?$UtlRBTreeNode_t@UNode_t@?$CUtlMap@PBDUPanelAnimationMapDictionaryEntry@CPanelAnimationDictionary@@H@@H@@H@@@@QAEHABUNode_t@?$CUtlMap@PBDUPanelAnimationMapDictionaryEntry@CPanelAnimationDictionary@@H@@@Z 10074ca0 f i vgui_controls:AnimationController.obj
 0001:00073d00       ?ExecAnimationCommand@AnimationController@vgui@@AAEXGAAUAnimCommand_t@12@PAVPanel@2@@Z 10074d00 f   vgui_controls:AnimationController.obj
 0001:00073d90       ?Remove@?$CUtlVector@UAnimSequence_t@AnimationController@vgui@@V?$CUtlMemory@UAnimSequence_t@AnimationController@vgui@@H@@@@QAEXH@Z 10074d90 f i vgui_controls:AnimationController.obj
 0001:00073df0       ?RemoveAll@?$CUtlVector@UAnimSequence_t@AnimationController@vgui@@V?$CUtlMemory@UAnimSequence_t@AnimationController@vgui@@H@@@@QAEXXZ 10074df0 f i vgui_controls:AnimationController.obj
 0001:00073e90       ?Clear@?$CClassMemoryPool@UPanelAnimationMap@@@@QAEXXZ 10074e90 f i vgui_controls:AnimationController.obj
 0001:00074070       ?ParseScriptFile@AnimationController@vgui@@AAE_NPADH@Z 10075070 f   vgui_controls:AnimationController.obj
 0001:00074b80       ??1?$CUtlVector@UAnimSequence_t@AnimationController@vgui@@V?$CUtlMemory@UAnimSequence_t@AnimationController@vgui@@H@@@@QAE@XZ 10075b80 f i vgui_controls:AnimationController.obj
 0001:00074be0       ?GetMessageMap@AnimationController@vgui@@UAEPAUPanelMessageMap@2@XZ 10075be0 f i vgui_controls:AnimationController.obj
 0001:00074c10       ?GetKBMap@AnimationController@vgui@@UAEPAUPanelKeyBindingMap@2@XZ 10075c10 f i vgui_controls:AnimationController.obj
 0001:00074c40       ?LoadScriptFile@AnimationController@vgui@@AAE_NPBD@Z 10075c40 f   vgui_controls:AnimationController.obj
 0001:00074d00       ?FindOrAddPanelAnimationMap@CPanelAnimationDictionary@@QAEPAUPanelAnimationMap@@PBD@Z 10075d00 f   vgui_controls:AnimationController.obj
 0001:00074d90       ?GetPanelAnimationDictionary@@YAAAVCPanelAnimationDictionary@@XZ 10075d90 f   vgui_controls:AnimationController.obj
 0001:00074e10       ?FindOrAddPanelAnimationMap@@YAPAUPanelAnimationMap@@PBD@Z 10075e10 f   vgui_controls:AnimationController.obj
 0001:00074e30       ?GetAnimMap@AnimationController@vgui@@UAEPAUPanelAnimationMap@@XZ 10075e30 f i vgui_controls:AnimationController.obj
 0001:00074e50       ??0AnimationController@vgui@@QAE@PAVPanel@1@@Z 10075e50 f   vgui_controls:AnimationController.obj
 0001:000750c0       ??_EAnimationController@vgui@@UAEPAXI@Z 100760c0 f i vgui_controls:AnimationController.obj
 0001:000750c0       ??_GAnimationController@vgui@@UAEPAXI@Z 100760c0 f i vgui_controls:AnimationController.obj
 0001:00075120       ?ReloadScriptFile@AnimationController@vgui@@QAEXXZ 10076120 f   vgui_controls:AnimationController.obj
 0001:00075190       ?StartAnimationSequence@AnimationController@vgui@@QAE_NPAVPanel@2@PBD@Z 10076190 f   vgui_controls:AnimationController.obj
 0001:00075260       ?RunCmd_RunEvent@AnimationController@vgui@@AAEXAAUPostedMessage_t@12@@Z 10076260 f   vgui_controls:AnimationController.obj
 0001:000752a0       ?GetAnimationController@vgui@@YAPAVAnimationController@1@XZ 100762a0 f   vgui_controls:AnimationController.obj
 0001:000752f0       ?UpdatePostedMessages@AnimationController@vgui@@AAEX_N@Z 100762f0 f   vgui_controls:AnimationController.obj
 0001:000754d0       ?UpdateAnimations@AnimationController@vgui@@QAEXM@Z 100764d0 f   vgui_controls:AnimationController.obj
 0001:000756a0       ?GetPanelClassName@RichText@vgui@@SAPBDXZ 100766a0 f i vgui_controls:RichText.obj
 0001:000756b0       ?GetPanelClassName@ClickPanel@vgui@@SAPBDXZ 100766b0 f i vgui_controls:RichText.obj
 0001:000756c0       ?GetPanelClassName@RichTextInterior@vgui@@SAPBDXZ 100766c0 f i vgui_controls:RichText.obj
 0001:000756d0       ?SetDrawOffsets@RichText@vgui@@UAEXHH@Z 100766d0 f   vgui_controls:RichText.obj
 0001:000756f0       ?ApplySchemeSettings@RichText@vgui@@MAEXPAVIScheme@2@@Z 100766f0 f   vgui_controls:RichText.obj
 0001:00075840       ?ResolveLocalizedTextAndVariables@RichText@vgui@@AAEPB_WPBDPA_WI@Z 10076840 f   vgui_controls:RichText.obj
 0001:000758b0       ?PerformLayout@RichText@vgui@@MAEXXZ 100768b0 f   vgui_controls:RichText.obj
 0001:000758b0       ?PerformLayout@AnimatingImagePanel@vgui@@MAEXXZ 100768b0 f   vgui_controls:AnimatingImagePanel.obj
 0001:000758d0       ?CreateEditMenu@RichText@vgui@@AAEXXZ 100768d0 f   vgui_controls:RichText.obj
 0001:00075980       ?OnMouseFocusTicked@RichText@vgui@@MAEXXZ 10076980 f   vgui_controls:RichText.obj
 0001:000759a0       ?OnCursorEntered@RichText@vgui@@MAEXXZ 100769a0 f   vgui_controls:RichText.obj
 0001:000759b0       ?OnCursorExited@RichText@vgui@@MAEXXZ 100769b0 f   vgui_controls:RichText.obj
 0001:000759d0       ?OnMouseCaptureLost@RichText@vgui@@MAEXXZ 100769d0 f   vgui_controls:RichText.obj
 0001:000759e0       ?OnMouseWheeled@RichText@vgui@@MAEXH@Z 100769e0 f   vgui_controls:RichText.obj
 0001:000759f0       ?MoveScrollBar@RichText@vgui@@EAEXH@Z 100769f0 f   vgui_controls:RichText.obj
 0001:00075a10       ?MoveScrollBarDirect@RichText@vgui@@EAEXH@Z 10076a10 f   vgui_controls:RichText.obj
 0001:00075a60       ?GotoTextStart@RichText@vgui@@QAEXXZ 10076a60 f   vgui_controls:RichText.obj
 0001:00075a90       ?OpenEditMenu@RichText@vgui@@AAEXXZ 10076a90 f   vgui_controls:RichText.obj
 0001:00075bc0       ?CutSelected@RichText@vgui@@UAEXXZ 10076bc0 f   vgui_controls:RichText.obj
 0001:00075be0       ?OnSliderMoved@RichText@vgui@@MAEXXZ 10076be0 f   vgui_controls:RichText.obj
 0001:00075bf0       ?GetSettings@RichText@vgui@@MAEXPAVKeyValues@@@Z 10076bf0 f   vgui_controls:RichText.obj
 0001:00075c60       ?GetDescription@RichText@vgui@@MAEPBDXZ 10076c60 f   vgui_controls:RichText.obj
 0001:00075c90       ?OnSetFocus@RichText@vgui@@MAEXXZ 10076c90 f   vgui_controls:RichText.obj
 0001:00075ca0       ?OnTextClicked@RichText@vgui@@MAEXPB_W@Z 10076ca0 f   vgui_controls:RichText.obj
 0001:00075ce0       ?Grow@?$CUtlMemory@VCUtlSymbol@@H@@QAEXH@Z 10076ce0 f i vgui_controls:BuildGroup.obj
 0001:00075ce0       ?Grow@?$CUtlMemory@_WH@@QAEXH@Z 10076ce0 f i vgui_controls:RichText.obj
 0001:00075d70       ??_9CRoomTemplateListPanel@@$BDFE@AE 10076d70 f i RoomTemplateListPanel.obj
 0001:00075d70       ??_9MenuBar@vgui@@$BDFE@AE 10076d70 f i vgui_controls:RichText.obj
 0001:00075d80       ??_9RichText@vgui@@$BDGE@AE 10076d80 f i vgui_controls:RichText.obj
 0001:00075d90       ??_9MenuBar@vgui@@$BDFI@AE 10076d90 f i vgui_controls:RichText.obj
 0001:00075d90       ??_9TreeNode@vgui@@$BDFI@AE 10076d90 f i vgui_controls:TreeView.obj
 0001:00075da0       ??_9RichText@vgui@@$BDGI@AE 10076da0 f i vgui_controls:RichText.obj
 0001:00075db0       ??_9RichText@vgui@@$BDFM@AE 10076db0 f i vgui_controls:RichText.obj
 0001:00075dc0       ??0ClickPanel@vgui@@QAE@PAVPanel@1@@Z 10076dc0 f i vgui_controls:RichText.obj
 0001:00075eb0       ?OnMousePressed@ClickPanel@vgui@@UAEXW4ButtonCode_t@@@Z 10076eb0 f i vgui_controls:RichText.obj
 0001:00075f10       ?GetMessageMap@ClickPanel@vgui@@UAEPAUPanelMessageMap@2@XZ 10076f10 f i vgui_controls:RichText.obj
 0001:00075f40       ?GetAnimMap@ClickPanel@vgui@@UAEPAUPanelAnimationMap@@XZ 10076f40 f i vgui_controls:RichText.obj
 0001:00075f50       ?GetKBMap@ClickPanel@vgui@@UAEPAUPanelKeyBindingMap@2@XZ 10076f50 f i vgui_controls:RichText.obj
 0001:00075f80       ??0RichTextInterior@vgui@@QAE@PAVRichText@1@PBD@Z 10076f80 f i vgui_controls:RichText.obj
 0001:00076070       ?ApplySchemeSettings@RichTextInterior@vgui@@UAEXPAVIScheme@2@@Z 10077070 f i vgui_controls:RichText.obj
 0001:00076080       ?GetMessageMap@RichTextInterior@vgui@@UAEPAUPanelMessageMap@2@XZ 10077080 f i vgui_controls:RichText.obj
 0001:000760b0       ?GetAnimMap@RichTextInterior@vgui@@UAEPAUPanelAnimationMap@@XZ 100770b0 f i vgui_controls:RichText.obj
 0001:000760c0       ?GetKBMap@RichTextInterior@vgui@@UAEPAUPanelKeyBindingMap@2@XZ 100770c0 f i vgui_controls:RichText.obj
 0001:000760f0       ?OnMouseReleased@RichText@vgui@@MAEXW4ButtonCode_t@@@Z 100770f0 f   vgui_controls:RichText.obj
 0001:00076140       ?GotoTextEnd@RichText@vgui@@QAEXXZ 10077140 f   vgui_controls:RichText.obj
 0001:000761a0       ?RemoveMultiple@?$CUtlVector@_WV?$CUtlMemory@_WH@@@@QAEXHH@Z 100771a0 f i vgui_controls:RichText.obj
 0001:000761e0       ?Grow@?$CUtlMemory@UTFormatStream@RichText@vgui@@H@@QAEXH@Z 100771e0 f i vgui_controls:RichText.obj
 0001:00076270       ?SetFgColor@RichText@vgui@@UAEXVColor@@@Z 10077270 f   vgui_controls:RichText.obj
 0001:000762c0       ?DrawString@RichText@vgui@@AAEHHHAAUTRenderState@12@K@Z 100772c0 f   vgui_controls:RichText.obj
 0001:00076410       ?FinishingURL@RichText@vgui@@AAEXHH@Z 10077410 f   vgui_controls:RichText.obj
 0001:000764c0       ?CalculateFade@RichText@vgui@@AAEXAAUTRenderState@12@@Z 100774c0 f   vgui_controls:RichText.obj
 0001:000765a0       ?GetClickableTextIndexStart@RichText@vgui@@AAEHH@Z 100775a0 f   vgui_controls:RichText.obj
 0001:000765f0       ?UpdateRenderState@RichText@vgui@@AAE_NHAAUTRenderState@12@@Z 100775f0 f   vgui_controls:RichText.obj
 0001:00076680       ?FindFormatStreamIndexForTextStreamPos@RichText@vgui@@AAEHH@Z 10077680 f   vgui_controls:RichText.obj
 0001:000766d0       ?OnKeyCodeTyped@RichText@vgui@@MAEXW4ButtonCode_t@@@Z 100776d0 f   vgui_controls:RichText.obj
 0001:00076960       ?GotoWordRight@RichText@vgui@@AAEXXZ 10077960 f   vgui_controls:RichText.obj
 0001:00076a30       ?GotoWordLeft@RichText@vgui@@AAEXXZ 10077a30 f   vgui_controls:RichText.obj
 0001:00076ac0       ?GetText@RichText@vgui@@QAEXHPA_WH@Z 10077ac0 f   vgui_controls:RichText.obj
 0001:00076b20       ?RequestInfo@RichText@vgui@@UAE_NPAVKeyValues@@@Z 10077b20 f   vgui_controls:RichText.obj
 0001:00076b90       ?OnClickPanel@RichText@vgui@@MAEXH@Z 10077b90 f   vgui_controls:RichText.obj
 0001:00076ce0       ?EnsureCapacity@?$CUtlVector@_WV?$CUtlMemory@_WH@@@@QAEXH@Z 10077ce0 f i vgui_controls:RichText.obj
 0001:00076d40       ?RemoveMultiple@?$CUtlVector@UTFormatStream@RichText@vgui@@V?$CUtlMemory@UTFormatStream@RichText@vgui@@H@@@@QAEXHH@Z 10077d40 f i vgui_controls:RichText.obj
 0001:00076d90       ?CursorToPixelSpace@RichText@vgui@@AAEXHAAH0@Z 10077d90 f   vgui_controls:RichText.obj
 0001:00076ef0       ?RecalculateDefaultState@RichText@vgui@@AAEXH@Z 10077ef0 f   vgui_controls:RichText.obj
 0001:00076fa0       ?OnMouseDoublePressed@RichText@vgui@@MAEXW4ButtonCode_t@@@Z 10077fa0 f   vgui_controls:RichText.obj
 0001:00077030       ?InsertBefore@?$CUtlVector@UTFormatStream@RichText@vgui@@V?$CUtlMemory@UTFormatStream@RichText@vgui@@H@@@@QAEHHABUTFormatStream@RichText@vgui@@@Z 10078030 f i vgui_controls:RichText.obj
 0001:000770d0       ??1RichText@vgui@@UAE@XZ   100780d0 f   vgui_controls:RichText.obj
 0001:00077140       ?GetMessageMap@RichText@vgui@@UAEPAUPanelMessageMap@2@XZ 10078140 f i vgui_controls:RichText.obj
 0001:00077170       ?GetAnimMap@RichText@vgui@@UAEPAUPanelAnimationMap@@XZ 10078170 f i vgui_controls:RichText.obj
 0001:00077180       ?GetKBMap@RichText@vgui@@UAEPAUPanelKeyBindingMap@2@XZ 10078180 f i vgui_controls:RichText.obj
 0001:000771b0       ?OnKillFocus@RichText@vgui@@MAEXXZ 100781b0 f   vgui_controls:RichText.obj
 0001:000772c0       ?PixelToCursorSpace@RichText@vgui@@AAEHHH@Z 100782c0 f   vgui_controls:RichText.obj
 0001:000774e0       ?Paint@RichText@vgui@@MAEXXZ 100784e0 f   vgui_controls:RichText.obj
 0001:00077950       ?OnCursorMoved@RichText@vgui@@MAEXHH@Z 10078950 f   vgui_controls:RichText.obj
 0001:000779c0       ?OnMousePressed@RichText@vgui@@MAEXW4ButtonCode_t@@@Z 100789c0 f   vgui_controls:RichText.obj
 0001:00077ab0       ?CopySelected@RichText@vgui@@UAEXXZ 10078ab0 f   vgui_controls:RichText.obj
 0001:00077c00       ?AddToMap@RichText@vgui@@SAXPBDP8Panel@2@AEXXZHH0H0@Z 10078c00 f i vgui_controls:RichText.obj
 0001:00077c80       ?InitVar@PanelMessageFunc_CutSelected@RichText@vgui@@SAXXZ 10078c80 f i vgui_controls:RichText.obj
 0001:00077ce0       ?InitVar@PanelMessageFunc_CopySelected@RichText@vgui@@SAXXZ 10078ce0 f i vgui_controls:RichText.obj
 0001:00077d40       ?InitVar@PanelMessageFunc_OnSetText@RichText@vgui@@SAXXZ 10078d40 f i vgui_controls:RichText.obj
 0001:00077da0       ?InitVar@PanelMessageFunc_OnSliderMoved@RichText@vgui@@SAXXZ 10078da0 f i vgui_controls:RichText.obj
 0001:00077e00       ?InitVar@PanelMessageFunc_OnClickPanel@RichText@vgui@@SAXXZ 10078e00 f i vgui_controls:RichText.obj
 0001:00077e60       ?InitVar@PanelMessageFunc_MoveScrollBar@RichText@vgui@@SAXXZ 10078e60 f i vgui_controls:RichText.obj
 0001:00077ec0       ?InitVar@PanelMessageFunc_MoveScrollBarDirect@RichText@vgui@@SAXXZ 10078ec0 f i vgui_controls:RichText.obj
 0001:00077f20       ??_ERichText@vgui@@UAEPAXI@Z 10078f20 f i vgui_controls:RichText.obj
 0001:00077f20       ??_GRichText@vgui@@UAEPAXI@Z 10078f20 f i vgui_controls:RichText.obj
 0001:00077f40       ?RecalculateLineBreaks@RichText@vgui@@AAEXXZ 10078f40 f   vgui_controls:RichText.obj
 0001:000783d0       ??0RichText@vgui@@QAE@PAVPanel@1@PBD@Z 100793d0 f   vgui_controls:RichText.obj
 0001:00078740       ?OnSizeChanged@RichText@vgui@@MAEXHH@Z 10079740 f   vgui_controls:RichText.obj
 0001:000787f0       ?SetText@RichText@vgui@@QAEXPB_W@Z 100797f0 f   vgui_controls:RichText.obj
 0001:00078930       ?SetVerticalScrollbar@RichText@vgui@@QAEX_N@Z 10079930 f   vgui_controls:RichText.obj
 0001:000789b0       ?TruncateTextStream@RichText@vgui@@AAEXXZ 100799b0 f   vgui_controls:RichText.obj
 0001:00078b20       ?InsertString@RichText@vgui@@QAEXPB_W@Z 10079b20 f   vgui_controls:RichText.obj
 0001:00078c20       ?OnSetText@RichText@vgui@@MAEXPB_W@Z 10079c20 f   vgui_controls:RichText.obj
 0001:00078c50       ?SetText@RichText@vgui@@QAEXPBD@Z 10079c50 f   vgui_controls:RichText.obj
 0001:00078cd0       ?LayoutVerticalScrollBarSlider@RichText@vgui@@AAEXXZ 10079cd0 f   vgui_controls:RichText.obj
 0001:00078ec0       ?InsertString@RichText@vgui@@QAEXPBD@Z 10079ec0 f   vgui_controls:RichText.obj
 0001:00078f50       ?ApplySettings@RichText@vgui@@MAEXPAVKeyValues@@@Z 10079f50 f   vgui_controls:RichText.obj
 0001:000790b0       ?OnThink@RichText@vgui@@MAEXXZ 1007a0b0 f   vgui_controls:RichText.obj
 0001:000790e0       ?GetPanelClassName@ProgressBar@vgui@@SAPBDXZ 1007a0e0 f i vgui_controls:ProgressBar.obj
 0001:000790f0       ?GetPanelClassName@ContinuousProgressBar@vgui@@SAPBDXZ 1007a0f0 f i vgui_controls:ProgressBar.obj
 0001:00079100       ??1ProgressBar@vgui@@UAE@XZ 1007a100 f   vgui_controls:ProgressBar.obj
 0001:00079120       ?SetSegmentInfo@ProgressBar@vgui@@UAEXHH@Z 1007a120 f   vgui_controls:ProgressBar.obj
 0001:00079140       ?PaintBackground@ProgressBar@vgui@@MAEXXZ 1007a140 f   vgui_controls:ProgressBar.obj
 0001:000791a0       ?PaintSegment@ProgressBar@vgui@@IAEXAAH0HH@Z 1007a1a0 f   vgui_controls:ProgressBar.obj
 0001:000792c0       ?Paint@ProgressBar@vgui@@MAEXXZ 1007a2c0 f   vgui_controls:ProgressBar.obj
 0001:000793c0       ?SetProgress@ProgressBar@vgui@@UAEXM@Z 1007a3c0 f   vgui_controls:ProgressBar.obj
 0001:00079400       ?GetProgress@ProgressBar@vgui@@QAEMXZ 1007a400 f   vgui_controls:ProgressBar.obj
 0001:00079410       ?ApplySchemeSettings@ProgressBar@vgui@@MAEXPAVIScheme@2@@Z 1007a410 f   vgui_controls:ProgressBar.obj
 0001:00079490       ?ApplySettings@ProgressBar@vgui@@UAEXPAVKeyValues@@@Z 1007a490 f   vgui_controls:ProgressBar.obj
 0001:00079520       ?GetSettings@ProgressBar@vgui@@UAEXPAVKeyValues@@@Z 1007a520 f   vgui_controls:ProgressBar.obj
 0001:00079560       ?GetDescription@ProgressBar@vgui@@UAEPBDXZ 1007a560 f   vgui_controls:ProgressBar.obj
 0001:00079590       ?OnDialogVariablesChanged@ProgressBar@vgui@@MAEXPAVKeyValues@@@Z 1007a590 f   vgui_controls:ProgressBar.obj
 0001:000795e0       ?ApplySchemeSettings@ContinuousProgressBar@vgui@@UAEXPAVIScheme@2@@Z 1007a5e0 f   vgui_controls:ProgressBar.obj
 0001:00079660       ?PaintBackground@ContinuousProgressBar@vgui@@UAEXXZ 1007a660 f   vgui_controls:ProgressBar.obj
 0001:000796f0       ?Paint@ContinuousProgressBar@vgui@@UAEXXZ 1007a6f0 f   vgui_controls:ProgressBar.obj
 0001:000799e0       ??_9CRoomTemplateListPanel@@$BDFA@AE 1007a9e0 f i RoomTemplateListPanel.obj
 0001:000799e0       ??_9ProgressBar@vgui@@$BDFA@AE 1007a9e0 f i vgui_controls:ProgressBar.obj
 0001:000799f0       ?GetMessageMap@ProgressBar@vgui@@UAEPAUPanelMessageMap@2@XZ 1007a9f0 f i vgui_controls:ProgressBar.obj
 0001:00079a20       ?GetAnimMap@ProgressBar@vgui@@UAEPAUPanelAnimationMap@@XZ 1007aa20 f i vgui_controls:ProgressBar.obj
 0001:00079a30       ?GetKBMap@ProgressBar@vgui@@UAEPAUPanelKeyBindingMap@2@XZ 1007aa30 f i vgui_controls:ProgressBar.obj
 0001:00079a60       ??_GContinuousProgressBar@vgui@@UAEPAXI@Z 1007aa60 f i vgui_controls:ProgressBar.obj
 0001:00079a60       ??_GProgressBar@vgui@@UAEPAXI@Z 1007aa60 f i vgui_controls:ProgressBar.obj
 0001:00079a60       ??_EContinuousProgressBar@vgui@@UAEPAXI@Z 1007aa60 f i vgui_controls:ProgressBar.obj
 0001:00079a60       ??_EProgressBar@vgui@@UAEPAXI@Z 1007aa60 f i vgui_controls:ProgressBar.obj
 0001:00079aa0       ?AddToMap@ProgressBar@vgui@@SAXPBDP8Panel@2@AEXXZHH0H0@Z 1007aaa0 f i vgui_controls:ProgressBar.obj
 0001:00079b20       ?InitVar@PanelMessageFunc_SetProgress@ProgressBar@vgui@@SAXXZ 1007ab20 f i vgui_controls:ProgressBar.obj
 0001:00079b80       ?InitVar@PanelMessageFunc_OnDialogVariablesChanged@ProgressBar@vgui@@SAXXZ 1007ab80 f i vgui_controls:ProgressBar.obj
 0001:00079be0       ??0ProgressBar@vgui@@QAE@PAVPanel@1@PBD@Z 1007abe0 f   vgui_controls:ProgressBar.obj
 0001:00079ce0       ??0ContinuousProgressBar@vgui@@QAE@PAVPanel@1@PBD@Z 1007ace0 f   vgui_controls:ProgressBar.obj
 0001:00079dd0       ?GetMessageMap@ContinuousProgressBar@vgui@@UAEPAUPanelMessageMap@2@XZ 1007add0 f i vgui_controls:ProgressBar.obj
 0001:00079e00       ?GetAnimMap@ContinuousProgressBar@vgui@@UAEPAUPanelAnimationMap@@XZ 1007ae00 f i vgui_controls:ProgressBar.obj
 0001:00079e10       ?GetKBMap@ContinuousProgressBar@vgui@@UAEPAUPanelKeyBindingMap@2@XZ 1007ae10 f i vgui_controls:ProgressBar.obj
 0001:00079e80       ?GetPanelClassName@Label@vgui@@SAPBDXZ 1007ae80 f i vgui_controls:Label.obj
 0001:00079e90       ??$DmxElementUnpackInitvgui@VLabel@vgui@@@vgui@@YAPAUDmxElementUnpackStructure_t@@PAVLabel@0@@Z 1007ae90 f   vgui_controls:Label.obj
 0001:00079f10       ?Init@Label@vgui@@AAEXXZ   1007af10 f   vgui_controls:Label.obj
 0001:00079f70       ?SetTextColorState@Label@vgui@@UAEXW4EColorState@12@@Z 1007af70 f   vgui_controls:Label.obj
 0001:00079fa0       ?GetSizerMinimumSize@Label@vgui@@UAEXAAH0@Z 1007afa0 f   vgui_controls:Label.obj
 0001:00079fb0       ?CalculateHotkey@Label@vgui@@MAE_WPBD@Z 1007afb0 f   vgui_controls:Label.obj
 0001:0007a010       ?CalculateHotkey@Label@vgui@@MAE_WPB_W@Z 1007b010 f   vgui_controls:Label.obj
 0001:0007a070       ?HasHotkey@Label@vgui@@UAEPAVPanel@2@_W@Z 1007b070 f   vgui_controls:Label.obj
 0001:0007a0b0       ?SetHotkey@Label@vgui@@UAEX_W@Z 1007b0b0 f   vgui_controls:Label.obj
 0001:0007a0c0       ?GetHotKey@Label@vgui@@UAE_WXZ 1007b0c0 f   vgui_controls:Label.obj
 0001:0007a0d0       ?OnHotkeyPressed@Label@vgui@@MAEXXZ 1007b0d0 f   vgui_controls:Label.obj
 0001:0007a110       ?OnMousePressed@Label@vgui@@MAEXW4ButtonCode_t@@@Z 1007b110 f   vgui_controls:Label.obj
 0001:0007a150       ?GetText@Label@vgui@@UAEXPADH@Z 1007b150 f   vgui_controls:Label.obj
 0001:0007a160       ?GetText@Label@vgui@@UAEXPA_WH@Z 1007b160 f   vgui_controls:Label.obj
 0001:0007a170       ?SetText@Label@vgui@@UAEXPBD@Z 1007b170 f   vgui_controls:Label.obj
 0001:0007a200       ?SetText@Label@vgui@@UAEXPB_W_N@Z 1007b200 f   vgui_controls:Label.obj
 0001:0007a290       ?OnDialogVariablesChanged@Label@vgui@@MAEXPAVKeyValues@@@Z 1007b290 f   vgui_controls:Label.obj
 0001:0007a2f0       ?SetTextInset@Label@vgui@@UAEXHH@Z 1007b2f0 f   vgui_controls:Label.obj
 0001:0007a340       ?SetEnabled@Label@vgui@@UAEX_N@Z 1007b340 f   vgui_controls:Label.obj
 0001:0007a350       ?DrawDashedLine@Label@vgui@@MAEXHHHHHH@Z 1007b350 f   vgui_controls:Label.obj
 0001:0007a420       ?SetContentAlignment@Label@vgui@@UAEXW4Alignment@12@@Z 1007b420 f   vgui_controls:Label.obj
 0001:0007a440       ?SizeToContents@Label@vgui@@UAEXXZ 1007b440 f   vgui_controls:Label.obj
 0001:0007a480       ?SetFont@Label@vgui@@UAEXK@Z 1007b480 f   vgui_controls:Label.obj
 0001:0007a4b0       ?OnSizeChanged@Label@vgui@@MAEXHH@Z 1007b4b0 f   vgui_controls:Label.obj
 0001:0007a4e0       ?GetFont@Label@vgui@@UAEKXZ 1007b4e0 f   vgui_controls:Label.obj
 0001:0007a4f0       ?SetFgColor@Label@vgui@@UAEXVColor@@@Z 1007b4f0 f   vgui_controls:Label.obj
 0001:0007a540       ?GetFgColor@Label@vgui@@UAE?AVColor@@XZ 1007b540 f   vgui_controls:Label.obj
 0001:0007a560       ?GetDisabledFgColor1@Label@vgui@@UAE?AVColor@@XZ 1007b560 f   vgui_controls:Label.obj
 0001:0007a570       ?GetDisabledFgColor2@Label@vgui@@UAE?AVColor@@XZ 1007b570 f   vgui_controls:Label.obj
 0001:0007a580       ?GetTextImage@Label@vgui@@UAEPAVTextImage@2@XZ 1007b580 f   vgui_controls:Label.obj
 0001:0007a580       ?GetHighestItemID@TreeView@vgui@@UAEHXZ 1007b580 f   vgui_controls:TreeView.obj
 0001:0007a590       ?RequestInfo@Label@vgui@@UAE_NPAVKeyValues@@@Z 1007b590 f   vgui_controls:Label.obj
 0001:0007a610       ?OnSetText@Label@vgui@@MAEXPAVKeyValues@@@Z 1007b610 f   vgui_controls:Label.obj
 0001:0007a690       ?SetImage@Label@vgui@@UAEXPAVIImage@2@H@Z 1007b690 f   vgui_controls:Label.obj
 0001:0007a6c0       ?ResetToSimpleTextImage@Label@vgui@@UAEXXZ 1007b6c0 f   vgui_controls:Label.obj
 0001:0007a6f0       ?SetAssociatedControl@Label@vgui@@UAEXPAVPanel@2@@Z 1007b6f0 f   vgui_controls:Label.obj
 0001:0007a720       ?OnRequestFocus@Label@vgui@@MAEXII@Z 1007b720 f   vgui_controls:Label.obj
 0001:0007a780       ?GetSettings@Label@vgui@@UAEXPAVKeyValues@@@Z 1007b780 f   vgui_controls:Label.obj
 0001:0007a960       ?GetDescription@Label@vgui@@MAEPBDXZ 1007b960 f   vgui_controls:Label.obj
 0001:0007a990       ?SetWrap@Label@vgui@@QAEX_N@Z 1007b990 f   vgui_controls:Label.obj
 0001:0007a9c0       ?HandleAutoSizing@Label@vgui@@IAEXXZ 1007b9c0 f   vgui_controls:Label.obj
 0001:0007aa10       ??_9Label@vgui@@$BDNA@AE   1007ba10 f i vgui_controls:Label.obj
 0001:0007aa20       ??_9Label@vgui@@$BDMI@AE   1007ba20 f i vgui_controls:Label.obj
 0001:0007aa30       ??_9Label@vgui@@$BDNI@AE   1007ba30 f i vgui_controls:Label.obj
 0001:0007aa40       ?GetImageCount@Label@vgui@@UAEHXZ 1007ba40 f   vgui_controls:Label.obj
 0001:0007aa40       ?GetTextLength@TextEntry@vgui@@UBEHXZ 1007ba40 f   vgui_controls:TextEntry.obj
 0001:0007aa40       ?GetItemCount@PanelListPanel@vgui@@QBEHXZ 1007ba40 f   vgui_controls:PanelListPanel.obj
 0001:0007aa50       ?EnsureImageCapacity@Label@vgui@@MAEXH@Z 1007ba50 f   vgui_controls:Label.obj
 0001:0007aa80       ?ApplySettings@Label@vgui@@UAEXPAVKeyValues@@@Z 1007ba80 f   vgui_controls:Label.obj
 0001:0007aeb0       ?GetContentSize@Label@vgui@@UAEXAAH0@Z 1007beb0 f   vgui_controls:Label.obj
 0001:0007afe0       ?ComputeAlignment@Label@vgui@@MAEXAAH000@Z 1007bfe0 f   vgui_controls:Label.obj
 0001:0007b170       ?Paint@Label@vgui@@MAEXXZ  1007c170 f   vgui_controls:Label.obj
 0001:0007b4f0       ?SetImageAtIndex@Label@vgui@@UAEXHPAVIImage@2@H@Z 1007c4f0 f   vgui_controls:Label.obj
 0001:0007b550       ?GetImageAtIndex@Label@vgui@@UAEPAVIImage@2@H@Z 1007c550 f   vgui_controls:Label.obj
 0001:0007b580       ?SetTextImageIndex@Label@vgui@@UAEHH@Z 1007c580 f   vgui_controls:Label.obj
 0001:0007b5e0       ?SetImagePreOffset@Label@vgui@@UAEXHH@Z 1007c5e0 f   vgui_controls:Label.obj
 0001:0007b630       ?SetImageBounds@Label@vgui@@UAEXHHH@Z 1007c630 f   vgui_controls:Label.obj
 0001:0007b660       ?ApplySchemeSettings@Label@vgui@@MAEXPAVIScheme@2@@Z 1007c660 f   vgui_controls:Label.obj
 0001:0007b890       ?PerformLayout@Label@vgui@@MAEXXZ 1007c890 f   vgui_controls:Label.obj
 0001:0007ba40       ?ClearImages@Label@vgui@@UAEXXZ 1007ca40 f   vgui_controls:Label.obj
 0001:0007ba60       ?InsertBefore@?$CUtlVector@UTImageInfo@Label@vgui@@V?$CUtlMemory@UTImageInfo@Label@vgui@@H@@@@QAEHH@Z 1007ca60 f i vgui_controls:Label.obj
 0001:0007bac0       ??1Label@vgui@@UAE@XZ      1007cac0 f   vgui_controls:Label.obj
 0001:0007bb10       ?GetUnpackStructure@Label@vgui@@UBEPBUDmxElementUnpackStructure_t@@XZ 1007cb10 f i vgui_controls:Label.obj
 0001:0007bb20       ?GetMessageMap@Label@vgui@@UAEPAUPanelMessageMap@2@XZ 1007cb20 f i vgui_controls:Label.obj
 0001:0007bb50       ?GetAnimMap@Label@vgui@@UAEPAUPanelAnimationMap@@XZ 1007cb50 f i vgui_controls:Label.obj
 0001:0007bb60       ?GetKBMap@Label@vgui@@UAEPAUPanelKeyBindingMap@2@XZ 1007cb60 f i vgui_controls:Label.obj
 0001:0007bb90       ?AddToMap@Label@vgui@@SAXPBDP8Panel@2@AEXXZHH0H0@Z 1007cb90 f i vgui_controls:Label.obj
 0001:0007bc10       ?InitVar@PanelMessageFunc_OnSetText@Label@vgui@@SAXXZ 1007cc10 f i vgui_controls:Label.obj
 0001:0007bc70       ?InitVar@PanelMessageFunc_OnHotkeyPressed@Label@vgui@@SAXXZ 1007cc70 f i vgui_controls:Label.obj
 0001:0007bcd0       ?InitVar@PanelMessageFunc_OnDialogVariablesChanged@Label@vgui@@SAXXZ 1007ccd0 f i vgui_controls:Label.obj
 0001:0007bd30       ??_ELabel@vgui@@UAEPAXI@Z  1007cd30 f i vgui_controls:Label.obj
 0001:0007bd30       ??_GLabel@vgui@@UAEPAXI@Z  1007cd30 f i vgui_controls:Label.obj
 0001:0007bd90       ?AddImage@Label@vgui@@UAEHPAVIImage@2@H@Z 1007cd90 f   vgui_controls:Label.obj
 0001:0007bdf0       ??0Label@vgui@@QAE@PAVPanel@1@PBD1@Z 1007cdf0 f   vgui_controls:Label.obj
 0001:0007bf70       ??0Label@vgui@@QAE@PAVPanel@1@PBDPB_W@Z 1007cf70 f   vgui_controls:Label.obj
 0001:0007c110       ?GetPanelClassName@ComboBox@vgui@@SAPBDXZ 1007d110 f i vgui_controls:ComboBox.obj
 0001:0007c120       ?GetButtonBgColor@ComboBoxButton@vgui@@UAE?AVColor@@XZ 1007d120 f i vgui_controls:ComboBox.obj
 0001:0007c160       ?ApplySchemeSettings@ComboBoxButton@vgui@@UAEXPAVIScheme@2@@Z 1007d160 f   vgui_controls:ComboBox.obj
 0001:0007c2c0       ?OnCursorExited@ComboBoxButton@vgui@@UAEXXZ 1007d2c0 f   vgui_controls:ComboBox.obj
 0001:0007c300       ??1ComboBox@vgui@@UAE@XZ   1007d300 f   vgui_controls:ComboBox.obj
 0001:0007c330       ?SetAutoLocalize@TextEntry@vgui@@UAEX_N@Z 1007d330 f i vgui_controls:ComboBox.obj
 0001:0007c340       ?GetMenu@ComboBox@vgui@@UAEPAVMenu@2@XZ 1007d340 f i vgui_controls:ComboBox.obj
 0001:0007c350       ?SetNumberOfEditLines@ComboBox@vgui@@UAEXH@Z 1007d350 f   vgui_controls:ComboBox.obj
 0001:0007c360       ?AddItem@ComboBox@vgui@@UAEHPBDPBVKeyValues@@@Z 1007d360 f   vgui_controls:ComboBox.obj
 0001:0007c3b0       ?AddItem@ComboBox@vgui@@UAEHPB_WPBVKeyValues@@@Z 1007d3b0 f   vgui_controls:ComboBox.obj
 0001:0007c440       ?UpdateItem@ComboBox@vgui@@UAE_NHPBDPBVKeyValues@@@Z 1007d440 f   vgui_controls:ComboBox.obj
 0001:0007c4c0       ?UpdateItem@ComboBox@vgui@@UAE_NHPB_WPBVKeyValues@@@Z 1007d4c0 f   vgui_controls:ComboBox.obj
 0001:0007c550       ?IsItemIDValid@ComboBox@vgui@@UAE_NH@Z 1007d550 f   vgui_controls:ComboBox.obj
 0001:0007c560       ?SetItemEnabled@ComboBox@vgui@@UAEXPBD_N@Z 1007d560 f   vgui_controls:ComboBox.obj
 0001:0007c570       ?SetItemEnabled@ComboBox@vgui@@UAEXH_N@Z 1007d570 f   vgui_controls:ComboBox.obj
 0001:0007c580       ?RemoveAll@ComboBox@vgui@@QAEXXZ 1007d580 f   vgui_controls:ComboBox.obj
 0001:0007c590       ?GetItemCount@ComboBox@vgui@@UAEHXZ 1007d590 f   vgui_controls:ComboBox.obj
 0001:0007c5a0       ?ActivateItem@ComboBox@vgui@@UAEXH@Z 1007d5a0 f   vgui_controls:ComboBox.obj
 0001:0007c5b0       ?ActivateItemByRow@ComboBox@vgui@@QAEXH@Z 1007d5b0 f   vgui_controls:ComboBox.obj
 0001:0007c5c0       ?SetMenu@ComboBox@vgui@@UAEXPAVMenu@2@@Z 1007d5c0 f   vgui_controls:ComboBox.obj
 0001:0007c600       ?DoMenuLayout@ComboBox@vgui@@AAEXXZ 1007d600 f   vgui_controls:ComboBox.obj
 0001:0007c650       ?GetActiveItem@ComboBox@vgui@@QAEHXZ 1007d650 f   vgui_controls:ComboBox.obj
 0001:0007c660       ?GetActiveItemUserData@ComboBox@vgui@@QAEPAVKeyValues@@XZ 1007d660 f   vgui_controls:ComboBox.obj
 0001:0007c690       ?IsDropdownVisible@ComboBox@vgui@@UAE_NXZ 1007d690 f   vgui_controls:ComboBox.obj
 0001:0007c6a0       ?ApplySchemeSettings@ComboBox@vgui@@MAEXPAVIScheme@2@@Z 1007d6a0 f   vgui_controls:ComboBox.obj
 0001:0007c6d0       ?SetDropdownButtonVisible@ComboBox@vgui@@UAEX_N@Z 1007d6d0 f   vgui_controls:ComboBox.obj
 0001:0007c6e0       ?OnMousePressed@ComboBox@vgui@@MAEXW4ButtonCode_t@@@Z 1007d6e0 f   vgui_controls:ComboBox.obj
 0001:0007c760       ?OnMouseDoublePressed@ComboBox@vgui@@MAEXW4ButtonCode_t@@@Z 1007d760 f   vgui_controls:ComboBox.obj
 0001:0007c790       ?OnCommand@ComboBox@vgui@@MAEXPBD@Z 1007d790 f   vgui_controls:ComboBox.obj
 0001:0007c7d0       ?OnSetText@ComboBox@vgui@@MAEXPB_W@Z 1007d7d0 f   vgui_controls:ComboBox.obj
 0001:0007c8e0       ?HideMenu@ComboBox@vgui@@UAEXXZ 1007d8e0 f   vgui_controls:ComboBox.obj
 0001:0007c920       ?ShowMenu@ComboBox@vgui@@UAEXXZ 1007d920 f   vgui_controls:ComboBox.obj
 0001:0007c950       ?OnKillFocus@ComboBox@vgui@@UAEXXZ 1007d950 f   vgui_controls:ComboBox.obj
 0001:0007c960       ?OnMenuClose@ComboBox@vgui@@UAEXXZ 1007d960 f   vgui_controls:ComboBox.obj
 0001:0007c9f0       ?DoClick@ComboBox@vgui@@UAEXXZ 1007d9f0 f   vgui_controls:ComboBox.obj
 0001:0007cbf0       ?OnCursorEntered@ComboBox@vgui@@MAEXXZ 1007dbf0 f   vgui_controls:ComboBox.obj
 0001:0007cc10       ?OnCursorExited@ComboBox@vgui@@MAEXXZ 1007dc10 f   vgui_controls:ComboBox.obj
 0001:0007cc50       ?OnMenuItemSelected@ComboBox@vgui@@MAEXXZ 1007dc50 f   vgui_controls:ComboBox.obj
 0001:0007ccc0       ?OnSizeChanged@ComboBox@vgui@@UAEXHH@Z 1007dcc0 f   vgui_controls:ComboBox.obj
 0001:0007cd10       ?OnSetFocus@ComboBox@vgui@@MAEXXZ 1007dd10 f   vgui_controls:ComboBox.obj
 0001:0007cd30       ?SelectMenuItem@ComboBox@vgui@@IAEXH@Z 1007dd30 f   vgui_controls:ComboBox.obj
 0001:0007cdc0       ?SetOpenDirection@ComboBox@vgui@@UAEXW4MenuDirection_e@Menu@2@@Z 1007ddc0 f   vgui_controls:ComboBox.obj
 0001:0007cdd0       ?SetFont@ComboBox@vgui@@UAEXK@Z 1007ddd0 f   vgui_controls:ComboBox.obj
 0001:0007ce00       ?SetUseFallbackFont@ComboBox@vgui@@UAEX_NK@Z 1007de00 f   vgui_controls:ComboBox.obj
 0001:0007ce30       ??_9ComboBox@vgui@@$BELA@AE 1007de30 f i vgui_controls:ComboBox.obj
 0001:0007ce40       ??_9ComboBox@vgui@@$BEME@AE 1007de40 f i vgui_controls:ComboBox.obj
 0001:0007ce50       ??_9ComboBox@vgui@@$BENE@AE 1007de50 f i vgui_controls:ComboBox.obj
 0001:0007ce60       ?GetMessageMap@ComboBox@vgui@@UAEPAUPanelMessageMap@2@XZ 1007de60 f i vgui_controls:ComboBox.obj
 0001:0007ce90       ?GetAnimMap@ComboBox@vgui@@UAEPAUPanelAnimationMap@@XZ 1007de90 f i vgui_controls:ComboBox.obj
 0001:0007cea0       ?GetKBMap@ComboBox@vgui@@UAEPAUPanelKeyBindingMap@2@XZ 1007dea0 f i vgui_controls:ComboBox.obj
 0001:0007ced0       ??_GComboBox@vgui@@UAEPAXI@Z 1007ded0 f i vgui_controls:ComboBox.obj
 0001:0007ced0       ??_EComboBox@vgui@@UAEPAXI@Z 1007ded0 f i vgui_controls:ComboBox.obj
 0001:0007cf10       ?PerformLayout@ComboBox@vgui@@UAEXXZ 1007df10 f   vgui_controls:ComboBox.obj
 0001:0007cfe0       ?OnKeyCodeTyped@ComboBox@vgui@@MAEXW4ButtonCode_t@@@Z 1007dfe0 f   vgui_controls:ComboBox.obj
 0001:0007d100       ?OnKeyTyped@ComboBox@vgui@@MAEX_W@Z 1007e100 f   vgui_controls:ComboBox.obj
 0001:0007d170       ?AddToMap@ComboBox@vgui@@SAXPBDP8Panel@2@AEXXZHH0H0@Z 1007e170 f i vgui_controls:ComboBox.obj
 0001:0007d1f0       ?InitVar@PanelMessageFunc_ActivateItem@ComboBox@vgui@@SAXXZ 1007e1f0 f i vgui_controls:ComboBox.obj
 0001:0007d250       ?InitVar@PanelMessageFunc_OnMenuClose@ComboBox@vgui@@SAXXZ 1007e250 f i vgui_controls:ComboBox.obj
 0001:0007d2b0       ?InitVar@PanelMessageFunc_OnMenuItemSelected@ComboBox@vgui@@SAXXZ 1007e2b0 f i vgui_controls:ComboBox.obj
 0001:0007d310       ?InitVar@PanelMessageFunc_OnSetText@ComboBox@vgui@@SAXXZ 1007e310 f i vgui_controls:ComboBox.obj
 0001:0007d370       ??0ComboBox@vgui@@QAE@PAVPanel@1@PBDH_N@Z 1007e370 f   vgui_controls:ComboBox.obj
 0001:0007d540       ?ComboBox_Factory@@YAPAVPanel@vgui@@XZ 1007e540 f   vgui_controls:ComboBox.obj
 0001:0007d570       ??$DmxElementUnpackInitvgui@VButton@vgui@@@vgui@@YAPAUDmxElementUnpackStructure_t@@PAVButton@0@@Z 1007e570 f   vgui_controls:Button.obj
 0001:0007d640       ??1Button@vgui@@UAE@XZ     1007e640 f   vgui_controls:Button.obj
 0001:0007d660       ?SetButtonActivationType@Button@vgui@@UAEXW4ActivationType_t@12@@Z 1007e660 f   vgui_controls:Button.obj
 0001:0007d670       ?DoClick@Button@vgui@@UAEXXZ 1007e670 f   vgui_controls:Button.obj
 0001:0007d6d0       ?NavigateTo@Button@vgui@@UAEXXZ 1007e6d0 f   vgui_controls:Button.obj
 0001:0007d6f0       ?NavigateFrom@Button@vgui@@UAEXXZ 1007e6f0 f   vgui_controls:Button.obj
 0001:0007d720       ?OnKillFocus@Button@vgui@@UAEXXZ 1007e720 f   vgui_controls:Button.obj
 0001:0007d720       ?OnSetFocus@Button@vgui@@UAEXXZ 1007e720 f   vgui_controls:Button.obj
 0001:0007d740       ?SetDefaultColor@Button@vgui@@UAEXVColor@@0@Z 1007e740 f   vgui_controls:Button.obj
 0001:0007d790       ?SetArmedColor@Button@vgui@@UAEXVColor@@0@Z 1007e790 f   vgui_controls:Button.obj
 0001:0007d7e0       ?SetDepressedColor@Button@vgui@@UAEXVColor@@0@Z 1007e7e0 f   vgui_controls:Button.obj
 0001:0007d830       ?SetBlinkColor@Button@vgui@@UAEXVColor@@@Z 1007e830 f   vgui_controls:Button.obj
 0001:0007d860       ?SetDefaultBorder@Button@vgui@@UAEXPAVIBorder@2@@Z 1007e860 f   vgui_controls:Button.obj
 0001:0007d880       ?SetDepressedBorder@Button@vgui@@UAEXPAVIBorder@2@@Z 1007e880 f   vgui_controls:Button.obj
 0001:0007d8a0       ?SetKeyFocusBorder@Button@vgui@@UAEXPAVIBorder@2@@Z 1007e8a0 f   vgui_controls:Button.obj
 0001:0007d8c0       ?SetMouseClickEnabled@Button@vgui@@UAEXW4ButtonCode_t@@_N@Z 1007e8c0 f   vgui_controls:Button.obj
 0001:0007d8f0       ?IsMouseClickEnabled@Button@vgui@@UAE_NW4ButtonCode_t@@@Z 1007e8f0 f   vgui_controls:Button.obj
 0001:0007d910       ?SetCommand@Button@vgui@@UAEXPBD@Z 1007e910 f   vgui_controls:Button.obj
 0001:0007d960       ?SetCommand@Button@vgui@@UAEXPAVKeyValues@@@Z 1007e960 f   vgui_controls:Button.obj
 0001:0007d990       ?FireActionSignal@Button@vgui@@UAEXXZ 1007e990 f   vgui_controls:Button.obj
 0001:0007da60       ?RequestInfo@Button@vgui@@UAE_NPAVKeyValues@@@Z 1007ea60 f   vgui_controls:Button.obj
 0001:0007db40       ?ApplySettings@Button@vgui@@UAEXPAVKeyValues@@@Z 1007eb40 f   vgui_controls:Button.obj
 0001:0007dc70       ?GetDescription@Button@vgui@@MAEPBDXZ 1007ec70 f   vgui_controls:Button.obj
 0001:0007dca0       ?OnSetState@Button@vgui@@MAEXH@Z 1007eca0 f   vgui_controls:Button.obj
 0001:0007dcd0       ?OnCursorEntered@Button@vgui@@UAEXXZ 1007ecd0 f   vgui_controls:Button.obj
 0001:0007dcf0       ?OnMousePressed@Button@vgui@@MAEXW4ButtonCode_t@@@Z 1007ecf0 f   vgui_controls:Button.obj
 0001:0007ddf0       ?DrawFocusBorder@Button@vgui@@MAEXHHHH@Z 1007edf0 f   vgui_controls:Button.obj
 0001:0007de90       ?SizeToContents@Button@vgui@@UAEXXZ 1007ee90 f   vgui_controls:Button.obj
 0001:0007ded0       ?GetSizerMinimumSize@Button@vgui@@UAEXAAH0@Z 1007eed0 f   vgui_controls:Button.obj
 0001:0007df00       ??_9Button@vgui@@$BECM@AE  1007ef00 f i vgui_controls:Button.obj
 0001:0007df10       ??_9TextEntry@vgui@@$BEGM@AE 1007ef10 f i vgui_controls:TextEntry.obj
 0001:0007df10       ??_9BuildModeDialog@vgui@@$BEGM@AE 1007ef10 f i vgui_controls:BuildModeDialog.obj
 0001:0007df10       ??_9FileOpenDialog@vgui@@$BEGM@AE 1007ef10 f i vgui_controls:FileOpenDialog.obj
 0001:0007df10       ??_9Button@vgui@@$BEGM@AE  1007ef10 f i vgui_controls:Button.obj
 0001:0007df20       ??_9Button@vgui@@$BEBA@AE  1007ef20 f i vgui_controls:Button.obj
 0001:0007df30       ??_9Button@vgui@@$BECI@AE  1007ef30 f i vgui_controls:Button.obj
 0001:0007df40       ??_9Button@vgui@@$BEAM@AE  1007ef40 f i vgui_controls:Button.obj
 0001:0007df50       ??_EButton@vgui@@UAEPAXI@Z 1007ef50 f i vgui_controls:Button.obj
 0001:0007df50       ??_GButton@vgui@@UAEPAXI@Z 1007ef50 f i vgui_controls:Button.obj
 0001:0007df90       ?SetButtonBorderEnabled@Button@vgui@@UAEX_N@Z 1007ef90 f   vgui_controls:Button.obj
 0001:0007dfe0       ?SetSelected@Button@vgui@@UAEX_N@Z 1007efe0 f   vgui_controls:Button.obj
 0001:0007e030       ?SetBlink@Button@vgui@@UAEX_N@Z 1007f030 f   vgui_controls:Button.obj
 0001:0007e090       ?ForceDepressed@Button@vgui@@UAEX_N@Z 1007f090 f   vgui_controls:Button.obj
 0001:0007e0e0       ?RecalculateDepressedState@Button@vgui@@UAEXXZ 1007f0e0 f   vgui_controls:Button.obj
 0001:0007e140       ?SetUseCaptureMouse@Button@vgui@@UAEX_N@Z 1007f140 f   vgui_controls:Button.obj
 0001:0007e160       ?IsUseCaptureMouseEnabled@Button@vgui@@UAE_NXZ 1007f160 f   vgui_controls:Button.obj
 0001:0007e170       ?SetArmed@Button@vgui@@UAEX_N@Z 1007f170 f   vgui_controls:Button.obj
 0001:0007e1f0       ?IsArmed@Button@vgui@@UAE_NXZ 1007f1f0 f   vgui_controls:Button.obj
 0001:0007e200       ?IsSelected@Button@vgui@@UAE_NXZ 1007f200 f   vgui_controls:Button.obj
 0001:0007e210       ?IsDepressed@Button@vgui@@UAE_NXZ 1007f210 f   vgui_controls:Button.obj
 0001:0007e220       ?IsBlinking@Button@vgui@@UAE_NXZ 1007f220 f   vgui_controls:Button.obj
 0001:0007e230       ?Paint@Button@vgui@@MAEXXZ 1007f230 f   vgui_controls:Button.obj
 0001:0007e2b0       ?PerformLayout@Button@vgui@@UAEXXZ 1007f2b0 f   vgui_controls:Button.obj
 0001:0007e360       ?GetButtonFgColor@Button@vgui@@UAE?AVColor@@XZ 1007f360 f   vgui_controls:Button.obj
 0001:0007e4e0       ?GetButtonBgColor@Button@vgui@@UAE?AVColor@@XZ 1007f4e0 f   vgui_controls:Button.obj
 0001:0007e530       ?ApplySchemeSettings@Button@vgui@@MAEXPAVIScheme@2@@Z 1007f530 f   vgui_controls:Button.obj
 0001:0007e710       ?GetBorder@Button@vgui@@MAEPAVIBorder@2@_N000@Z 1007f710 f   vgui_controls:Button.obj
 0001:0007e770       ?SetAsCurrentDefaultButton@Button@vgui@@UAEXH@Z 1007f770 f   vgui_controls:Button.obj
 0001:0007e840       ?SetAsDefaultButton@Button@vgui@@UAEXH@Z 1007f840 f   vgui_controls:Button.obj
 0001:0007e910       ?GetSettings@Button@vgui@@MAEXPAVKeyValues@@@Z 1007f910 f   vgui_controls:Button.obj
 0001:0007e990       ?OnCursorExited@Button@vgui@@UAEXXZ 1007f990 f   vgui_controls:Button.obj
 0001:0007e9b0       ?OnMouseReleased@Button@vgui@@MAEXW4ButtonCode_t@@@Z 1007f9b0 f   vgui_controls:Button.obj
 0001:0007ea80       ?OnKeyCodePressed@Button@vgui@@MAEXW4ButtonCode_t@@@Z 1007fa80 f   vgui_controls:Button.obj
 0001:0007eb50       ?OnKeyCodeReleased@Button@vgui@@MAEXW4ButtonCode_t@@@Z 1007fb50 f   vgui_controls:Button.obj
 0001:0007ebf0       ?AddToMap@Button@vgui@@SAXPBDP8Panel@2@AEXXZHH0H0@Z 1007fbf0 f i vgui_controls:Button.obj
 0001:0007ec70       ?InitVar@PanelMessageFunc_DoClick@Button@vgui@@SAXXZ 1007fc70 f i vgui_controls:Button.obj
 0001:0007ecd0       ?InitVar@PanelMessageFunc_OnHotkey@Button@vgui@@SAXXZ 1007fcd0 f i vgui_controls:Button.obj
 0001:0007ed30       ?InitVar@PanelMessageFunc_SetAsDefaultButton@Button@vgui@@SAXXZ 1007fd30 f i vgui_controls:Button.obj
 0001:0007ed90       ?InitVar@PanelMessageFunc_SetAsCurrentDefaultButton@Button@vgui@@SAXXZ 1007fd90 f i vgui_controls:Button.obj
 0001:0007edf0       ?InitVar@PanelMessageFunc_OnSetState@Button@vgui@@SAXXZ 1007fdf0 f i vgui_controls:Button.obj
 0001:0007ee50       ?Init@Button@vgui@@AAEXXZ  1007fe50 f   vgui_controls:Button.obj
 0001:0007f030       ??0Button@vgui@@QAE@PAVPanel@1@PBD101@Z 10080030 f   vgui_controls:Button.obj
 0001:0007f170       ??0Button@vgui@@QAE@PAVPanel@1@PBDPB_W01@Z 10080170 f   vgui_controls:Button.obj
 0001:0007f2e0       ?HasFactory@CBuildFactoryHelper@vgui@@CA_NPBD@Z 100802e0 f   vgui_controls:BuildFactoryHelper.obj
 0001:0007f320       ?InstancePanel@CBuildFactoryHelper@vgui@@SAPAVPanel@2@PBD@Z 10080320 f   vgui_controls:BuildFactoryHelper.obj
 0001:0007f360       ??0CBuildFactoryHelper@vgui@@QAE@PBDP6APAVPanel@1@XZ@Z 10080360 f   vgui_controls:BuildFactoryHelper.obj
 0001:0007f3b0       ?GetFactoryNames@CBuildFactoryHelper@vgui@@SAXAAV?$CUtlVector@PBDV?$CUtlMemory@PBDH@@@@@Z 100803b0 f   vgui_controls:BuildFactoryHelper.obj
 0001:0007f430       ?GetPanelClassName@FileOpenDialog@vgui@@SAPBDXZ 10080430 f i vgui_controls:FileOpenDialog.obj
 0001:0007f6d0       ?GetPanelClassName@FileNameComboBox@vgui@@SAPBDXZ 100806d0 f i vgui_controls:FileOpenDialog.obj
 0001:0007f6e0       ?ApplySchemeSettings@FileOpenDialog@vgui@@MAEXPAVIScheme@2@@Z 100806e0 f   vgui_controls:FileOpenDialog.obj
 0001:0007f840       ?OnKeyCodeTyped@FileOpenDialog@vgui@@MAEXW4ButtonCode_t@@@Z 10080840 f   vgui_controls:FileOpenDialog.obj
 0001:0007f870       ?OnClose@FileOpenDialog@vgui@@MAEXXZ 10080870 f   vgui_controls:FileOpenDialog.obj
 0001:0007f920       ?OnFolderUp@FileOpenDialog@vgui@@MAEXXZ 10080920 f   vgui_controls:FileOpenDialog.obj
 0001:0007f940       ?OnInputCanceled@FileOpenDialog@vgui@@MAEXXZ 10080940 f   vgui_controls:FileOpenDialog.obj
 0001:0007f970       ?OnCommand@FileOpenDialog@vgui@@MAEXPBD@Z 10080970 f   vgui_controls:FileOpenDialog.obj
 0001:0007f9b0       ?AddFilter@FileOpenDialog@vgui@@QAEXPBD0_N0@Z 100809b0 f   vgui_controls:FileOpenDialog.obj
 0001:0007fa30       ?DoModal@FileOpenDialog@vgui@@QAEX_N@Z 10080a30 f   vgui_controls:FileOpenDialog.obj
 0001:0007fa60       ?NewFolder@FileOpenDialog@vgui@@AAEXPBD@Z 10080a60 f   vgui_controls:FileOpenDialog.obj
 0001:0007fb80       ?ValidatePath@FileOpenDialog@vgui@@MAEXXZ 10080b80 f   vgui_controls:FileOpenDialog.obj
 0001:0007fc50       ?GetAttributesAsString@@YAPBDK@Z 10080c50 f   vgui_controls:FileOpenDialog.obj
 0001:0007fd40       ?GetFileTimetamp@@YAPBDU_FILETIME@@@Z 10080d40 f   vgui_controls:FileOpenDialog.obj
 0001:0007fdc0       ?PrepareKV@FileData_t@vgui@@QAEXPAVKeyValues@@@Z 10080dc0 f   vgui_controls:FileOpenDialog.obj
 0001:0007ff60       ?FileNameWildCardMatch@FileOpenDialog@vgui@@SA_NPBD0@Z 10080f60 f   vgui_controls:FileOpenDialog.obj
 0001:00080080       ?PassesFilter@FileOpenDialog@vgui@@AAE_NPAUFileData_t@2@@Z 10081080 f   vgui_controls:FileOpenDialog.obj
 0001:00080100       ?ExtensionMatchesFilter@FileOpenDialog@vgui@@AAE_NPBD@Z 10081100 f   vgui_controls:FileOpenDialog.obj
 0001:00080210       ?ChooseExtension@FileOpenDialog@vgui@@AAEXPADH@Z 10081210 f   vgui_controls:FileOpenDialog.obj
 0001:00080310       ?PostFileSelectedMessage@FileOpenDialog@vgui@@AAEXPBD@Z 10081310 f   vgui_controls:FileOpenDialog.obj
 0001:000803b0       ?PostMultiFileSelectedMessage@FileOpenDialog@vgui@@AAEXXZ 100813b0 f   vgui_controls:FileOpenDialog.obj
 0001:00080510       ?OnTextChanged@FileOpenDialog@vgui@@MAEXPAVKeyValues@@@Z 10081510 f   vgui_controls:FileOpenDialog.obj
 0001:00080590       ??_9BuildModeDialog@vgui@@$BEIM@AE 10081590 f i vgui_controls:BuildModeDialog.obj
 0001:00080590       ??_9FileOpenDialog@vgui@@$BEIM@AE 10081590 f i vgui_controls:FileOpenDialog.obj
 0001:000805a0       ??_9BuildModeDialog@vgui@@$BEJA@AE 100815a0 f i vgui_controls:BuildModeDialog.obj
 0001:000805a0       ??_9FileOpenDialog@vgui@@$BEJA@AE 100815a0 f i vgui_controls:FileOpenDialog.obj
 0001:000805b0       ??_9BuildModeDialog@vgui@@$BEIE@AE 100815b0 f i vgui_controls:BuildModeDialog.obj
 0001:000805b0       ??_9MenuButton@vgui@@$BEIE@AE 100815b0 f i vgui_controls:MenuButton.obj
 0001:000805b0       ??_9FileOpenDialog@vgui@@$BEIE@AE 100815b0 f i vgui_controls:FileOpenDialog.obj
 0001:000805c0       ??_9FileOpenDialog@vgui@@$BEFI@AE 100815c0 f i vgui_controls:FileOpenDialog.obj
 0001:000805c0       ??_9CLocation_Editor_Frame@@$BEFI@AE 100815c0 f i location_editor_frame.obj
 0001:000805c0       ??_9TextEntry@vgui@@$BEFI@AE 100815c0 f i RoomTemplateEditDialog.obj
 0001:000805c0       ??_9BuildModeDialog@vgui@@$BEFI@AE 100815c0 f i vgui_controls:BuildModeDialog.obj
 0001:000805c0       ??_9CRulePickerDialog@@$BEFI@AE 100815c0 f i rule_instance_node_panel.obj
 0001:000805d0       ??0FileNameComboBox@vgui@@QAE@PAVFileOpenDialog@1@PBDH_N@Z 100815d0 f i vgui_controls:FileOpenDialog.obj
 0001:000806a0       ?OnKeyCodeTyped@FileNameComboBox@vgui@@UAEXW4ButtonCode_t@@@Z 100816a0 f i vgui_controls:FileOpenDialog.obj
 0001:00080710       ?OnMenuItemSelected@FileNameComboBox@vgui@@UAEXXZ 10081710 f i vgui_controls:FileOpenDialog.obj
 0001:00080760       ?GetMessageMap@FileNameComboBox@vgui@@UAEPAUPanelMessageMap@2@XZ 10081760 f i vgui_controls:FileOpenDialog.obj
 0001:00080790       ?GetAnimMap@FileNameComboBox@vgui@@UAEPAUPanelAnimationMap@@XZ 10081790 f i vgui_controls:FileOpenDialog.obj
 0001:000807a0       ?GetKBMap@FileNameComboBox@vgui@@UAEPAUPanelKeyBindingMap@2@XZ 100817a0 f i vgui_controls:FileOpenDialog.obj
 0001:000807d0       ??_GFileNameComboBox@vgui@@UAEPAXI@Z 100817d0 f i vgui_controls:FileOpenDialog.obj
 0001:000807d0       ??_GCBuildModeNavCombo@@UAEPAXI@Z 100817d0 f i vgui_controls:BuildModeDialog.obj
 0001:000807d0       ??_ECBuildModeNavCombo@@UAEPAXI@Z 100817d0 f i vgui_controls:BuildModeDialog.obj
 0001:000807d0       ??_EFileNameComboBox@vgui@@UAEPAXI@Z 100817d0 f i vgui_controls:FileOpenDialog.obj
 0001:000807f0       ?PopulateDriveList@FileOpenDialog@vgui@@MAEXXZ 100817f0 f   vgui_controls:FileOpenDialog.obj
 0001:00080940       ?OnInputCompleted@FileOpenDialog@vgui@@MAEXPAVKeyValues@@@Z 10081940 f   vgui_controls:FileOpenDialog.obj
 0001:000809c0       ?OnNewFolder@FileOpenDialog@vgui@@MAEXXZ 100819c0 f   vgui_controls:FileOpenDialog.obj
 0001:00080aa0       ?OnOpenInExplorer@FileOpenDialog@vgui@@MAEXXZ 10081aa0 f   vgui_controls:FileOpenDialog.obj
 0001:00080c00       ?OnItemSelected@FileOpenDialog@vgui@@MAEXXZ 10081c00 f   vgui_controls:FileOpenDialog.obj
 0001:00080d80       ?Grow@?$CUtlMemory@UFileData_t@vgui@@H@@QAEXH@Z 10081d80 f i vgui_controls:FileOpenDialog.obj
 0001:00080e10       ?Links@?$CUtlRBTree@UNode_t@?$CUtlMap@PBDVCUtlString@@G@@GVCKeyLess@2@V?$CUtlMemory@U?$UtlRBTreeNode_t@UNode_t@?$CUtlMap@PBDVCUtlString@@G@@G@@G@@@@IBEABU?$UtlRBTreeLinks_t@G@@G@Z 10081e10 f i vgui_controls:FileOpenDialog.obj
 0001:00080e70       ?CountSubstringMatches@FileOpenDialog@vgui@@AAEHXZ 10081e70 f   vgui_controls:FileOpenDialog.obj
 0001:00080ed0       ?PopulateFileNameSearchHistory@FileOpenDialog@vgui@@MAEXXZ 10081ed0 f   vgui_controls:FileOpenDialog.obj
 0001:00080f30       ?FirstInorder@?$CUtlRBTree@UNode_t@?$CUtlMap@PBDVCUtlString@@G@@GVCKeyLess@2@V?$CUtlMemory@U?$UtlRBTreeNode_t@UNode_t@?$CUtlMap@PBDVCUtlString@@G@@G@@G@@@@QBEGXZ 10081f30 f i vgui_controls:FileOpenDialog.obj
 0001:00081000       ?NextInorder@?$CUtlRBTree@UNode_t@?$CUtlMap@PBDVCUtlString@@G@@GVCKeyLess@2@V?$CUtlMemory@U?$UtlRBTreeNode_t@UNode_t@?$CUtlMap@PBDVCUtlString@@G@@G@@G@@@@QBEGG@Z 10082000 f i vgui_controls:FileOpenDialog.obj
 0001:000811e0       ??1FileData_t@vgui@@QAE@XZ 100821e0 f i vgui_controls:FileOpenDialog.obj
 0001:000812c0       ?AddToMap@FileOpenDialog@vgui@@SAXPBDP8Panel@2@AEXXZHH0H0@Z 100822c0 f i vgui_controls:FileOpenDialog.obj
 0001:00081340       ?InitVar@PanelMessageFunc_OnOpen@FileOpenDialog@vgui@@SAXXZ 10082340 f i vgui_controls:FileOpenDialog.obj
 0001:000813a0       ?InitVar@PanelMessageFunc_OnSelectFolder@FileOpenDialog@vgui@@SAXXZ 100823a0 f i vgui_controls:FileOpenDialog.obj
 0001:00081400       ?InitVar@PanelMessageFunc_OnFolderUp@FileOpenDialog@vgui@@SAXXZ 10082400 f i vgui_controls:FileOpenDialog.obj
 0001:00081460       ?InitVar@PanelMessageFunc_OnNewFolder@FileOpenDialog@vgui@@SAXXZ 10082460 f i vgui_controls:FileOpenDialog.obj
 0001:000814c0       ?InitVar@PanelMessageFunc_OnOpenInExplorer@FileOpenDialog@vgui@@SAXXZ 100824c0 f i vgui_controls:FileOpenDialog.obj
 0001:00081520       ?InitVar@PanelMessageFunc_PopulateFileList@FileOpenDialog@vgui@@SAXXZ 10082520 f i vgui_controls:FileOpenDialog.obj
 0001:00081580       ?InitVar@PanelMessageFunc_PopulateDriveList@FileOpenDialog@vgui@@SAXXZ 10082580 f i vgui_controls:FileOpenDialog.obj
 0001:000815e0       ?InitVar@PanelMessageFunc_PopulateFileNameSearchHistory@FileOpenDialog@vgui@@SAXXZ 100825e0 f i vgui_controls:FileOpenDialog.obj
 0001:00081640       ?InitVar@PanelMessageFunc_OnItemSelected@FileOpenDialog@vgui@@SAXXZ 10082640 f i vgui_controls:FileOpenDialog.obj
 0001:000816a0       ?InitVar@PanelMessageFunc_OnListItemSelected@FileOpenDialog@vgui@@SAXXZ 100826a0 f i vgui_controls:FileOpenDialog.obj
 0001:00081700       ?InitVar@PanelMessageFunc_OnTextChanged@FileOpenDialog@vgui@@SAXXZ 10082700 f i vgui_controls:FileOpenDialog.obj
 0001:00081760       ?InitVar@PanelMessageFunc_OnInputCanceled@FileOpenDialog@vgui@@SAXXZ 10082760 f i vgui_controls:FileOpenDialog.obj
 0001:000817c0       ?InitVar@PanelMessageFunc_OnInputCompleted@FileOpenDialog@vgui@@SAXXZ 100827c0 f i vgui_controls:FileOpenDialog.obj
 0001:00081820       ?InitVar@PanelMessageFunc_OnMatchStringSelected@FileOpenDialog@vgui@@SAXXZ 10082820 f i vgui_controls:FileOpenDialog.obj
 0001:00081880       ?SetStartDirectory@FileOpenDialog@vgui@@QAEXPBD@Z 10082880 f   vgui_controls:FileOpenDialog.obj
 0001:00081910       ?MoveUpFolder@FileOpenDialog@vgui@@MAEXXZ 10082910 f   vgui_controls:FileOpenDialog.obj
 0001:000819d0       ?FilterFileList@FileOpenDialog@vgui@@AAEXXZ 100829d0 f   vgui_controls:FileOpenDialog.obj
 0001:00081b20       ?SaveFileToStartDirContext@FileOpenDialog@vgui@@AAEXPBD@Z 10082b20 f   vgui_controls:FileOpenDialog.obj
 0001:00081b90       ?OnSelectFolder@FileOpenDialog@vgui@@MAEXXZ 10082b90 f   vgui_controls:FileOpenDialog.obj
 0001:00081d50       ?OnMatchStringSelected@FileOpenDialog@vgui@@MAEXXZ 10082d50 f   vgui_controls:FileOpenDialog.obj
 0001:00081db0       ?Init@FileOpenDialog@vgui@@AAEXPBDPAVKeyValues@@@Z 10082db0 f   vgui_controls:FileOpenDialog.obj
 0001:00082670       ?InsertBefore@?$CUtlVector@UFileData_t@vgui@@V?$CUtlMemory@UFileData_t@vgui@@H@@@@QAEHH@Z 10083670 f i vgui_controls:FileOpenDialog.obj
 0001:00082710       ?RemoveAll@?$CUtlRBTree@UNode_t@?$CUtlMap@PBDVCUtlString@@G@@GVCKeyLess@2@V?$CUtlMemory@U?$UtlRBTreeNode_t@UNode_t@?$CUtlMap@PBDVCUtlString@@G@@G@@G@@@@QAEXXZ 10083710 f i vgui_controls:FileOpenDialog.obj
 0001:00082820       ?AddSearchHistoryString@FileOpenDialog@vgui@@AAEXPBD@Z 10083820 f   vgui_controls:FileOpenDialog.obj
 0001:000829b0       ?OnOpen@FileOpenDialog@vgui@@MAEXXZ 100839b0 f   vgui_controls:FileOpenDialog.obj
 0001:00082d50       ?Purge@?$CUtlVector@UFileData_t@vgui@@V?$CUtlMemory@UFileData_t@vgui@@H@@@@QAEXXZ 10083d50 f i vgui_controls:FileOpenDialog.obj
 0001:00082dc0       ?BuildFileList@FileOpenDialog@vgui@@AAEXXZ 10083dc0 f   vgui_controls:FileOpenDialog.obj
 0001:00083040       ?PopulateFileList@FileOpenDialog@vgui@@MAEXXZ 10084040 f   vgui_controls:FileOpenDialog.obj
 0001:00083050       ??1?$CUtlRBTree@UNode_t@?$CUtlMap@PBDVCUtlString@@G@@GVCKeyLess@2@V?$CUtlMemory@U?$UtlRBTreeNode_t@UNode_t@?$CUtlMap@PBDVCUtlString@@G@@G@@G@@@@QAE@XZ 10084050 f i vgui_controls:FileOpenDialog.obj
 0001:000830b0       ?RemoveAll@?$CUtlDict@VCUtlString@@G@@QAEXXZ 100840b0 f i vgui_controls:FileOpenDialog.obj
 0001:00083110       ??0FileOpenDialog@vgui@@QAE@PAVPanel@1@PBD_NPAVKeyValues@@@Z 10084110 f   vgui_controls:FileOpenDialog.obj
 0001:000832b0       ?OnListItemSelected@FileOpenDialog@vgui@@MAEXXZ 100842b0 f i vgui_controls:FileOpenDialog.obj
 0001:000832c0       ?GetMessageMap@FileOpenDialog@vgui@@UAEPAUPanelMessageMap@2@XZ 100842c0 f i vgui_controls:FileOpenDialog.obj
 0001:000832f0       ?GetAnimMap@FileOpenDialog@vgui@@UAEPAUPanelAnimationMap@@XZ 100842f0 f i vgui_controls:FileOpenDialog.obj
 0001:00083300       ?GetKBMap@FileOpenDialog@vgui@@UAEPAUPanelKeyBindingMap@2@XZ 10084300 f i vgui_controls:FileOpenDialog.obj
 0001:00083330       ??1FileOpenDialog@vgui@@UAE@XZ 10084330 f   vgui_controls:FileOpenDialog.obj
 0001:000833e0       ??_EFileOpenDialog@vgui@@UAEPAXI@Z 100843e0 f i vgui_controls:FileOpenDialog.obj
 0001:000833e0       ??_GFileOpenDialog@vgui@@UAEPAXI@Z 100843e0 f i vgui_controls:FileOpenDialog.obj
 0001:00083400       ?Init@MessageBox@vgui@@AAEXXZ 10084400 f   vgui_controls:MessageBox.obj
 0001:00083530       ??1MessageBox@vgui@@UAE@XZ 10084530 f   vgui_controls:MessageBox.obj
 0001:00083560       ?OnCommand@MessageBox@vgui@@UAEXPBD@Z 10084560 f   vgui_controls:MessageBox.obj
 0001:00083610       ?ApplySchemeSettings@MessageBox@vgui@@MAEXPAVIScheme@2@@Z 10084610 f   vgui_controls:MessageBox.obj
 0001:00083730       ?DoModal@MessageBox@vgui@@UAEXPAVFrame@2@@Z 10084730 f   vgui_controls:MessageBox.obj
 0001:00083770       ?ShowWindow@MessageBox@vgui@@UAEXPAVFrame@2@@Z 10084770 f   vgui_controls:MessageBox.obj
 0001:000837e0       ?PerformLayout@MessageBox@vgui@@MAEXXZ 100847e0 f   vgui_controls:MessageBox.obj
 0001:00083aa0       ?SetCommand@MessageBox@vgui@@UAEXPBD@Z 10084aa0 f   vgui_controls:MessageBox.obj
 0001:00083af0       ?SetCommand@MessageBox@vgui@@UAEXPAVKeyValues@@@Z 10084af0 f   vgui_controls:MessageBox.obj
 0001:00083b20       ?OnShutdownRequest@MessageBox@vgui@@EAEXXZ 10084b20 f   vgui_controls:MessageBox.obj
 0001:00083b60       ?SetOKButtonVisible@MessageBox@vgui@@UAEX_N@Z 10084b60 f   vgui_controls:MessageBox.obj
 0001:00083b70       ?SetOKButtonText@MessageBox@vgui@@UAEXPBD@Z 10084b70 f   vgui_controls:MessageBox.obj
 0001:00083ba0       ?SetOKButtonText@MessageBox@vgui@@UAEXPB_W@Z 10084ba0 f   vgui_controls:MessageBox.obj
 0001:00083bd0       ?SetCancelButtonVisible@MessageBox@vgui@@QAEX_N@Z 10084bd0 f   vgui_controls:MessageBox.obj
 0001:00083c00       ?SetCancelButtonText@MessageBox@vgui@@QAEXPBD@Z 10084c00 f   vgui_controls:MessageBox.obj
 0001:00083c30       ?SetCancelCommand@MessageBox@vgui@@QAEXPAVKeyValues@@@Z 10084c30 f   vgui_controls:MessageBox.obj
 0001:00083c60       ?DisableCloseButton@MessageBox@vgui@@UAEX_N@Z 10084c60 f   vgui_controls:MessageBox.obj
 0001:00083c80       ??_EMessageBox@vgui@@UAEPAXI@Z 10084c80 f i vgui_controls:MessageBox.obj
 0001:00083c80       ??_GMessageBox@vgui@@UAEPAXI@Z 10084c80 f i vgui_controls:MessageBox.obj
 0001:00083cd0       ?AddToMap@MessageBox@vgui@@SAXPBDP8Panel@2@AEXXZHH0H0@Z 10084cd0 f i vgui_controls:MessageBox.obj
 0001:00083d50       ?InitVar@PanelMessageFunc_OnShutdownRequest@MessageBox@vgui@@SAXXZ 10084d50 f i vgui_controls:MessageBox.obj
 0001:00083db0       ??0MessageBox@vgui@@QAE@PBD0PAVPanel@1@@Z 10084db0 f   vgui_controls:MessageBox.obj
 0001:00083ec0       ?MessageBox_Factory@@YAPAVPanel@vgui@@XZ 10084ec0 f   vgui_controls:MessageBox.obj
 0001:00083ef0       ?GetPanelClassName@Menu@vgui@@SAPBDXZ 10084ef0 f i vgui_controls:Menu.obj
 0001:00083f00       ?GetPanelClassName@MenuSeparator@vgui@@SAPBDXZ 10084f00 f i vgui_controls:Menu.obj
 0001:00083f10       ?AddMenuItem@Menu@vgui@@UAEHPBD00PAVPanel@2@PBVKeyValues@@@Z 10084f10 f   vgui_controls:Menu.obj
 0001:00083f90       ?AddMenuItem@Menu@vgui@@UAEHPBDPB_W0PAVPanel@2@PBVKeyValues@@@Z 10084f90 f   vgui_controls:Menu.obj
 0001:00084010       ?AddMenuItem@Menu@vgui@@UAEHPBD0PAVPanel@2@PBVKeyValues@@@Z 10085010 f   vgui_controls:Menu.obj
 0001:00084040       ?AddMenuItem@Menu@vgui@@UAEHPBD0PAVKeyValues@@PAVPanel@2@PBV3@@Z 10085040 f   vgui_controls:Menu.obj
 0001:000840c0       ?AddMenuItem@Menu@vgui@@UAEHPBDPB_WPAVKeyValues@@PAVPanel@2@PBV3@@Z 100850c0 f   vgui_controls:Menu.obj
 0001:00084140       ?AddMenuItem@Menu@vgui@@UAEHPBDPAVKeyValues@@PAVPanel@2@PBV3@@Z 10085140 f   vgui_controls:Menu.obj
 0001:00084170       ?AddMenuItem@Menu@vgui@@UAEHPBDPAVPanel@2@PBVKeyValues@@@Z 10085170 f   vgui_controls:Menu.obj
 0001:00084190       ?AddCheckableMenuItem@Menu@vgui@@UAEHPBD00PAVPanel@2@PBVKeyValues@@@Z 10085190 f   vgui_controls:Menu.obj
 0001:00084210       ?AddCheckableMenuItem@Menu@vgui@@UAEHPBDPB_W0PAVPanel@2@PBVKeyValues@@@Z 10085210 f   vgui_controls:Menu.obj
 0001:00084290       ?AddCheckableMenuItem@Menu@vgui@@UAEHPBD0PAVPanel@2@PBVKeyValues@@@Z 10085290 f   vgui_controls:Menu.obj
 0001:000842c0       ?AddCheckableMenuItem@Menu@vgui@@UAEHPBD0PAVKeyValues@@PAVPanel@2@PBV3@@Z 100852c0 f   vgui_controls:Menu.obj
 0001:00084340       ?AddCheckableMenuItem@Menu@vgui@@UAEHPBDPB_WPAVKeyValues@@PAVPanel@2@PBV3@@Z 10085340 f   vgui_controls:Menu.obj
 0001:000843c0       ?AddCheckableMenuItem@Menu@vgui@@UAEHPBDPAVKeyValues@@PAVPanel@2@PBV3@@Z 100853c0 f   vgui_controls:Menu.obj
 0001:000843f0       ?AddCheckableMenuItem@Menu@vgui@@UAEHPBDPAVPanel@2@PBVKeyValues@@@Z 100853f0 f   vgui_controls:Menu.obj
 0001:00084410       ?AddCascadingMenuItem@Menu@vgui@@UAEHPBD00PAVPanel@2@PAV12@PBVKeyValues@@@Z 10085410 f   vgui_controls:Menu.obj
 0001:00084490       ?AddCascadingMenuItem@Menu@vgui@@UAEHPBDPB_W0PAVPanel@2@PAV12@PBVKeyValues@@@Z 10085490 f   vgui_controls:Menu.obj
 0001:00084510       ?AddCascadingMenuItem@Menu@vgui@@UAEHPBD0PAVPanel@2@PAV12@PBVKeyValues@@@Z 10085510 f   vgui_controls:Menu.obj
 0001:00084540       ?AddCascadingMenuItem@Menu@vgui@@UAEHPBD0PAVKeyValues@@PAVPanel@2@PAV12@PBV3@@Z 10085540 f   vgui_controls:Menu.obj
 0001:000845c0       ?AddCascadingMenuItem@Menu@vgui@@UAEHPBDPB_WPAVKeyValues@@PAVPanel@2@PAV12@PBV3@@Z 100855c0 f   vgui_controls:Menu.obj
 0001:00084640       ?AddCascadingMenuItem@Menu@vgui@@UAEHPBDPAVKeyValues@@PAVPanel@2@PAV12@PBV3@@Z 10085640 f   vgui_controls:Menu.obj
 0001:00084670       ?AddCascadingMenuItem@Menu@vgui@@UAEHPBDPAVPanel@2@PAV12@PBVKeyValues@@@Z 10085670 f   vgui_controls:Menu.obj
 0001:000846a0       ?SetFixedWidth@Menu@vgui@@UAEXH@Z 100856a0 f   vgui_controls:Menu.obj
 0001:000846c0       ?SetMenuItemHeight@Menu@vgui@@UAEXH@Z 100856c0 f   vgui_controls:Menu.obj
 0001:000846d0       ?GetBuildGroup@EditablePanel@vgui@@UAEPAVBuildGroup@2@XZ 100856d0 f   vgui_controls:EditablePanel.obj
 0001:000846d0       ?GetMenuItemHeight@Menu@vgui@@UBEHXZ 100856d0 f   vgui_controls:Menu.obj
 0001:000846e0       ?ComputeWorkspaceSize@Menu@vgui@@IAEXAAH0@Z 100856e0 f   vgui_controls:Menu.obj
 0001:00084740       ?PositionRelativeToPanel@Menu@vgui@@UAEXPAVPanel@2@W4MenuDirection_e@12@H_N@Z 10085740 f   vgui_controls:Menu.obj
 0001:00084920       ?PositionCascadingMenu@Menu@vgui@@IAEXXZ 10085920 f   vgui_controls:Menu.obj
 0001:00084a60       ?LayoutMenuBorder@Menu@vgui@@MAEXXZ 10085a60 f   vgui_controls:Menu.obj
 0001:00084aa0       ?Paint@Menu@vgui@@MAEXXZ   10085aa0 f   vgui_controls:Menu.obj
 0001:00084b80       ?SetNumberOfVisibleItems@Menu@vgui@@UAEXH@Z 10085b80 f   vgui_controls:Menu.obj
 0001:00084ba0       ?OnCommand@Menu@vgui@@MAEXPBD@Z 10085ba0 f   vgui_controls:Menu.obj
 0001:00084bf0       ?SetTabSpaces@TextEntry@vgui@@UAEXH@Z 10085bf0 f   vgui_controls:TextEntry.obj
 0001:00084bf0       ?SetTypeAheadMode@Menu@vgui@@UAEXW4MenuTypeAheadMode@12@@Z 10085bf0 f   vgui_controls:Menu.obj
 0001:00084c00       ?GetTypeAheadMode@Menu@vgui@@UAEHXZ 10085c00 f   vgui_controls:Menu.obj
 0001:00084c10       ?OnMouseWheeled@Menu@vgui@@MAEXH@Z 10085c10 f   vgui_controls:Menu.obj
 0001:00084c60       ?IsWithinMenuOrRelative@CMenuManager@vgui@@QAE_NPAVPanel@2@HH@Z 10085c60 f i vgui_controls:Menu.obj
 0001:00084d10       ?SetBorder@Menu@vgui@@UAEXPAVIBorder@2@@Z 10085d10 f   vgui_controls:Menu.obj
 0001:00084d20       ?GetParentMenuItem@Menu@vgui@@AAEPAVMenuItem@2@XZ 10085d20 f   vgui_controls:Menu.obj
 0001:00084d50       ?GetActiveItem@Menu@vgui@@UAEHXZ 10085d50 f   vgui_controls:Menu.obj
 0001:00084d50       ?GetRadioTabPosition@RadioButton@vgui@@UAEHXZ 10085d50 f   vgui_controls:RadioButton.obj
 0001:00084d60       ?AddScrollBar@Menu@vgui@@MAEXXZ 10085d60 f   vgui_controls:Menu.obj
 0001:00084d80       ?RemoveScrollBar@Menu@vgui@@MAEXXZ 10085d80 f   vgui_controls:Menu.obj
 0001:00084da0       ?OnCursorMoved@Menu@vgui@@MAEXHH@Z 10085da0 f   vgui_controls:Menu.obj
 0001:00084e10       ?OnKeyCodePressed@Menu@vgui@@MAEXW4ButtonCode_t@@@Z 10085e10 f   vgui_controls:Menu.obj
 0001:00084e90       ?GetCurrentlyHighlightedItem@Menu@vgui@@QAEHXZ 10085e90 f   vgui_controls:Menu.obj
 0001:00084ea0       ?OnCursorExitedMenuItem@Menu@vgui@@MAEXH@Z 10085ea0 f   vgui_controls:Menu.obj
 0001:00084ee0       ?GetMenuMode@Menu@vgui@@QAEHXZ 10085ee0 f   vgui_controls:Menu.obj
 0001:00084ef0       ?OnKeyModeSet@Menu@vgui@@MAEXXZ 10085ef0 f   vgui_controls:Menu.obj
 0001:00084f00       ?SetFont@Menu@vgui@@UAEXK@Z 10085f00 f   vgui_controls:Menu.obj
 0001:00084f40       ?PlaceContextMenu@Menu@vgui@@SAXPAVPanel@2@PAV12@@Z 10085f40 f   vgui_controls:Menu.obj
 0001:00085040       ?SetUseFallbackFont@Menu@vgui@@QAEX_NK@Z 10086040 f   vgui_controls:Menu.obj
 0001:00085070       ??_9Menu@vgui@@$BEAA@AE    10086070 f i vgui_controls:Menu.obj
 0001:00085080       ??_9Menu@vgui@@$BECA@AE    10086080 f i vgui_controls:Menu.obj
 0001:00085090       ??_9Menu@vgui@@$BECE@AE    10086090 f i vgui_controls:Menu.obj
 0001:000850a0       ??0MenuSeparator@vgui@@QAE@PAVPanel@1@PBD@Z 100860a0 f i vgui_controls:Menu.obj
 0001:00085180       ?Paint@MenuSeparator@vgui@@UAEXXZ 10086180 f i vgui_controls:Menu.obj
 0001:000851e0       ?GetMessageMap@MenuSeparator@vgui@@UAEPAUPanelMessageMap@2@XZ 100861e0 f i vgui_controls:Menu.obj
 0001:00085210       ?GetAnimMap@MenuSeparator@vgui@@UAEPAUPanelAnimationMap@@XZ 10086210 f i vgui_controls:Menu.obj
 0001:00085220       ?GetKBMap@MenuSeparator@vgui@@UAEPAUPanelKeyBindingMap@2@XZ 10086220 f i vgui_controls:Menu.obj
 0001:00085250       ?ApplySchemeSettings@MenuSeparator@vgui@@UAEXPAVIScheme@2@@Z 10086250 f i vgui_controls:Menu.obj
 0001:000852e0       ?OnKillFocus@Menu@vgui@@UAEXXZ 100862e0 f   vgui_controls:Menu.obj
 0001:000853f0       ?GetItemCount@Menu@vgui@@UAEHXZ 100863f0 f   vgui_controls:Menu.obj
 0001:00085400       ?IsValidIndex@?$CUtlLinkedList@PAVMenuItem@vgui@@H$0A@HV?$CUtlMemory@U?$UtlLinkedListElem_t@PAVMenuItem@vgui@@H@@H@@@@QBE_NH@Z 10086400 f i vgui_controls:Menu.obj
 0001:00085440       ?UpdateMenuItem@Menu@vgui@@UAEXHPBDPAVKeyValues@@PBV3@@Z 10086440 f   vgui_controls:Menu.obj
 0001:000854c0       ?UpdateMenuItem@Menu@vgui@@UAEXHPB_WPAVKeyValues@@PBV3@@Z 100864c0 f   vgui_controls:Menu.obj
 0001:00085550       ?CountVisibleItems@Menu@vgui@@IAEHXZ 10086550 f   vgui_controls:Menu.obj
 0001:000855b0       ?LayoutScrollBar@Menu@vgui@@IAEXXZ 100865b0 f   vgui_controls:Menu.obj
 0001:000856a0       ?GetMenuItem@Menu@vgui@@QAEPAVMenuItem@2@H@Z 100866a0 f   vgui_controls:Menu.obj
 0001:000856f0       ?IsValidMenuID@Menu@vgui@@UAE_NH@Z 100866f0 f   vgui_controls:Menu.obj
 0001:00085730       ?InvalidItemID@ListViewPanel@vgui@@UAEHXZ 10086730 f   vgui_controls:ListViewPanel.obj
 0001:00085730       ?InvalidItemID@TreeView@vgui@@UBEHXZ 10086730 f   vgui_controls:TreeView.obj
 0001:00085730       ?GetInvalidMenuID@Menu@vgui@@UAEHXZ 10086730 f   vgui_controls:Menu.obj
 0001:00085730       ?InvalidItemID@ListPanel@vgui@@UBEHXZ 10086730 f   vgui_controls:ListPanel.obj
 0001:00085740       ?GetItemUserData@Menu@vgui@@QAEPAVKeyValues@@H@Z 10086740 f   vgui_controls:Menu.obj
 0001:000857a0       ?GetItemText@Menu@vgui@@QAEXHPA_WH@Z 100867a0 f   vgui_controls:Menu.obj
 0001:00085810       ?ActivateItem@Menu@vgui@@UAEXH@Z 10086810 f   vgui_controls:Menu.obj
 0001:00085880       ?ActivateItemByRow@Menu@vgui@@UAEXH@Z 10086880 f   vgui_controls:Menu.obj
 0001:000858b0       ?GetMenuID@Menu@vgui@@UAEHH@Z 100868b0 f   vgui_controls:Menu.obj
 0001:000858e0       ?SetItemEnabled@Menu@vgui@@UAEXH_N@Z 100868e0 f   vgui_controls:Menu.obj
 0001:00085930       ?SetItemVisible@Menu@vgui@@UAEXH_N@Z 10086930 f   vgui_controls:Menu.obj
 0001:00085980       ?ClearCurrentlyHighlightedItem@Menu@vgui@@QAEXXZ 10086980 f   vgui_controls:Menu.obj
 0001:000859e0       ?SetCurrentlySelectedItem@Menu@vgui@@IAEXH@Z 100869e0 f   vgui_controls:Menu.obj
 0001:00085a70       ?SetMenuItemChecked@Menu@vgui@@QAEXH_N@Z 10086a70 f   vgui_controls:Menu.obj
 0001:00085a90       ?IsChecked@Menu@vgui@@QAE_NH@Z 10086a90 f   vgui_controls:Menu.obj
 0001:00085ab0       ?AllocInternal@?$CUtlLinkedList@PAVMenuItem@vgui@@H$0A@HV?$CUtlMemory@U?$UtlLinkedListElem_t@PAVMenuItem@vgui@@H@@H@@@@IAEH_N@Z 10086ab0 f i vgui_controls:Menu.obj
 0001:00085be0       ?ComputeFullMenuHeightWithInsets@Menu@vgui@@IAEHXZ 10086be0 f   vgui_controls:Menu.obj
 0001:00085c90       ?CalculateWidth@Menu@vgui@@IAEXXZ 10086c90 f   vgui_controls:Menu.obj
 0001:00085d30       ?SizeMenuItems@Menu@vgui@@IAEXXZ 10086d30 f   vgui_controls:Menu.obj
 0001:00085da0       ?CloseOtherMenus@Menu@vgui@@QAEXPAVMenuItem@2@@Z 10086da0 f   vgui_controls:Menu.obj
 0001:00085df0       ?OnHotKey@Menu@vgui@@MAEX_W@Z 10086df0 f   vgui_controls:Menu.obj
 0001:00085ec0       ?RemoveMenu@CMenuManager@vgui@@QAEXPAVMenu@2@@Z 10086ec0 f i vgui_controls:Menu.obj
 0001:00085f20       ?AbortMenus@CMenuManager@vgui@@QAEXXZ 10086f20 f i vgui_controls:Menu.obj
 0001:00085f90       ?ApplySchemeSettings@Menu@vgui@@UAEXPAVIScheme@2@@Z 10086f90 f   vgui_controls:Menu.obj
 0001:000860b0       ?SetBgColor@Menu@vgui@@UAEXVColor@@@Z 100870b0 f   vgui_controls:Menu.obj
 0001:00086120       ?SetFgColor@Menu@vgui@@UAEXVColor@@@Z 10087120 f   vgui_controls:Menu.obj
 0001:00086190       ?OnMenuItemSelected@Menu@vgui@@MAEXPAVPanel@2@@Z 10087190 f   vgui_controls:Menu.obj
 0001:00086320       ?SetItemEnabled@Menu@vgui@@UAEXPBD_N@Z 10087320 f   vgui_controls:Menu.obj
 0001:00086390       ?SetItemVisible@Menu@vgui@@UAEXPBD_N@Z 10087390 f   vgui_controls:Menu.obj
 0001:00086410       ?OnSliderMoved@Menu@vgui@@MAEXXZ 10087410 f   vgui_controls:Menu.obj
 0001:00086440       ?SetCurrentlySelectedItem@Menu@vgui@@IAEXPAVMenuItem@2@@Z 10087440 f   vgui_controls:Menu.obj
 0001:00086490       ?SetCurrentlyHighlightedItem@Menu@vgui@@QAEXH@Z 10087490 f   vgui_controls:Menu.obj
 0001:000865a0       ?OnCursorEnteredMenuItem@Menu@vgui@@MAEXH@Z 100875a0 f   vgui_controls:Menu.obj
 0001:000865f0       ?MoveAlongMenuItemList@Menu@vgui@@IAEXHH@Z 100875f0 f   vgui_controls:Menu.obj
 0001:000867f0       ?RemoveAll@?$CUtlLinkedList@PAVMenuItem@vgui@@H$0A@HV?$CUtlMemory@U?$UtlLinkedListElem_t@PAVMenuItem@vgui@@H@@H@@@@QAEXXZ 100877f0 f i vgui_controls:Menu.obj
 0001:000867f0       ?RemoveAll@?$CUtlLinkedList@PAVTreeNode@vgui@@H$0A@HV?$CUtlMemory@U?$UtlLinkedListElem_t@PAVTreeNode@vgui@@H@@H@@@@QAEXXZ 100877f0 f i vgui_controls:TreeView.obj
 0001:000867f0       ?RemoveAll@?$CUtlLinkedList@PAVListViewItem@vgui@@H$0A@HV?$CUtlMemory@U?$UtlLinkedListElem_t@PAVListViewItem@vgui@@H@@H@@@@QAEXXZ 100877f0 f i vgui_controls:ListViewPanel.obj
 0001:000867f0       ?RemoveAll@?$CUtlLinkedList@PAVFastSortListPanelItem@vgui@@H$0A@HV?$CUtlMemory@U?$UtlLinkedListElem_t@PAVFastSortListPanelItem@vgui@@H@@H@@@@QAEXXZ 100877f0 f i vgui_controls:ListPanel.obj
 0001:00086850       ?DeleteAllItems@Menu@vgui@@QAEXXZ 10087850 f   vgui_controls:Menu.obj
 0001:00086900       ?ForceCalculateWidth@Menu@vgui@@QAEXXZ 10087900 f   vgui_controls:Menu.obj
 0001:00086920       ?OnKeyCodeTyped@Menu@vgui@@UAEXW4ButtonCode_t@@@Z 10087920 f   vgui_controls:Menu.obj
 0001:00086d40       ?OnTypeAhead@Menu@vgui@@MAEX_W@Z 10087d40 f   vgui_controls:Menu.obj
 0001:00086e60       ?OnKeyTyped@Menu@vgui@@UAEX_W@Z 10087e60 f   vgui_controls:Menu.obj
 0001:00086f80       ?OnInternalMousePressed@CMenuManager@vgui@@QAEXPAVPanel@2@W4ButtonCode_t@@@Z 10087f80 f i vgui_controls:Menu.obj
 0001:00087030       ?OnInternalMousePressed@Menu@vgui@@SAXPAVPanel@2@W4ButtonCode_t@@@Z 10088030 f   vgui_controls:Menu.obj
 0001:00087050       ?MoveMenuItem@Menu@vgui@@UAEXHH@Z 10088050 f   vgui_controls:Menu.obj
 0001:00087140       ?AddToMap@Menu@vgui@@SAXPBDP8Panel@2@AEXXZHH0H0@Z 10088140 f i vgui_controls:Menu.obj
 0001:000871c0       ?InitVar@PanelMessageFunc_OnMenuItemSelected@Menu@vgui@@SAXXZ 100881c0 f i vgui_controls:Menu.obj
 0001:00087220       ?InitVar@PanelMessageFunc_OnSliderMoved@Menu@vgui@@SAXXZ 10088220 f i vgui_controls:Menu.obj
 0001:00087280       ?InitVar@PanelMessageFunc_OnKeyModeSet@Menu@vgui@@SAXXZ 10088280 f i vgui_controls:Menu.obj
 0001:000872e0       ?InitVar@PanelMessageFunc_OnCursorEnteredMenuItem@Menu@vgui@@SAXXZ 100882e0 f i vgui_controls:Menu.obj
 0001:00087340       ?InitVar@PanelMessageFunc_OnCursorExitedMenuItem@Menu@vgui@@SAXXZ 10088340 f i vgui_controls:Menu.obj
 0001:000873a0       ??1Menu@vgui@@UAE@XZ       100883a0 f   vgui_controls:Menu.obj
 0001:00087430       ?GetMessageMap@Menu@vgui@@UAEPAUPanelMessageMap@2@XZ 10088430 f i vgui_controls:Menu.obj
 0001:00087460       ?GetAnimMap@Menu@vgui@@UAEPAUPanelAnimationMap@@XZ 10088460 f i vgui_controls:Menu.obj
 0001:00087470       ?GetKBMap@Menu@vgui@@UAEPAUPanelKeyBindingMap@2@XZ 10088470 f i vgui_controls:Menu.obj
 0001:000874a0       ?PerformLayout@Menu@vgui@@UAEXXZ 100884a0 f   vgui_controls:Menu.obj
 0001:00087880       ?MakeItemsVisibleInScrollRange@Menu@vgui@@MAEXHH@Z 10088880 f   vgui_controls:Menu.obj
 0001:00087a20       ?AddMenu@CMenuManager@vgui@@QAEXPAVMenu@2@@Z 10088a20 f i vgui_controls:Menu.obj
 0001:00087ad0       ?SetVisible@Menu@vgui@@UAEX_N@Z 10088ad0 f   vgui_controls:Menu.obj
 0001:00087b80       ?AddSeparator@Menu@vgui@@UAEXXZ 10088b80 f   vgui_controls:Menu.obj
 0001:00087bf0       ?AddSeparatorAfterItem@Menu@vgui@@UAEXH@Z 10088bf0 f   vgui_controls:Menu.obj
 0001:00087c60       ??0Menu@vgui@@QAE@PAVPanel@1@PBD@Z 10088c60 f   vgui_controls:Menu.obj
 0001:00087f10       ??_GMenu@vgui@@UAEPAXI@Z   10088f10 f i vgui_controls:Menu.obj
 0001:00087f10       ??_EMenu@vgui@@UAEPAXI@Z   10088f10 f i vgui_controls:Menu.obj
 0001:00087f30       ?AddToTail@?$CUtlLinkedList@PAVMenuItem@vgui@@H$0A@HV?$CUtlMemory@U?$UtlLinkedListElem_t@PAVMenuItem@vgui@@H@@H@@@@QAEHABQAVMenuItem@vgui@@@Z 10088f30 f i vgui_controls:Menu.obj
 0001:00087fc0       ?AddMenuItem@Menu@vgui@@UAEHPAVMenuItem@2@@Z 10088fc0 f   vgui_controls:Menu.obj
 0001:000880b0       ?GetPanelClassName@MenuButton@vgui@@SAPBDXZ 100890b0 f i vgui_controls:MenuButton.obj
 0001:000880c0       ??1MenuButton@vgui@@UAE@XZ 100890c0 f   vgui_controls:MenuButton.obj
 0001:000880f0       ?SetMenu@MenuButton@vgui@@UAEXPAVMenu@2@@Z 100890f0 f   vgui_controls:MenuButton.obj
 0001:00088140       ?SetOpenDirection@MenuButton@vgui@@UAEXW4MenuDirection_e@Menu@2@@Z 10089140 f   vgui_controls:MenuButton.obj
 0001:00088150       ?HideMenu@MenuButton@vgui@@UAEXXZ 10089150 f   vgui_controls:MenuButton.obj
 0001:000881a0       ?OnKillFocus@MenuButton@vgui@@UAEXPAVKeyValues@@@Z 100891a0 f   vgui_controls:MenuButton.obj
 0001:00088200       ?OnMenuClose@MenuButton@vgui@@UAEXXZ 10089200 f   vgui_controls:MenuButton.obj
 0001:00088250       ?SetColumnHeaderHeight@ListPanel@vgui@@UAEXH@Z 10089250 f   vgui_controls:ListPanel.obj
 0001:00088250       ?SetOpenOffsetY@MenuButton@vgui@@UAEXH@Z 10089250 f   vgui_controls:MenuButton.obj
 0001:00088260       ?OnCursorEntered@MenuButton@vgui@@UAEXXZ 10089260 f   vgui_controls:MenuButton.obj
 0001:000882d0       ?ApplySchemeSettings@MenuButton@vgui@@UAEXPAVIScheme@2@@Z 100892d0 f   vgui_controls:MenuButton.obj
 0001:00088300       ?Paint@MenuButton@vgui@@UAEXXZ 10089300 f   vgui_controls:MenuButton.obj
 0001:000883e0       ?OnCursorMoved@MenuButton@vgui@@UAEXHH@Z 100893e0 f   vgui_controls:MenuButton.obj
 0001:00088480       ?GetMessageMap@MenuButton@vgui@@UAEPAUPanelMessageMap@2@XZ 10089480 f i vgui_controls:MenuButton.obj
 0001:000884b0       ?GetAnimMap@MenuButton@vgui@@UAEPAUPanelAnimationMap@@XZ 100894b0 f i vgui_controls:MenuButton.obj
 0001:000884c0       ?GetKBMap@MenuButton@vgui@@UAEPAUPanelKeyBindingMap@2@XZ 100894c0 f i vgui_controls:MenuButton.obj
 0001:000884f0       ??_EMenuButton@vgui@@UAEPAXI@Z 100894f0 f i vgui_controls:MenuButton.obj
 0001:000884f0       ??_GMenuButton@vgui@@UAEPAXI@Z 100894f0 f i vgui_controls:MenuButton.obj
 0001:00088530       ?DoClick@MenuButton@vgui@@UAEXXZ 10089530 f   vgui_controls:MenuButton.obj
 0001:00088680       ?OnKeyCodeTyped@MenuButton@vgui@@UAEXW4ButtonCode_t@@@Z 10089680 f   vgui_controls:MenuButton.obj
 0001:00088750       ?PerformLayout@MenuButton@vgui@@UAEXXZ 10089750 f   vgui_controls:MenuButton.obj
 0001:000887d0       ?AddToMap@MenuButton@vgui@@SAXPBDP8Panel@2@AEXXZHH0H0@Z 100897d0 f i vgui_controls:MenuButton.obj
 0001:00088850       ?InitVar@PanelMessageFunc_OnMenuClose@MenuButton@vgui@@SAXXZ 10089850 f i vgui_controls:MenuButton.obj
 0001:000888b0       ?InitVar@PanelMessageFunc_OnKillFocus@MenuButton@vgui@@SAXXZ 100898b0 f i vgui_controls:MenuButton.obj
 0001:00088910       ??0MenuButton@vgui@@QAE@PAVPanel@1@PBD1@Z 10089910 f   vgui_controls:MenuButton.obj
 0001:00088a90       ?GetPanelClassName@MenuBar@vgui@@SAPBDXZ 10089a90 f i vgui_controls:MenuBar.obj
 0001:00088aa0       ?AddMenu@MenuBar@vgui@@UAEXPBDPAVMenu@2@@Z 10089aa0 f   vgui_controls:MenuBar.obj
 0001:00088af0       ?ApplySchemeSettings@MenuBar@vgui@@MAEXPAVIScheme@2@@Z 10089af0 f   vgui_controls:MenuBar.obj
 0001:00088b60       ?GetContentSize@MenuBar@vgui@@UAEXAAH0@Z 10089b60 f   vgui_controls:MenuBar.obj
 0001:00088b80       ?OnMenuClose@MenuBar@vgui@@MAEXXZ 10089b80 f   vgui_controls:MenuBar.obj
 0001:00088b90       ?OnKeyCodeTyped@MenuBar@vgui@@MAEXW4ButtonCode_t@@@Z 10089b90 f   vgui_controls:MenuBar.obj
 0001:00088c80       ?OnKeyTyped@MenuBar@vgui@@MAEX_W@Z 10089c80 f   vgui_controls:MenuBar.obj
 0001:00088d20       ?Paint@MenuBar@vgui@@MAEXXZ 10089d20 f   vgui_controls:MenuBar.obj
 0001:00088dc0       ?PerformLayout@MenuBar@vgui@@MAEXXZ 10089dc0 f   vgui_controls:MenuBar.obj
 0001:00088e60       ?OnCursorEnteredMenuButton@MenuBar@vgui@@MAEXH@Z 10089e60 f   vgui_controls:MenuBar.obj
 0001:00088f20       ?GetMessageMap@MenuBar@vgui@@UAEPAUPanelMessageMap@2@XZ 10089f20 f i vgui_controls:MenuBar.obj
 0001:00088f50       ?GetAnimMap@MenuBar@vgui@@UAEPAUPanelAnimationMap@@XZ 10089f50 f i vgui_controls:MenuBar.obj
 0001:00088f60       ?GetKBMap@MenuBar@vgui@@UAEPAUPanelKeyBindingMap@2@XZ 10089f60 f i vgui_controls:MenuBar.obj
 0001:00088f90       ?AddToMap@MenuBar@vgui@@SAXPBDP8Panel@2@AEXXZHH0H0@Z 10089f90 f i vgui_controls:MenuBar.obj
 0001:00089010       ?InitVar@PanelMessageFunc_OnMenuClose@MenuBar@vgui@@SAXXZ 1008a010 f i vgui_controls:MenuBar.obj
 0001:00089070       ?InitVar@PanelMessageFunc_OnCursorEnteredMenuButton@MenuBar@vgui@@SAXXZ 1008a070 f i vgui_controls:MenuBar.obj
 0001:000890d0       ??0MenuBar@vgui@@QAE@PAVPanel@1@PBD@Z 1008a0d0 f   vgui_controls:MenuBar.obj
 0001:000891c0       ??_GMenuBar@vgui@@UAEPAXI@Z 1008a1c0 f i vgui_controls:MenuBar.obj
 0001:000891c0       ??_EMenuBar@vgui@@UAEPAXI@Z 1008a1c0 f i vgui_controls:MenuBar.obj
 0001:00089200       ?AddButton@MenuBar@vgui@@UAEXPAVMenuButton@2@@Z 1008a200 f   vgui_controls:MenuBar.obj
 0001:00089260       ?GetPanelClassName@TextEntry@vgui@@SAPBDXZ 1008a260 f i vgui_controls:TextEntry.obj
 0001:00089270       ?SetSelectionTextColor@TextEntry@vgui@@QAEXABVColor@@@Z 1008a270 f   vgui_controls:TextEntry.obj
 0001:00089280       ?SetSelectionBgColor@TextEntry@vgui@@QAEXABVColor@@@Z 1008a280 f   vgui_controls:TextEntry.obj
 0001:00089290       ?SetSelectionUnfocusedBgColor@TextEntry@vgui@@QAEXABVColor@@@Z 1008a290 f   vgui_controls:TextEntry.obj
 0001:000892a0       ?SetDisabledBgColor@TextEntry@vgui@@UAEXVColor@@@Z 1008a2a0 f   vgui_controls:TextEntry.obj
 0001:000892b0       ?OnKillFocus@TextEntry@vgui@@MAEXXZ 1008a2b0 f   vgui_controls:TextEntry.obj
 0001:000893a0       ?SetText@TextEntry@vgui@@UAEXPBD@Z 1008a3a0 f   vgui_controls:TextEntry.obj
 0001:00089490       ?ResetCursorBlink@TextEntry@vgui@@MAEXXZ 1008a490 f   vgui_controls:TextEntry.obj
 0001:000894c0       ?SetTextHidden@TextEntry@vgui@@UAEX_N@Z 1008a4c0 f   vgui_controls:TextEntry.obj
 0001:000894e0       ?getCharWidth@@YAHK_W@Z    1008a4e0 f   vgui_controls:TextEntry.obj
 0001:00089540       ?DrawChar@TextEntry@vgui@@MAEH_WKHHH@Z 1008a540 f   vgui_controls:TextEntry.obj
 0001:000896f0       ?DrawCursor@TextEntry@vgui@@MAE_NHH@Z 1008a6f0 f   vgui_controls:TextEntry.obj
 0001:00089780       ?PerformLayout@TextEntry@vgui@@MAEXXZ 1008a780 f   vgui_controls:TextEntry.obj
 0001:000897c0       ?AddAnotherLine@TextEntry@vgui@@MAEXAAH0@Z 1008a7c0 f   vgui_controls:TextEntry.obj
 0001:00089800       ?SetEnabled@TextEntry@vgui@@UAEX_N@Z 1008a800 f   vgui_controls:TextEntry.obj
 0001:00089820       ?SetMultiline@TextEntry@vgui@@UAEX_N@Z 1008a820 f   vgui_controls:TextEntry.obj
 0001:00089830       ?IsMultiline@TextEntry@vgui@@UAE_NXZ 1008a830 f   vgui_controls:TextEntry.obj
 0001:00089840       ?SetCatchEnterKey@TextEntry@vgui@@UAEX_N@Z 1008a840 f   vgui_controls:TextEntry.obj
 0001:00089850       ?SetCatchTabKey@TextEntry@vgui@@UAEX_N@Z 1008a850 f   vgui_controls:TextEntry.obj
 0001:00089860       ?SetVerticalScrollbar@TextEntry@vgui@@UAEX_N@Z 1008a860 f   vgui_controls:TextEntry.obj
 0001:000898f0       ?SetEditable@TextEntry@vgui@@UAEX_N@Z 1008a8f0 f   vgui_controls:TextEntry.obj
 0001:00089930       ?UnlocalizeUnicode@@YAPB_WPA_W@Z 1008a930 f   vgui_controls:TextEntry.obj
 0001:00089990       ?CreateEditMenu@TextEntry@vgui@@AAEXXZ 1008a990 f   vgui_controls:TextEntry.obj
 0001:00089f20       ?IsEditable@TextEntry@vgui@@UAE_NXZ 1008af20 f   vgui_controls:TextEntry.obj
 0001:00089f40       ?OnMouseFocusTicked@TextEntry@vgui@@MAEXXZ 1008af40 f   vgui_controls:TextEntry.obj
 0001:00089f60       ?OnCursorEntered@TextEntry@vgui@@MAEXXZ 1008af60 f   vgui_controls:TextEntry.obj
 0001:00089f70       ?OnCursorExited@TextEntry@vgui@@MAEXXZ 1008af70 f   vgui_controls:TextEntry.obj
 0001:00089f90       ?OnMousePressed@TextEntry@vgui@@MAEXW4ButtonCode_t@@@Z 1008af90 f   vgui_controls:TextEntry.obj
 0001:0008a0a0       ?OnMouseReleased@TextEntry@vgui@@MAEXW4ButtonCode_t@@@Z 1008b0a0 f   vgui_controls:TextEntry.obj
 0001:0008a100       ?OnMouseCaptureLost@TextEntry@vgui@@MAEXXZ 1008b100 f   vgui_controls:TextEntry.obj
 0001:0008a110       ?OnKeyTyped@TextEntry@vgui@@MAEX_W@Z 1008b110 f   vgui_controls:TextEntry.obj
 0001:0008a1b0       ?MoveScrollBar@TextEntry@vgui@@AAEXH@Z 1008b1b0 f   vgui_controls:TextEntry.obj
 0001:0008a1f0       ?OnKeyFocusTicked@TextEntry@vgui@@MAEXXZ 1008b1f0 f   vgui_controls:TextEntry.obj
 0001:0008a240       ?GetDragPanel@TextEntry@vgui@@UAEPAVPanel@2@XZ 1008b240 f   vgui_controls:TextEntry.obj
 0001:0008a2e0       ?OnCreateDragData@TextEntry@vgui@@UAEXPAVKeyValues@@@Z 1008b2e0 f   vgui_controls:TextEntry.obj
 0001:0008a380       ?SelectCheck@TextEntry@vgui@@MAE_N_N@Z 1008b380 f   vgui_controls:TextEntry.obj
 0001:0008a480       ?SetMaximumCharCount@TextEntry@vgui@@UAEXH@Z 1008b480 f   vgui_controls:TextEntry.obj
 0001:0008a490       ?GetMaximumCharCount@TextEntry@vgui@@UAEHXZ 1008b490 f   vgui_controls:TextEntry.obj
 0001:0008a4a0       ?SetAutoProgressOnHittingCharLimit@TextEntry@vgui@@UAEX_N@Z 1008b4a0 f   vgui_controls:TextEntry.obj
 0001:0008a4b0       ?SetWrap@TextEntry@vgui@@UAEX_N@Z 1008b4b0 f   vgui_controls:TextEntry.obj
 0001:0008a4c0       ?SendNewLine@TextEntry@vgui@@UAEX_N@Z 1008b4c0 f   vgui_controls:TextEntry.obj
 0001:0008a4d0       ?GetYStart@TextEntry@vgui@@MAEHXZ 1008b4d0 f   vgui_controls:TextEntry.obj
 0001:0008a520       ?SetHorizontalScrolling@TextEntry@vgui@@QAEX_N@Z 1008b520 f   vgui_controls:TextEntry.obj
 0001:0008a530       ?ScrollLeft@TextEntry@vgui@@IAEXXZ 1008b530 f   vgui_controls:TextEntry.obj
 0001:0008a580       ?IsCursorOffRightSideOfWindow@TextEntry@vgui@@IAE_NH@Z 1008b580 f   vgui_controls:TextEntry.obj
 0001:0008a5d0       ?GotoTextStart@TextEntry@vgui@@UAEXXZ 1008b5d0 f   vgui_controls:TextEntry.obj
 0001:0008a620       ?InsertString@TextEntry@vgui@@UAEXPA_W@Z 1008b620 f   vgui_controls:TextEntry.obj
 0001:0008a680       ?InsertString@TextEntry@vgui@@UAEXPBD@Z 1008b680 f   vgui_controls:TextEntry.obj
 0001:0008a700       ?SelectNone@TextEntry@vgui@@UAEXXZ 1008b700 f   vgui_controls:TextEntry.obj
 0001:0008a720       ?GetSelectedRange@TextEntry@vgui@@MAE_NAAH0@Z 1008b720 f   vgui_controls:TextEntry.obj
 0001:0008a760       ?OpenEditMenu@TextEntry@vgui@@UAEXXZ 1008b760 f   vgui_controls:TextEntry.obj
 0001:0008a8a0       ?CutSelected@TextEntry@vgui@@UAEXXZ 1008b8a0 f   vgui_controls:TextEntry.obj
 0001:0008a8e0       ?GetValueAsFloat@TextEntry@vgui@@UAEMXZ 1008b8e0 f   vgui_controls:TextEntry.obj
 0001:0008a920       ?GetValueAsInt@TextEntry@vgui@@UAEHXZ 1008b920 f   vgui_controls:TextEntry.obj
 0001:0008a960       ?FireActionSignal@TextEntry@vgui@@MAEXXZ 1008b960 f   vgui_controls:TextEntry.obj
 0001:0008a9b0       ?SetFont@TextEntry@vgui@@UAEXK@Z 1008b9b0 f   vgui_controls:TextEntry.obj
 0001:0008a9e0       ?RequestInfo@TextEntry@vgui@@UAE_NPAVKeyValues@@@Z 1008b9e0 f   vgui_controls:TextEntry.obj
 0001:0008aab0       ?OnSetText@TextEntry@vgui@@MAEXPB_W@Z 1008bab0 f   vgui_controls:TextEntry.obj
 0001:0008aac0       ?OnSetState@TextEntry@vgui@@EAEXH@Z 1008bac0 f   vgui_controls:TextEntry.obj
 0001:0008ab00       ?GetSettings@TextEntry@vgui@@MAEXPAVKeyValues@@@Z 1008bb00 f   vgui_controls:TextEntry.obj
 0001:0008aba0       ?GetDescription@TextEntry@vgui@@MAEPBDXZ 1008bba0 f   vgui_controls:TextEntry.obj
 0001:0008abd0       ?SelectNoText@TextEntry@vgui@@QAEXXZ 1008bbd0 f   vgui_controls:TextEntry.obj
 0001:0008abf0       ?SetAllowNumericInputOnly@TextEntry@vgui@@QAEX_N@Z 1008bbf0 f   vgui_controls:TextEntry.obj
 0001:0008ac00       ?OnChangeIME@TextEntry@vgui@@IAEX_N@Z 1008bc00 f   vgui_controls:TextEntry.obj
 0001:0008ac20       ?LanguageChanged@TextEntry@vgui@@UAEXH@Z 1008bc20 f   vgui_controls:TextEntry.obj
 0001:0008ac30       ?ConversionModeChanged@TextEntry@vgui@@UAEXH@Z 1008bc30 f   vgui_controls:TextEntry.obj
 0001:0008ac40       ?SentenceModeChanged@TextEntry@vgui@@UAEXH@Z 1008bc40 f   vgui_controls:TextEntry.obj
 0001:0008ac50       ?CompositionString@TextEntry@vgui@@UAEXPB_W@Z 1008bc50 f   vgui_controls:TextEntry.obj
 0001:0008ac80       ?ShowIMECandidates@TextEntry@vgui@@UAEXXZ 1008bc80 f   vgui_controls:TextEntry.obj
 0001:0008af40       ?HideIMECandidates@TextEntry@vgui@@UAEXXZ 1008bf40 f   vgui_controls:TextEntry.obj
 0001:0008af80       ?UpdateIMECandidates@TextEntry@vgui@@UAEXXZ 1008bf80 f   vgui_controls:TextEntry.obj
 0001:0008b170       ?FlipToLastIME@TextEntry@vgui@@AAEXXZ 1008c170 f   vgui_controls:TextEntry.obj
 0001:0008b1d0       ?GetDropContextMenu@TextEntry@vgui@@UAE_NPAVMenu@2@AAV?$CUtlVector@PAVKeyValues@@V?$CUtlMemory@PAVKeyValues@@H@@@@@Z 1008c1d0 f   vgui_controls:TextEntry.obj
 0001:0008b240       ?IsTextFullySelected@TextEntry@vgui@@UBE_NXZ 1008c240 f   vgui_controls:TextEntry.obj
 0001:0008b270       ?SetUseFallbackFont@TextEntry@vgui@@QAEX_NK@Z 1008c270 f   vgui_controls:TextEntry.obj
 0001:0008b290       ?GetSizerMinimumSize@TextEntry@vgui@@UAEXAAH0@Z 1008c290 f   vgui_controls:TextEntry.obj
 0001:0008b2b0       ??_9TextEntry@vgui@@$BDKI@AE 1008c2b0 f i vgui_controls:TextEntry.obj
